(lp0
I8999
aI9000
aI9001
aI9002
aI9012
aI9013
aI9014
aI9015
aI9016
aI9017
aI9018
aI9019
aI9020
aI9021
aI9022
aI9023
aI9024
aI9025
aI9026
aI9027
aI9028
aI9029
aI9030
aI9031
aI9032
aI9033
aI9034
aI9035
aI9036
aI9037
aI9038
aI9039
aI9040
aI9041
aI9042
aI9043
aI9044
aI9045
aI9046
aI9047
aI9048
aI9049
aI9050
aI9051
aI9052
aI9053
aI9054
aI9055
aI9056
aI9057
aI9058
aI9059
aI9060
aI9061
aI9062
aI9063
aI9064
aI9065
aI9066
aI9067
aI9068
aI9069
aI9070
aI9071
aI9072
aI9073
aI9074
aI9075
aI9076
aI9077
aI9078
aI9079
aI9080
aI9081
aI9082
aI9083
aI9084
aI9085
aI9086
aI9087
aI9088
aI9089
aI9090
aI9091
aI9092
aI9093
aI9094
aI9095
aI9096
aI9097
aI9098
aI9099
aI9100
aI9101
aI9102
aI9103
aI9104
aI9105
aI9106
aI9107
aI9108
aI9109
aI9110
aI9111
aI9112
aI9113
aI9114
aI9115
aI9116
aI9117
aI9118
aI9119
aI9120
aI9121
aI9122
aI9123
aI9124
aI9125
aI9126
aI9127
aI9128
aI9129
aI9130
aI9131
aI9132
aI9133
aI9134
aI9135
aI9136
aI9137
aI9138
aI9139
aI9140
aI9141
aI9142
aI9143
aI9144
aI9145
aI9146
aI9147
aI9148
aI9149
aI9150
aI9151
aI9152
aI9153
aI9154
aI9155
aI9156
aI9157
aI9158
aI9159
aI9160
aI9161
aI9162
aI9163
aI9170
aI9171
aI9172
aI9173
aI9174
aI9175
aI9176
aI9177
aI9178
aI9179
aI9180
aI9181
aI9182
aI9183
aI9184
aI9185
aI9186
aI9187
aI9188
aI9189
aI9190
aI9191
aI9192
aI9193
aI9194
aI9195
aI9196
aI9197
aI9198
aI9199
aI9200
aI9201
aI9202
aI9203
aI9204
aI9205
aI9206
aI9207
aI9208
aI9209
aI9210
aI9211
aI9212
aI9213
aI9214
aI9215
aI9216
aI9217
aI9218
aI9219
aI9220
aI9221
aI9222
aI9223
aI9224
aI9225
aI9226
aI9227
aI9228
aI9229
aI9230
aI9231
aI9232
aI9233
aI9234
aI9235
aI9236
aI9237
aI9238
aI9239
aI9240
aI9241
aI9242
aI9243
aI9244
aI9245
aI9246
aI9247
aI9248
aI9249
aI9250
aI9251
aI9252
aI9253
aI9254
aI9255
aI9256
aI9257
aI9258
aI9259
aI9260
aI9261
aI9262
aI9263
aI9264
aI9265
aI9266
aI9267
aI9268
aI9269
aI9270
aI9271
aI9272
aI9273
aI9274
aI9275
aI9276
aI9277
aI9278
aI9279
aI9280
aI9281
aI9282
aI9283
aI9284
aI9285
aI9286
aI9287
aI9288
aI9289
aI9290
aI9298
aI9299
aI9300
aI9301
aI9302
aI9303
aI9304
aI9305
aI9306
aI9307
aI9308
aI9309
aI9310
aI9311
aI9312
aI9313
aI9314
aI9315
aI9316
aI9317
aI9318
aI9319
aI9320
aI9321
aI9322
aI9323
aI9324
aI9325
aI9326
aI9327
aI9328
aI9329
aI9330
aI9331
aI9332
aI9333
aI9334
aI9335
aI9336
aI9337
aI9338
aI9339
aI9340
aI9341
aI9342
aI9343
aI9344
aI9345
aI9346
aI9347
aI9348
aI9349
aI9350
aI9351
aI9352
aI9353
aI9354
aI9355
aI9356
aI9357
aI9358
aI9359
aI9360
aI9361
aI9362
aI9363
aI9364
aI9365
aI9368
aI9369
aI9370
aI9371
aI9372
aI9373
aI9374
aI9375
aI9383
aI9384
aI9385
aI9386
aI9387
aI9388
aI9389
aI9390
aI9391
aI9392
aI9393
aI9394
aI9395
aI9396
aI9397
aI9398
aI9399
aI9400
aI9401
aI9402
aI9403
aI9404
aI9405
aI9406
aI9407
aI9408
aI9409
aI9410
aI9411
aI9412
aI9413
aI9414
aI9415
aI9416
aI9417
aI9418
aI9419
aI9420
aI9421
aI9422
aI9423
aI9424
aI9425
aI9426
aI9427
aI9428
aI9429
aI9430
aI9431
aI9432
aI9433
aI9434
aI9435
aI9436
aI9437
aI9438
aI9439
aI9440
aI9441
aI9442
aI9443
aI9444
aI9445
aI9446
aI9447
aI9448
aI9449
aI9450
aI9451
aI9452
aI9453
aI9454
aI9455
aI9456
aI9457
aI9458
aI9459
aI9460
aI9461
aI9462
aI9463
aI9464
aI9465
aI9466
aI9467
aI9468
aI9469
aI9470
aI9471
aI9472
aI9473
aI9474
aI9475
aI9476
aI9477
aI9478
aI9479
aI9480
aI9481
aI9482
aI9483
aI9484
aI9485
aI9486
aI9487
aI9488
aI9489
aI9490
aI9491
aI9492
aI9493
aI9494
aI9495
aI9496
aI9497
aI9498
aI9499
aI9500
aI9501
aI9502
aI9503
aI9504
aI9505
aI9506
aI9507
aI9508
aI9509
aI9510
aI9511
aI9512
aI9513
aI9514
aI9515
aI9516
aI9517
aI9518
aI9519
aI9520
aI9521
aI9522
aI9523
aI9524
aI9525
aI9526
aI9527
aI9528
aI9529
aI9534
aI9535
aI9536
aI9537
aI9538
aI9539
aI9540
aI9541
aI9542
aI9543
aI9544
aI9545
aI9546
aI9547
aI9548
aI9549
aI9550
aI9551
aI9552
aI9553
aI9554
aI9555
aI9556
aI9557
aI9558
aI9559
aI9560
aI9561
aI9562
aI9563
aI9564
aI9565
aI9566
aI9567
aI9568
aI9569
aI9570
aI9571
aI9572
aI9573
aI9574
aI9575
aI9576
aI9577
aI9578
aI9579
aI9580
aI9581
aI9582
aI9583
aI9584
aI9585
aI9586
aI9587
aI9588
aI9589
aI9590
aI9591
aI9592
aI9593
aI9594
aI9602
aI9603
aI9604
aI9605
aI9606
aI9607
aI9608
aI9609
aI9610
aI9611
aI9612
aI9613
aI9614
aI9615
aI9616
aI9617
aI9618
aI9619
aI9620
aI9621
aI9622
aI9623
aI9624
aI9625
aI9626
aI9627
aI9628
aI9629
aI9630
aI9631
aI9632
aI9633
aI9634
aI9635
aI9636
aI9637
aI9638
aI9639
aI9640
aI9641
aI9642
aI9643
aI9644
aI9645
aI9646
aI9647
aI9648
aI9649
aI9650
aI9651
aI9652
aI9653
aI9654
aI9655
aI9656
aI9657
aI9658
aI9659
aI9660
aI9661
aI9662
aI9663
aI9664
aI9665
aI9666
aI9667
aI9668
aI9669
aI9670
aI9671
aI9672
aI9673
aI9674
aI9675
aI9676
aI9677
aI9678
aI9679
aI9680
aI9681
aI9682
aI9683
aI9684
aI9685
aI9686
aI9687
aI9688
aI9689
aI9690
aI9691
aI9701
aI9702
aI9703
aI9704
aI9705
aI9706
aI9707
aI9708
aI9709
aI9710
aI9711
aI9712
aI9713
aI9714
aI9715
aI9716
aI9717
aI9725
aI9726
aI9727
aI9728
aI9729
aI9730
aI9731
aI9732
aI9733
aI9734
aI9735
aI9736
aI9737
aI9738
aI9739
aI9740
aI9741
aI9742
aI9743
aI9744
aI9745
aI9746
aI9747
aI9748
aI9749
aI9750
aI9751
aI9752
aI9753
aI9754
aI9755
aI9756
aI9757
aI9758
aI9759
aI9760
aI9761
aI9762
aI9763
aI9764
aI9765
aI9766
aI9767
aI9768
aI9769
aI9770
aI9771
aI9772
aI9773
aI9774
aI9775
aI9776
aI9777
aI9778
aI9779
aI9780
aI9781
aI9782
aI9783
aI9784
aI9785
aI9786
aI9787
aI9788
aI9789
aI9790
aI9791
aI9792
aI9793
aI9794
aI9795
aI9796
aI9797
aI9798
aI9799
aI9800
aI9801
aI9802
aI9803
aI9804
aI9805
aI9806
aI9807
aI9808
aI9809
aI9810
aI9811
aI9812
aI9813
aI9814
aI9815
aI9816
aI9817
aI9818
aI9819
aI9820
aI9821
aI9822
aI9823
aI9824
aI9825
aI9826
aI9827
aI9828
aI9829
aI9830
aI9831
aI9832
aI9833
aI9834
aI9835
aI9836
aI9837
aI9845
aI9846
aI9847
aI9848
aI9849
aI9850
aI9851
aI9852
aI9853
aI9854
aI9855
aI9856
aI9857
aI9858
aI9859
aI9860
aI9861
aI9862
aI9863
aI9864
aI9865
aI9866
aI9867
aI9868
aI9869
aI9870
aI9871
aI9872
aI9873
aI9874
aI9875
aI9876
aI9877
aI9878
aI9879
aI9880
aI9881
aI9882
aI9883
aI9884
aI9885
aI9886
aI9887
aI9888
aI9889
aI9890
aI9891
aI9892
aI9893
aI9894
aI9895
aI9896
aI9897
aI9898
aI9899
aI9900
aI9901
aI9902
aI9903
aI9904
aI9905
aI9906
aI9907
aI9908
aI9909
aI9910
aI9911
aI9912
aI9913
aI9914
aI9915
aI9916
aI9917
aI9918
aI9919
aI9920
aI9921
aI9922
aI9923
aI9924
aI9925
aI9926
aI9927
aI9928
aI9929
aI9930
aI9931
aI9932
aI9933
aI9934
aI9935
aI9936
aI9937
aI9938
aI9939
aI9940
aI9941
aI9942
aI9943
aI9944
aI9945
aI9946
aI9947
aI9948
aI9949
aI9950
aI9951
aI9952
aI9953
aI9954
aI9955
aI9956
aI9957
aI9958
aI9959
aI9960
aI9961
aI9962
aI9963
aI9964
aI9965
aI9966
aI9967
aI9968
aI9969
aI9970
aI9971
aI9972
aI9973
aI9974
aI9975
aI9976
aI9977
aI9978
aI9979
aI9980
aI9981
aI9982
aI9983
aI9984
aI9985
aI9995
aI9996
aI9997
aI9998
aI9999
aI10000
aI10001
aI10002
aI10003
aI10004
aI10005
aI10006
aI10007
aI10008
aI10009
aI10010
aI10011
aI10012
aI10013
aI10014
aI10015
aI10016
aI10017
aI10044
aI10045
aI10046
aI10047
aI10048
aI10049
aI10050
aI10051
aI10052
aI10053
aI10054
aI10055
aI10056
aI10057
aI10058
aI10059
aI10060
aI10061
aI10062
aI10063
aI10064
aI10065
aI10066
aI10067
aI10068
aI10069
aI10070
aI10071
aI10072
aI10073
aI10074
aI10075
aI10076
aI10077
aI10078
aI10079
aI10080
aI10081
aI10082
aI10083
aI10084
aI10085
aI10086
aI10087
aI10088
aI10089
aI10090
aI10091
aI10092
aI10093
aI10094
aI10095
aI10096
aI10097
aI10098
aI10099
aI10100
aI10101
aI10102
aI10103
aI10104
aI10105
aI10106
aI10107
aI10108
aI10109
aI10110
aI10111
aI10112
aI10113
aI10114
aI10115
aI10116
a.(lp0
I1752
aI1764
aI1768
aI1752
aI1704
aI1704
aI1704
aI1712
aI1712
aI1700
aI1696
aI1696
aI1696
aI1696
aI1696
aI1696
aI1696
aI1696
aI1696
aI1696
aI1696
aI1696
aI1696
aI1696
aI1696
aI1696
aI1696
aI1696
aI1696
aI1696
aI1696
aI1696
aI1696
aI1696
aI1696
aI1696
aI1696
aI1696
aI1696
aI1696
aI1696
aI1696
aI1696
aI1696
aI1696
aI1696
aI1696
aI1696
aI1696
aI1696
aI1696
aI1696
aI1696
aI1696
aI1696
aI1696
aI1696
aI1696
aI1696
aI1696
aI1700
aI1708
aI1728
aI1728
aI1728
aI1728
aI1728
aI1716
aI1616
aI1576
aI1576
aI1576
aI1576
aI1576
aI1576
aI1576
aI1576
aI1576
aI1576
aI1576
aI1576
aI1604
aI1616
aI1628
aI1636
aI1648
aI1664
aI1700
aI1768
aI1828
aI1876
aI1900
aI1908
aI1908
aI1908
aI1908
aI1908
aI1948
aI1952
aI1952
aI1952
aI1952
aI1952
aI1952
aI1952
aI1952
aI1932
aI1896
aI1832
aI1760
aI1728
aI1692
aI1652
aI1644
aI1640
aI1632
aI1628
aI1628
aI1628
aI1628
aI1628
aI1628
aI1628
aI1628
aI1628
aI1628
aI1628
aI1628
aI1628
aI1628
aI1628
aI1628
aI1636
aI1668
aI1684
aI1700
aI1700
aI1712
aI1748
aI1752
aI1752
aI1760
aI1776
aI1820
aI1828
aI1852
aI1864
aI1864
aI1864
aI1864
aI1864
aI1864
aI1864
aI1864
aI1864
aI1864
aI1788
aI1788
aI1788
aI1788
aI1788
aI1788
aI1788
aI1788
aI1788
aI1788
aI1788
aI1788
aI1788
aI1788
aI1788
aI1788
aI1788
aI1788
aI1788
aI1788
aI1788
aI1788
aI1788
aI1788
aI1788
aI1788
aI1788
aI1788
aI1788
aI1788
aI1788
aI1788
aI1788
aI1720
aI1656
aI1544
aI1440
aI1396
aI1396
aI1396
aI1396
aI1452
aI1544
aI1628
aI1720
aI1736
aI1744
aI1744
aI1744
aI1744
aI1744
aI1744
aI1744
aI1744
aI1744
aI1744
aI1744
aI1744
aI1744
aI1744
aI1744
aI1744
aI1744
aI1744
aI1744
aI1744
aI1744
aI1744
aI1744
aI1744
aI1744
aI1744
aI1744
aI1744
aI1744
aI1744
aI1744
aI1744
aI1744
aI1744
aI1744
aI1744
aI1744
aI1720
aI1684
aI1640
aI1608
aI1584
aI1560
aI1540
aI1504
aI1496
aI1484
aI1480
aI1480
aI1480
aI1492
aI1516
aI1516
aI1516
aI1528
aI1552
aI1600
aI1660
aI1740
aI1784
aI1860
aI1904
aI1936
aI1948
aI1948
aI1948
aI1948
aI1948
aI1948
aI1884
aI1808
aI1776
aI1692
aI1632
aI1592
aI1628
aI1676
aI1728
aI1812
aI1876
aI1900
aI1920
aI1928
aI1928
aI1928
aI1928
aI1860
aI1796
aI1748
aI1692
aI1652
aI1632
aI1632
aI1632
aI1712
aI1788
aI1872
aI1920
aI1928
aI1936
aI1936
aI1936
aI1900
aI1816
aI1772
aI1764
aI1764
aI1764
aI1764
aI1768
aI1784
aI1792
aI1832
aI1856
aI1868
aI1868
aI1868
aI1868
aI1868
aI1844
aI1840
aI1840
aI1824
aI1792
aI1768
aI1768
aI1840
aI1940
aI1952
aI1948
aI1932
aI1892
aI1796
aI1728
aI1684
aI1728
aI1816
aI1904
aI1928
aI1908
aI1860
aI1780
aI1784
aI1856
aI1856
aI1820
aI1760
aI1744
aI1728
aI1724
aI1724
aI1884
aI1900
aI1892
aI1880
aI1872
aI1872
aI1872
aI1872
aI1872
aI1872
aI1872
aI1872
aI1872
aI1884
aI1884
aI1884
aI1888
aI1892
aI1904
aI1924
aI1940
aI1944
aI1948
aI1948
aI1948
aI1948
aI1948
aI1948
aI1948
aI1948
aI1948
aI1948
aI1940
aI1944
aI1944
aI1944
aI1936
aI1936
aI1928
aI1924
aI1924
aI1924
aI1924
aI1944
aI1964
aI1984
aI1992
aI1996
aI1996
aI2000
aI2000
aI2000
aI2000
aI2000
aI2000
aI2000
aI2000
aI2000
aI2000
aI2000
aI2016
aI2048
aI2056
aI2064
aI2068
aI2068
aI2068
aI2068
aI2108
aI2116
aI2116
aI2116
aI2116
aI2116
aI2116
aI2116
aI2116
aI2116
aI2116
aI2116
aI2116
aI2116
aI2116
aI2116
aI2116
aI2116
aI2116
aI2116
aI2116
aI2104
aI2100
aI2100
aI2100
aI2100
aI2100
aI2100
aI2100
aI2100
aI2100
aI2100
aI2100
aI2100
aI2100
aI2100
aI2100
aI2100
aI2100
aI2100
aI2100
aI2100
aI2100
aI2100
aI2100
aI2100
aI2100
aI2100
aI2096
aI2096
aI2096
aI2096
aI2096
aI2096
aI2096
aI2096
aI2096
aI2096
aI2096
aI2096
aI2096
aI2096
aI2096
aI2096
aI2096
aI2096
aI2096
aI2096
aI2096
aI2096
aI2096
aI2096
aI2096
aI2096
aI2096
aI2088
aI2008
aI1960
aI1800
aI1828
aI1852
aI1852
aI1852
aI1832
aI1824
aI1824
aI1824
aI1824
aI1824
aI1824
aI1824
aI1824
aI1824
aI1824
aI1824
aI1824
aI1824
aI1824
aI1824
aI1824
aI1824
aI1824
aI1824
aI1824
aI1824
aI1824
aI1824
aI1824
aI1824
aI1824
aI1824
aI1824
aI1824
aI1824
aI1824
aI1824
aI1824
aI1824
aI1824
aI1824
aI1824
aI1824
aI1824
aI1824
aI1824
aI1824
aI1824
aI1824
aI1824
aI1824
aI1824
aI1824
aI1824
aI1824
aI1824
aI1824
aI1824
aI1836
aI1844
aI1860
aI1936
aI1936
aI1936
aI1936
aI1936
aI1936
aI1936
aI1936
aI1936
aI1936
aI1936
aI1936
aI1936
aI1936
aI1936
aI1936
aI1936
aI1936
aI1936
aI1936
aI1936
aI1936
aI1936
aI1936
aI1936
aI1936
aI1936
aI1936
aI1936
aI1936
aI1936
aI1936
aI1936
aI1936
aI1936
aI1936
aI1936
aI1936
aI1936
aI1936
aI1936
aI1936
aI1936
aI1936
aI1936
aI1936
aI1936
aI1936
aI1936
aI1936
aI1936
aI1936
aI1936
aI1936
aI1936
aI1972
aI2032
aI2076
aI2088
aI2132
aI2132
aI2132
aI2132
aI2132
aI2132
aI2132
aI2132
aI2132
aI2132
aI2132
aI2132
aI2132
aI2132
aI2132
aI2132
aI2132
aI2132
aI2132
aI2136
aI2136
aI2136
aI2140
aI2128
aI2128
aI2124
aI2132
aI2136
aI2136
aI2132
aI2120
aI2092
aI2092
aI2092
aI2092
aI2092
aI2092
aI2092
aI2092
aI2092
aI2092
aI2092
aI2092
aI2092
aI2092
aI2092
aI2092
aI2092
aI2112
aI2112
aI2112
aI2112
aI2112
aI2112
aI2112
aI2112
aI2112
aI2112
aI2112
aI2112
aI2112
aI2112
aI2112
aI2112
aI2112
aI2112
aI2112
aI2112
aI2112
aI2112
aI2112
aI2112
aI2112
aI2112
aI2112
aI2112
aI2112
aI2112
aI2112
aI2112
aI2112
aI2112
aI2112
aI2112
aI2112
aI2112
aI2112
aI2068
aI1984
aI1908
aI1904
aI1904
aI1904
aI1904
aI1904
aI1904
aI1904
aI1904
aI1900
aI1896
aI1892
aI1888
aI1888
aI1888
aI1888
aI1888
aI1884
aI1884
aI1884
aI1884
aI1884
aI1884
aI1884
aI1884
aI1884
aI1888
aI1892
aI1892
aI1908
aI1920
aI1948
aI1960
aI1968
aI1972
aI1976
aI1976
aI1976
aI1976
aI1976
aI1976
aI1976
aI1976
aI1976
aI1980
aI2000
aI2016
aI2036
aI2036
aI2032
aI2032
aI2016
aI2008
aI2008
aI2008
aI2008
aI2008
aI2008
aI2008
aI2008
aI2008
aI2008
aI2008
aI2008
aI2008
aI2008
aI2008
aI2008
aI2008
aI2008
aI2008
aI2008
aI2028
aI2028
aI2028
aI2028
aI2028
aI2028
aI2028
aI2028
aI2028
aI2028
aI2028
aI2028
aI2028
aI2028
aI2028
aI2028
aI2028
aI2028
aI2028
aI2028
aI2028
aI2028
aI2028
aI2028
aI2028
aI2028
aI2028
aI2028
aI2028
aI2028
aI2028
aI2028
aI2028
aI2028
aI2028
aI2028
aI2028
aI2028
aI2028
aI2028
aI2028
aI2028
aI2028
aI2028
aI2028
aI2028
aI2028
aI2028
aI2028
aI2028
aI2028
aI2028
aI2028
aI2028
aI2028
aI2028
aI2028
aI2028
aI2028
aI2028
aI2028
aI2028
aI2028
aI2028
aI2028
aI2028
aI2028
aI2028
aI2028
aI2028
aI2028
aI2028
aI2028
aI2028
aI2028
aI2028
aI2028
aI2028
aI2028
aI2028
aI2028
aI2028
aI2028
aI2028
aI2028
aI2028
aI2028
aI2024
aI2020
aI2016
aI2012
aI2008
aI2008
aI2016
aI2016
aI2016
aI2016
aI2016
aI2016
aI2016
aI2016
aI2016
aI2016
aI2016
aI2016
aI2016
aI2016
aI2016
aI2016
aI2016
aI2016
aI2016
aI2016
aI2016
aI2016
aI2016
aI2016
aI2016
aI1992
aI1960
aI1952
aI1952
aI1952
aI1952
aI1952
aI1952
aI1952
aI1952
aI1952
aI1964
aI2008
aI2028
aI2028
aI2028
aI2028
aI2028
aI2028
aI2028
aI2028
aI2028
aI2032
aI2028
aI2028
aI2028
aI2028
aI2028
aI2028
aI2028
aI2028
aI2028
aI2028
aI2028
aI2028
aI2028
aI2028
aI2028
aI2028
aI2028
aI2028
aI2028
aI2028
aI2028
aI2028
aI2028
aI2052
aI2052
aI2052
aI2052
aI2052
aI2052
aI2052
aI2052
aI2040
aI1996
aI1952
aI1928
aI1928
aI1928
aI1928
aI1928
aI1928
aI1928
aI1928
aI1928
aI1928
aI1928
aI1928
aI1928
aI1928
aI1944
aI1980
aI2044
aI2044
aI2044
aI2060
aI2136
aI2156
aI2156
aI2156
aI2156
aI2156
aI2156
aI2156
aI2156
aI2156
aI2156
aI2156
aI2136
aI2168
aI2192
aI2216
aI2216
aI2244
aI2252
aI2252
aI2252
aI2252
aI2252
aI2252
aI2252
aI2252
aI2288
aI2324
aI2332
aI2332
aI2332
aI2348
aI2384
aI2384
aI2384
aI2384
aI2384
aI2384
aI2380
aI2380
aI2380
aI2376
a.(lp0
I1248
aI1248
aI1244
aI1244
aI1196
aI1164
aI1164
aI1184
aI1188
aI1188
aI1188
aI1188
aI1188
aI1188
aI1188
aI1188
aI1188
aI1188
aI1188
aI1188
aI1188
aI1188
aI1188
aI1188
aI1188
aI1188
aI1188
aI1188
aI1188
aI1188
aI1188
aI1188
aI1188
aI1188
aI1188
aI1188
aI1188
aI1188
aI1188
aI1188
aI1188
aI1188
aI1188
aI1188
aI1188
aI1188
aI1188
aI1188
aI1188
aI1188
aI1188
aI1188
aI1188
aI1188
aI1188
aI1188
aI1176
aI1176
aI1176
aI1176
aI1176
aI1168
aI1160
aI1160
aI1160
aI1160
aI1160
aI1160
aI1128
aI1120
aI1120
aI1120
aI1120
aI1120
aI1120
aI1120
aI1120
aI1120
aI1120
aI1120
aI1120
aI1120
aI1120
aI1132
aI1132
aI1136
aI1136
aI1144
aI1144
aI1144
aI1152
aI1152
aI1152
aI1152
aI1152
aI1152
aI1152
aI1152
aI1152
aI1152
aI1152
aI1152
aI1152
aI1152
aI1152
aI1152
aI1152
aI1144
aI1144
aI1152
aI1156
aI1164
aI1164
aI1164
aI1164
aI1168
aI1168
aI1168
aI1168
aI1168
aI1168
aI1168
aI1168
aI1168
aI1168
aI1168
aI1168
aI1168
aI1168
aI1168
aI1188
aI1192
aI1196
aI1204
aI1204
aI1216
aI1220
aI1220
aI1232
aI1236
aI1236
aI1236
aI1236
aI1236
aI1236
aI1236
aI1236
aI1236
aI1236
aI1236
aI1236
aI1236
aI1236
aI1236
aI1236
aI1236
aI1248
aI1244
aI1244
aI1244
aI1244
aI1244
aI1244
aI1244
aI1244
aI1244
aI1244
aI1244
aI1244
aI1244
aI1244
aI1244
aI1244
aI1244
aI1244
aI1244
aI1244
aI1244
aI1244
aI1244
aI1244
aI1244
aI1244
aI1244
aI1244
aI1244
aI1244
aI1244
aI1244
aI1244
aI1236
aI1236
aI1232
aI1232
aI1232
aI1232
aI1232
aI1232
aI1240
aI1244
aI1248
aI1252
aI1252
aI1252
aI1252
aI1252
aI1252
aI1252
aI1252
aI1252
aI1252
aI1252
aI1252
aI1252
aI1252
aI1252
aI1252
aI1252
aI1252
aI1252
aI1252
aI1252
aI1252
aI1252
aI1252
aI1252
aI1252
aI1252
aI1252
aI1252
aI1252
aI1252
aI1252
aI1252
aI1252
aI1252
aI1252
aI1252
aI1252
aI1252
aI1252
aI1252
aI1252
aI1252
aI1252
aI1252
aI1252
aI1252
aI1252
aI1252
aI1252
aI1252
aI1252
aI1244
aI1244
aI1244
aI1244
aI1236
aI1232
aI1228
aI1240
aI1240
aI1240
aI1244
aI1244
aI1244
aI1244
aI1244
aI1244
aI1244
aI1244
aI1244
aI1244
aI1244
aI1244
aI1244
aI1248
aI1244
aI1244
aI1244
aI1244
aI1244
aI1244
aI1244
aI1244
aI1244
aI1244
aI1244
aI1252
aI1252
aI1244
aI1244
aI1244
aI1244
aI1244
aI1244
aI1256
aI1252
aI1252
aI1252
aI1252
aI1252
aI1252
aI1256
aI1256
aI1244
aI1252
aI1252
aI1252
aI1252
aI1252
aI1252
aI1220
aI1200
aI1160
aI1136
aI1120
aI1112
aI1112
aI1108
aI1108
aI1072
aI1064
aI1064
aI1080
aI1112
aI1144
aI1188
aI1216
aI1212
aI1192
aI1172
aI1152
aI1120
aI1088
aI1124
aI1176
aI1228
aI1212
aI1196
aI1156
aI1112
aI1108
aI1152
aI1220
aI1204
aI1164
aI1128
aI1160
aI1184
aI1204
aI1228
aI1244
aI1236
aI1220
aI1176
aI1140
aI1128
aI1128
aI1128
aI1128
aI1128
aI1128
aI1128
aI1128
aI1128
aI1168
aI1168
aI1168
aI1172
aI1176
aI1196
aI1224
aI1216
aI1228
aI1232
aI1236
aI1236
aI1236
aI1236
aI1252
aI1252
aI1252
aI1252
aI1252
aI1248
aI1248
aI1248
aI1244
aI1244
aI1244
aI1240
aI1240
aI1240
aI1240
aI1240
aI1224
aI1200
aI1160
aI1120
aI1096
aI1076
aI1060
aI1044
aI1020
aI1020
aI1012
aI1012
aI1012
aI1012
aI1012
aI1012
aI1012
aI996
aI968
aI960
aI952
aI944
aI944
aI944
aI944
aI928
aI928
aI928
aI928
aI928
aI928
aI928
aI928
aI928
aI928
aI928
aI928
aI928
aI928
aI928
aI928
aI928
aI928
aI928
aI928
aI928
aI928
aI928
aI928
aI928
aI928
aI928
aI928
aI928
aI928
aI928
aI928
aI928
aI928
aI928
aI928
aI928
aI928
aI924
aI924
aI924
aI924
aI924
aI924
aI924
aI924
aI924
aI924
aI924
aI924
aI924
aI924
aI924
aI924
aI924
aI924
aI924
aI924
aI924
aI924
aI924
aI924
aI924
aI924
aI924
aI924
aI924
aI924
aI924
aI924
aI924
aI924
aI924
aI924
aI924
aI924
aI916
aI912
aI908
aI912
aI912
aI912
aI912
aI952
aI968
aI968
aI968
aI968
aI968
aI968
aI968
aI968
aI968
aI968
aI968
aI968
aI968
aI968
aI968
aI968
aI968
aI968
aI968
aI968
aI968
aI968
aI968
aI968
aI968
aI968
aI968
aI968
aI968
aI968
aI968
aI968
aI968
aI968
aI968
aI968
aI968
aI968
aI968
aI968
aI968
aI968
aI968
aI968
aI968
aI968
aI968
aI968
aI968
aI968
aI968
aI968
aI968
aI960
aI944
aI928
aI904
aI904
aI904
aI904
aI904
aI904
aI904
aI904
aI904
aI904
aI904
aI904
aI904
aI904
aI904
aI904
aI904
aI904
aI904
aI904
aI904
aI904
aI904
aI904
aI904
aI904
aI904
aI904
aI904
aI904
aI904
aI904
aI904
aI904
aI904
aI904
aI904
aI904
aI904
aI904
aI904
aI904
aI904
aI904
aI904
aI904
aI904
aI904
aI904
aI904
aI904
aI904
aI904
aI904
aI904
aI932
aI980
aI1008
aI1020
aI1072
aI1072
aI1076
aI1076
aI1076
aI1076
aI1076
aI1076
aI1076
aI1076
aI1076
aI1076
aI1076
aI1076
aI1076
aI1076
aI1076
aI1076
aI1076
aI1092
aI1104
aI1140
aI1160
aI1184
aI1192
aI1212
aI1228
aI1244
aI1244
aI1252
aI1256
aI1256
aI1252
aI1252
aI1252
aI1252
aI1252
aI1252
aI1252
aI1252
aI1252
aI1252
aI1252
aI1252
aI1252
aI1252
aI1252
aI1256
aI1256
aI1256
aI1256
aI1256
aI1256
aI1256
aI1256
aI1256
aI1256
aI1256
aI1256
aI1256
aI1256
aI1256
aI1256
aI1256
aI1256
aI1256
aI1256
aI1256
aI1256
aI1256
aI1256
aI1256
aI1256
aI1256
aI1256
aI1256
aI1256
aI1256
aI1256
aI1256
aI1256
aI1256
aI1256
aI1256
aI1256
aI1256
aI1256
aI1244
aI1232
aI1220
aI1220
aI1220
aI1220
aI1220
aI1220
aI1220
aI1220
aI1220
aI1212
aI1212
aI1212
aI1212
aI1212
aI1212
aI1212
aI1204
aI1204
aI1196
aI1192
aI1192
aI1192
aI1192
aI1192
aI1192
aI1188
aI1188
aI1188
aI1188
aI1188
aI1184
aI1184
aI1176
aI1176
aI1176
aI1176
aI1176
aI1176
aI1176
aI1176
aI1176
aI1176
aI1176
aI1176
aI1168
aI1148
aI1128
aI1120
aI1092
aI1072
aI1056
aI1056
aI1036
aI1032
aI1024
aI1012
aI988
aI984
aI980
aI964
aI952
aI952
aI944
aI944
aI944
aI944
aI944
aI944
aI944
aI944
aI944
aI924
aI920
aI928
aI928
aI928
aI928
aI928
aI928
aI928
aI928
aI928
aI928
aI928
aI928
aI928
aI928
aI928
aI928
aI928
aI928
aI928
aI928
aI928
aI928
aI928
aI928
aI928
aI928
aI928
aI928
aI928
aI928
aI928
aI928
aI928
aI928
aI928
aI928
aI928
aI928
aI928
aI928
aI928
aI928
aI928
aI928
aI928
aI928
aI928
aI928
aI928
aI928
aI928
aI928
aI928
aI928
aI928
aI928
aI928
aI928
aI928
aI928
aI928
aI928
aI928
aI928
aI928
aI928
aI928
aI928
aI928
aI928
aI928
aI928
aI928
aI928
aI928
aI928
aI928
aI928
aI928
aI928
aI928
aI928
aI928
aI928
aI960
aI992
aI1012
aI1028
aI1044
aI1048
aI1060
aI1088
aI1104
aI1104
aI1104
aI1104
aI1104
aI1104
aI1104
aI1104
aI1104
aI1104
aI1104
aI1104
aI1104
aI1104
aI1104
aI1104
aI1104
aI1104
aI1104
aI1104
aI1104
aI1104
aI1104
aI1104
aI1104
aI1108
aI1112
aI1112
aI1112
aI1112
aI1112
aI1112
aI1112
aI1112
aI1112
aI1112
aI1136
aI1188
aI1200
aI1200
aI1200
aI1200
aI1200
aI1200
aI1200
aI1200
aI1200
aI1212
aI1252
aI1252
aI1252
aI1252
aI1252
aI1252
aI1252
aI1252
aI1252
aI1252
aI1252
aI1252
aI1252
aI1252
aI1252
aI1252
aI1252
aI1252
aI1252
aI1252
aI1252
aI1252
aI1252
aI1244
aI1244
aI1244
aI1244
aI1244
aI1244
aI1244
aI1244
aI1244
aI1252
aI1256
aI1256
aI1256
aI1256
aI1256
aI1256
aI1256
aI1256
aI1256
aI1256
aI1256
aI1256
aI1256
aI1256
aI1256
aI1244
aI1228
aI1228
aI1228
aI1228
aI1220
aI1212
aI1204
aI1204
aI1204
aI1204
aI1204
aI1204
aI1204
aI1204
aI1204
aI1204
aI1204
aI1212
aI1228
aI1220
aI1220
aI1220
aI1212
aI1208
aI1208
aI1208
aI1208
aI1208
aI1208
aI1208
aI1208
aI1208
aI1208
aI1208
aI1204
aI1204
aI1204
aI1204
aI1204
aI1204
aI1204
aI1204
aI1204
aI1204
aI1204
aI1204
aI1204
a.(lp0
I1200
aI1200
aI1200
aI1200
aI1200
aI1200
aI1200
aI1200
aI1200
aI1200
aI1200
aI1200
aI1200
aI1200
aI1200
aI1200
aI1200
aI1200
aI1200
aI1200
aI1200
aI1200
aI1200
aI1200
aI1200
aI1200
aI1200
aI1200
aI1200
aI1200
aI1200
aI1200
aI1200
aI1200
aI1200
aI1200
aI1200
aI1200
aI1200
aI1200
aI1200
aI1200
aI1200
aI1200
aI1200
aI1200
aI1200
aI1200
aI1200
aI1200
aI1200
aI1200
aI1200
aI1200
aI1200
aI1200
aI1200
aI1200
aI1200
aI1200
aI1200
aI1200
aI1200
aI1200
aI1200
aI1200
aI1200
aI1200
aI1200
aI1200
aI1200
aI1200
aI1200
aI1200
aI1200
aI1200
aI1200
aI1200
aI1200
aI1200
aI1200
aI1200
aI1200
aI1200
aI1200
aI1200
aI1200
aI1200
aI1200
aI1200
aI1200
aI1200
aI1200
aI1200
aI1200
aI1200
aI1200
aI1200
aI1200
aI1200
aI1200
aI1200
aI1200
aI1200
aI1200
aI1200
aI1200
aI1200
aI1200
aI1200
aI1200
aI1200
aI1200
aI1200
aI1200
aI1200
aI1200
aI1200
aI1200
aI1200
aI1200
aI1200
aI1200
aI1200
aI1200
aI1200
aI1200
aI1200
aI1200
aI1200
aI1200
aI1200
aI1200
aI1200
aI1200
aI1200
aI1200
aI1200
aI1200
aI1200
aI1200
aI1200
aI1200
aI1200
aI1200
aI1200
aI1200
aI1200
aI1200
aI1200
aI1200
aI1200
aI1200
aI1200
aI1200
aI1200
aI1200
aI1200
aI1200
aI1200
aI1200
aI1200
aI1200
aI1200
aI1200
aI1200
aI1200
aI1200
aI1200
aI1200
aI1200
aI1200
aI1200
aI1200
aI1200
aI1200
aI1200
aI1200
aI1200
aI1200
aI1200
aI1200
aI1200
aI1200
aI1200
aI1200
aI1200
aI1200
aI1200
aI1200
aI1200
aI1200
aI1200
aI1200
aI1200
aI1200
aI1200
aI1200
aI1200
aI1200
aI1200
aI1200
aI1200
aI1200
aI1200
aI1200
aI1200
aI1200
aI1200
aI1200
aI1200
aI1200
aI1200
aI1200
aI1200
aI1200
aI1200
aI1200
aI1200
aI1200
aI1200
aI1200
aI1200
aI1200
aI1200
aI1200
aI1200
aI1200
aI1200
aI1200
aI1200
aI1200
aI1200
aI1200
aI1200
aI1200
aI1200
aI1200
aI1200
aI1200
aI1200
aI1200
aI1200
aI1200
aI1200
aI1200
aI1200
aI1200
aI1200
aI1200
aI1200
aI1200
aI1200
aI1200
aI1200
aI1200
aI1200
aI1200
aI1200
aI1200
aI1200
aI1200
aI1200
aI1200
aI1200
aI1200
aI1200
aI1200
aI1200
aI1200
aI1200
aI1200
aI1200
aI1200
aI1200
aI1200
aI1200
aI1200
aI1200
aI1200
aI1200
aI1200
aI1200
aI1200
aI1200
aI1200
aI1200
aI1200
aI1200
aI1200
aI1200
aI1200
aI1200
aI1200
aI1200
aI1200
aI1200
aI1200
aI1200
aI1200
aI1200
aI1200
aI1200
aI1200
aI1200
aI1200
aI1200
aI1200
aI1200
aI1200
aI1200
aI1200
aI1200
aI1200
aI1200
aI1200
aI1200
aI1200
aI1200
aI1200
aI1200
aI1200
aI1200
aI1200
aI1200
aI1200
aI1200
aI1200
aI1200
aI1200
aI1200
aI1200
aI1200
aI1200
aI1200
aI1200
aI1200
aI1200
aI1200
aI1200
aI1200
aI1200
aI1200
aI1200
aI1200
aI1200
aI1200
aI1200
aI1200
aI1200
aI1200
aI1200
aI1200
aI1200
aI1200
aI1200
aI1200
aI1200
aI1200
aI1200
aI1200
aI1200
aI1200
aI1200
aI1200
aI1200
aI1200
aI1200
aI1200
aI1200
aI1200
aI1200
aI1200
aI1200
aI1200
aI1200
aI1200
aI1200
aI1200
aI1200
aI1200
aI1200
aI1200
aI1200
aI1200
aI1200
aI1200
aI1200
aI1200
aI1200
aI1200
aI1200
aI1200
aI1200
aI1200
aI1200
aI1200
aI1200
aI1200
aI1200
aI1200
aI1200
aI1200
aI1200
aI1200
aI1200
aI1200
aI1200
aI1200
aI1200
aI1200
aI1200
aI1200
aI1200
aI1200
aI1200
aI1200
aI1200
aI1200
aI1200
aI1200
aI1200
aI1200
aI1200
aI1200
aI1200
aI1200
aI1200
aI1200
aI1200
aI1200
aI1200
aI1200
aI1200
aI1200
aI1200
aI1200
aI1200
aI1200
aI1200
aI1200
aI1200
aI1200
aI1200
aI1200
aI1200
aI1200
aI1200
aI1200
aI1200
aI1200
aI1200
aI1200
aI1200
aI1200
aI1200
aI1200
aI1200
aI1200
aI1200
aI1200
aI1200
aI1200
aI1200
aI1200
aI1200
aI1200
aI1200
aI1200
aI1200
aI1200
aI1200
aI1200
aI1200
aI1200
aI1200
aI1200
aI1200
aI1200
aI1200
aI1200
aI1200
aI1200
aI1200
aI1200
aI1200
aI1200
aI1200
aI1200
aI1200
aI1200
aI1200
aI1200
aI1200
aI1200
aI1200
aI1200
aI1200
aI1200
aI1200
aI1200
aI1200
aI1200
aI1200
aI1200
aI1200
aI1200
aI1200
aI1200
aI1200
aI1200
aI1200
aI1200
aI1200
aI1200
aI1200
aI1200
aI1200
aI1200
aI1200
aI1200
aI1200
aI1200
aI1200
aI1200
aI1200
aI1200
aI1200
aI1200
aI1200
aI1200
aI1200
aI1200
aI1200
aI1200
aI1200
aI1200
aI1200
aI1200
aI1200
aI1200
aI1200
aI1200
aI1200
aI1200
aI1200
aI1200
aI1200
aI1200
aI1200
aI1200
aI1200
aI1200
aI1200
aI1200
aI1200
aI1200
aI1200
aI1200
aI1200
aI1200
aI1200
aI1200
aI1200
aI1200
aI1200
aI1200
aI1200
aI1200
aI1200
aI1200
aI1200
aI1200
aI1200
aI1200
aI1200
aI1200
aI1200
aI1200
aI1200
aI1200
aI1200
aI1200
aI1200
aI1200
aI1200
aI1200
aI1200
aI1200
aI1200
aI1200
aI1200
aI1200
aI1200
aI1200
aI1200
aI1200
aI1200
aI1200
aI1200
aI1200
aI1200
aI1200
aI1200
aI1200
aI1200
aI1200
aI1200
aI1200
aI1200
aI1200
aI1200
aI1200
aI1200
aI1200
aI1200
aI1200
aI1200
aI1200
aI1200
aI1200
aI1200
aI1200
aI1200
aI1200
aI1200
aI1200
aI1200
aI1200
aI1200
aI1200
aI1200
aI1200
aI1200
aI1200
aI1200
aI1200
aI1200
aI1200
aI1200
aI1200
aI1200
aI1200
aI1200
aI1200
aI1200
aI1200
aI1200
aI1200
aI1200
aI1200
aI1200
aI1200
aI1200
aI1200
aI1200
aI1200
aI1200
aI1200
aI1200
aI1200
aI1200
aI1200
aI1200
aI1200
aI1200
aI1200
aI1200
aI1200
aI1200
aI1200
aI1200
aI1200
aI1200
aI1200
aI1200
aI1200
aI1200
aI1200
aI1200
aI1200
aI1200
aI1200
aI1200
aI1200
aI1200
aI1200
aI1200
aI1200
aI1200
aI1200
aI1200
aI1200
aI1200
aI1200
aI1200
aI1200
aI1200
aI1200
aI1200
aI1200
aI1200
aI1200
aI1200
aI1200
aI1200
aI1200
aI1200
aI1200
aI1200
aI1200
aI1200
aI1200
aI1200
aI1200
aI1200
aI1200
aI1200
aI1200
aI1200
aI1200
aI1200
aI1200
aI1200
aI1200
aI1200
aI1200
aI1200
aI1200
aI1200
aI1200
aI1200
aI1200
aI1200
aI1200
aI1200
aI1200
aI1200
aI1200
aI1200
aI1200
aI1200
aI1200
aI1200
aI1200
aI1200
aI1200
aI1200
aI1200
aI1200
aI1200
aI1200
aI1200
aI1200
aI1200
aI1200
aI1200
aI1200
aI1200
aI1200
aI1200
aI1200
aI1200
aI1200
aI1200
aI1200
aI1200
aI1200
aI1200
aI1200
aI1200
aI1200
aI1200
aI1200
aI1200
aI1200
aI1200
aI1200
aI1200
aI1200
aI1200
aI1200
aI1200
aI1200
aI1200
aI1200
aI1200
aI1200
aI1200
aI1200
aI1200
aI1200
aI1200
aI1200
aI1200
aI1200
aI1200
aI1200
aI1200
aI1200
aI1200
aI1200
aI1200
aI1200
aI1200
aI1200
aI1200
aI1200
aI1200
aI1200
aI1200
aI1200
aI1200
aI1200
aI1200
aI1200
aI1200
aI1200
aI1200
aI1200
aI1200
aI1200
aI1200
aI1200
aI1200
aI1200
aI1200
aI1200
aI1200
aI1200
aI1200
aI1200
aI1200
aI1200
aI1200
aI1200
aI1200
aI1200
aI1200
aI1200
aI1200
aI1200
aI1200
aI1200
aI1200
aI1200
aI1200
aI1200
aI1200
aI1200
aI1200
aI1200
aI1200
aI1200
aI1200
aI1200
aI1200
aI1200
aI1200
aI1200
aI1200
aI1200
aI1200
aI1200
aI1200
aI1200
aI1200
aI1200
aI1200
aI1200
aI1200
aI1200
aI1200
aI1200
aI1200
aI1200
aI1200
aI1200
aI1200
aI1200
aI1200
aI1200
aI1200
aI1200
aI1200
aI1200
aI1200
aI1200
aI1200
aI1200
aI1200
aI1200
aI1200
aI1200
aI1200
aI1200
aI1200
aI1200
aI1200
aI1200
aI1200
aI1200
aI1200
aI1200
aI1200
aI1200
aI1200
aI1200
aI1200
aI1200
aI1200
aI1200
aI1200
aI1200
aI1200
aI1200
aI1200
aI1200
aI1200
aI1200
aI1200
aI1200
aI1200
aI1200
aI1200
aI1200
aI1200
aI1200
aI1200
aI1200
aI1200
aI1200
aI1200
aI1200
aI1200
aI1200
aI1200
aI1200
aI1200
aI1200
aI1200
aI1200
aI1200
aI1200
aI1200
aI1200
aI1200
aI1200
aI1200
aI1200
aI1200
aI1200
aI1200
aI1200
aI1200
aI1200
aI1200
aI1200
aI1200
aI1200
aI1200
aI1200
aI1200
aI1200
aI1200
aI1200
aI1200
aI1200
aI1200
aI1200
aI1200
aI1200
aI1200
aI1200
aI1200
aI1200
aI1200
aI1200
aI1200
aI1200
aI1200
aI1200
aI1200
aI1200
aI1200
aI1200
aI1200
aI1200
aI1200
aI1200
aI1200
aI1200
aI1200
aI1200
aI1200
aI1200
aI1200
aI1200
aI1200
aI1200
aI1200
aI1200
aI1200
aI1200
aI1200
aI1200
aI1200
aI1200
aI1200
aI1200
aI1200
aI1200
aI1200
aI1200
aI1200
aI1200
aI1200
aI1200
a.