(lp0
I1303
aI1304
aI1305
aI1306
aI1307
aI1308
aI1309
aI1310
aI1311
aI1312
aI1313
aI1314
aI1315
aI1316
aI1317
aI1318
aI1319
aI1320
aI1321
aI1322
aI1323
aI1324
aI1325
aI1326
aI1327
aI1328
aI1329
aI1330
aI1331
aI1332
aI1333
aI1334
aI1335
aI1336
aI1337
aI1338
aI1339
aI1340
aI1341
aI1342
aI1343
aI1344
aI1345
aI1346
aI1347
aI1348
aI1349
aI1350
aI1351
aI1352
aI1353
aI1354
aI1355
aI1356
aI1357
aI1358
aI1359
aI1360
aI1361
aI1362
aI1363
aI1364
aI1365
aI1366
aI1367
aI1368
aI1369
aI1370
aI1371
aI1372
aI1373
aI1374
aI1375
aI1376
aI1377
aI1378
aI1379
aI1380
aI1381
aI1382
aI1383
aI1384
aI1385
aI1386
aI1387
aI1388
aI1389
aI1390
aI1391
aI1392
aI1393
aI1394
aI1395
aI1396
aI1397
aI1398
aI1399
aI1400
aI1401
aI1402
aI1403
aI1404
aI1405
aI1406
aI1407
aI1408
aI1409
aI1410
aI1411
aI1412
aI1413
aI1414
aI1415
aI1416
aI1417
aI1418
aI1419
aI1420
aI1421
aI1422
aI1423
aI1424
aI1425
aI1426
aI1427
aI1428
aI1429
aI1430
aI1431
aI1432
aI1433
aI1434
aI1435
aI1436
aI1437
aI1438
aI1439
aI1440
aI1441
aI1442
aI1443
aI1444
aI1445
aI1446
aI1447
aI1448
aI1449
aI1450
aI1451
aI1452
aI1453
aI1454
aI1455
aI1456
aI1457
aI1458
aI1459
aI1460
aI1461
aI1464
aI1465
aI1466
aI1467
aI1468
aI1469
aI1470
aI1471
aI1472
aI1473
aI1474
aI1475
aI1476
aI1477
aI1478
aI1479
aI1480
aI1481
aI1482
aI1483
aI1484
aI1485
aI1486
aI1487
aI1488
aI1489
aI1490
aI1491
aI1492
aI1493
aI1494
aI1495
aI1496
aI1497
aI1498
aI1499
aI1500
aI1501
aI1502
aI1503
aI1504
aI1505
aI1506
aI1507
aI1508
aI1509
aI1510
aI1511
aI1512
aI1513
aI1514
aI1515
aI1516
aI1517
aI1518
aI1519
aI1520
aI1521
aI1522
aI1523
aI1524
aI1525
aI1526
aI1527
aI1528
aI1529
aI1530
aI1531
aI1532
aI1533
aI1534
aI1535
aI1536
aI1537
aI1538
aI1539
aI1540
aI1541
aI1542
aI1543
aI1544
aI1545
aI1546
aI1547
aI1548
aI1549
aI1550
aI1551
aI1552
aI1553
aI1554
aI1555
aI1556
aI1557
aI1558
aI1559
aI1560
aI1561
aI1562
aI1563
aI1564
aI1565
aI1566
aI1567
aI1568
aI1569
aI1570
aI1571
aI1572
aI1573
aI1574
aI1575
aI1576
aI1577
aI1578
aI1579
aI1580
aI1581
aI1582
aI1583
aI1584
aI1585
aI1586
aI1587
aI1588
aI1589
aI1590
aI1591
aI1592
aI1593
aI1594
aI1595
aI1596
aI1597
aI1598
aI1599
aI1600
aI1601
aI1602
aI1603
aI1604
aI1605
aI1606
aI1607
aI1608
aI1609
aI1610
aI1611
aI1612
aI1613
aI1614
aI1615
aI1616
aI1617
aI1618
aI1619
aI1620
aI1621
aI1622
aI1623
aI1624
aI1625
aI1626
aI1627
aI1628
aI1629
aI1630
aI1631
aI1632
aI1633
aI1634
aI1635
aI1636
aI1637
aI1638
aI1639
aI1640
aI1641
aI1642
aI1643
aI1644
aI1645
aI1646
aI1647
aI1648
aI1649
aI1650
aI1651
aI1652
aI1653
aI1654
aI1655
aI1656
aI1657
aI1658
aI1659
aI1660
aI1661
aI1662
aI1663
aI1664
aI1665
aI1666
aI1667
aI1668
aI1669
aI1670
aI1671
aI1672
aI1673
a.(lp0
I1576
aI1568
aI1544
aI1536
aI1536
aI1532
aI1532
aI1532
aI1532
aI1532
aI1532
aI1532
aI1532
aI1532
aI1524
aI1516
aI1512
aI1512
aI1508
aI1496
aI1488
aI1484
aI1484
aI1484
aI1484
aI1484
aI1484
aI1484
aI1484
aI1484
aI1484
aI1520
aI1520
aI1520
aI1520
aI1520
aI1528
aI1536
aI1540
aI1548
aI1548
aI1548
aI1548
aI1548
aI1552
aI1552
aI1560
aI1560
aI1560
aI1560
aI1560
aI1560
aI1560
aI1560
aI1560
aI1560
aI1560
aI1560
aI1560
aI1560
aI1560
aI1560
aI1560
aI1560
aI1560
aI1560
aI1560
aI1560
aI1560
aI1560
aI1560
aI1560
aI1560
aI1560
aI1560
aI1560
aI1560
aI1572
aI1576
aI1576
aI1576
aI1600
aI1620
aI1620
aI1624
aI1628
aI1628
aI1628
aI1628
aI1628
aI1628
aI1628
aI1620
aI1604
aI1540
aI1540
aI1540
aI1552
aI1596
aI1620
aI1640
aI1652
aI1664
aI1660
aI1660
aI1664
aI1664
aI1660
aI1652
aI1652
aI1644
aI1632
aI1604
aI1596
aI1596
aI1596
aI1596
aI1604
aI1604
aI1620
aI1648
aI1652
aI1656
aI1656
aI1656
aI1660
aI1672
aI1712
aI1712
aI1712
aI1700
aI1660
aI1604
aI1572
aI1548
aI1516
aI1496
aI1496
aI1496
aI1496
aI1532
aI1604
aI1676
aI1724
aI1752
aI1764
aI1760
aI1740
aI1692
aI1600
aI1520
aI1468
aI1436
aI1420
aI1428
aI1496
aI1552
aI1584
aI1568
aI1484
aI1500
aI1552
aI1576
aI1616
aI1652
aI1668
aI1596
aI1552
aI1560
aI1636
aI1680
aI1656
aI1596
aI1552
aI1560
aI1604
aI1660
aI1684
aI1684
aI1684
aI1684
aI1684
aI1684
aI1680
aI1668
aI1632
aI1584
aI1536
aI1528
aI1552
aI1604
aI1636
aI1656
aI1660
aI1636
aI1632
aI1624
aI1620
aI1616
aI1612
aI1604
aI1588
aI1580
aI1572
aI1560
aI1544
aI1536
aI1532
aI1532
aI1536
aI1540
aI1544
aI1548
aI1556
aI1572
aI1588
aI1612
aI1636
aI1644
aI1648
aI1648
aI1644
aI1640
aI1628
aI1604
aI1568
aI1544
aI1500
aI1468
aI1448
aI1428
aI1416
aI1404
aI1404
aI1408
aI1436
aI1460
aI1496
aI1524
aI1556
aI1580
aI1592
aI1584
aI1560
aI1536
aI1508
aI1480
aI1464
aI1452
aI1444
aI1432
aI1428
aI1428
aI1452
aI1476
aI1512
aI1544
aI1568
aI1576
aI1576
aI1572
aI1560
aI1528
aI1504
aI1484
aI1448
aI1408
aI1380
aI1380
aI1392
aI1444
aI1508
aI1552
aI1592
aI1612
aI1620
aI1628
aI1648
aI1656
aI1668
aI1680
aI1680
aI1680
aI1680
aI1680
aI1656
aI1636
aI1604
aI1568
aI1540
aI1508
aI1484
aI1456
aI1440
aI1420
aI1404
aI1392
aI1380
aI1368
aI1352
aI1328
aI1312
aI1296
aI1288
aI1284
aI1284
aI1284
aI1284
aI1324
aI1380
aI1400
aI1420
aI1448
aI1480
aI1504
aI1520
aI1540
aI1576
aI1576
aI1568
aI1520
aI1476
aI1436
aI1392
aI1368
aI1312
aI1288
aI1260
aI1252
aI1252
aI1252
aI1252
aI1252
aI1252
aI1300
aI1348
aI1368
aI1392
aI1404
aI1404
aI1396
aI1392
aI1368
aI1360
aI1360
aI1360
aI1360
aI1360
aI1368
aI1372
aI1372
aI1376
aI1376
aI1376
aI1376
aI1376
aI1368
aI1368
aI1360
aI1312
aI1312
aI1312
aI1312
aI1312
aI1304
aI1236
aI1228
aI1216
aI1200
a.(lp0
I904
aI900
aI880
aI872
aI872
aI872
aI868
aI868
aI868
aI868
aI868
aI868
aI868
aI868
aI868
aI868
aI876
aI876
aI872
aI844
aI832
aI828
aI828
aI828
aI828
aI828
aI828
aI828
aI828
aI828
aI828
aI820
aI820
aI816
aI816
aI816
aI812
aI808
aI804
aI780
aI764
aI764
aI764
aI764
aI764
aI760
aI744
aI744
aI740
aI732
aI728
aI728
aI728
aI728
aI728
aI728
aI728
aI728
aI728
aI728
aI728
aI728
aI728
aI728
aI728
aI728
aI728
aI728
aI728
aI728
aI728
aI756
aI756
aI756
aI756
aI756
aI756
aI780
aI784
aI784
aI784
aI772
aI768
aI756
aI744
aI736
aI720
aI712
aI712
aI712
aI712
aI712
aI716
aI724
aI712
aI712
aI712
aI724
aI752
aI768
aI772
aI764
aI704
aI692
aI680
aI676
aI664
aI660
aI660
aI660
aI656
aI656
aI648
aI648
aI648
aI648
aI648
aI644
aI644
aI640
aI648
aI652
aI652
aI652
aI652
aI644
aI636
aI632
aI632
aI632
aI628
aI624
aI624
aI624
aI624
aI628
aI628
aI628
aI628
aI628
aI692
aI700
aI708
aI700
aI696
aI692
aI672
aI656
aI620
aI616
aI632
aI644
aI656
aI704
aI736
aI732
aI712
aI672
aI612
aI620
aI636
aI656
aI664
aI672
aI664
aI632
aI636
aI660
aI724
aI744
aI704
aI648
aI648
aI672
aI704
aI736
aI724
aI712
aI708
aI708
aI708
aI708
aI708
aI700
aI672
aI676
aI672
aI688
aI736
aI764
aI768
aI764
aI756
aI732
aI700
aI692
aI684
aI676
aI676
aI676
aI676
aI684
aI688
aI692
aI696
aI704
aI720
aI736
aI756
aI768
aI780
aI788
aI792
aI796
aI796
aI804
aI804
aI804
aI800
aI780
aI748
aI736
aI728
aI712
aI696
aI684
aI676
aI668
aI668
aI676
aI688
aI696
aI712
aI744
aI768
aI792
aI800
aI804
aI788
aI780
aI768
aI720
aI688
aI668
aI660
aI660
aI660
aI668
aI672
aI680
aI708
aI720
aI744
aI772
aI780
aI780
aI784
aI768
aI744
aI720
aI712
aI692
aI680
aI680
aI680
aI676
aI688
aI704
aI704
aI704
aI712
aI712
aI716
aI720
aI720
aI720
aI720
aI716
aI712
aI712
aI712
aI712
aI712
aI712
aI712
aI704
aI700
aI696
aI688
aI680
aI684
aI688
aI692
aI692
aI692
aI696
aI696
aI696
aI696
aI696
aI696
aI696
aI704
aI704
aI708
aI708
aI708
aI708
aI720
aI732
aI732
aI732
aI732
aI736
aI736
aI736
aI736
aI736
aI736
aI740
aI744
aI744
aI744
aI744
aI744
aI764
aI764
aI764
aI760
aI760
aI760
aI760
aI760
aI760
aI772
aI780
aI780
aI780
aI788
aI812
aI848
aI868
aI912
aI960
aI960
aI984
aI992
aI1020
aI1084
aI1128
aI1212
aI1276
aI1276
aI1276
aI1276
aI1276
aI1288
aI1288
aI1288
aI1288
aI1280
aI1260
aI1260
aI1260
aI1260
aI1284
aI1296
aI1300
aI1304
a.(lp0
I600
aI600
aI600
aI600
aI600
aI600
aI600
aI600
aI600
aI600
aI600
aI600
aI600
aI600
aI600
aI600
aI600
aI600
aI600
aI600
aI600
aI600
aI600
aI600
aI600
aI600
aI600
aI600
aI600
aI600
aI600
aI600
aI600
aI600
aI600
aI600
aI600
aI600
aI600
aI600
aI600
aI600
aI600
aI600
aI600
aI600
aI600
aI600
aI600
aI600
aI600
aI600
aI600
aI600
aI600
aI600
aI600
aI600
aI600
aI600
aI600
aI600
aI600
aI600
aI600
aI800
aI800
aI800
aI800
aI800
aI800
aI800
aI800
aI800
aI800
aI800
aI800
aI800
aI800
aI800
aI800
aI800
aI800
aI800
aI800
aI800
aI800
aI800
aI800
aI800
aI800
aI800
aI800
aI800
aI800
aI800
aI800
aI800
aI800
aI800
aI800
aI800
aI800
aI800
aI800
aI800
aI800
aI800
aI800
aI800
aI800
aI800
aI800
aI800
aI800
aI800
aI800
aI800
aI800
aI800
aI800
aI800
aI800
aI800
aI800
aI800
aI800
aI800
aI800
aI800
aI800
aI800
aI800
aI800
aI800
aI800
aI800
aI800
aI800
aI800
aI800
aI800
aI800
aI800
aI800
aI800
aI800
aI800
aI800
aI800
aI800
aI800
aI800
aI800
aI800
aI800
aI800
aI800
aI800
aI800
aI800
aI800
aI800
aI800
aI800
aI800
aI800
aI800
aI800
aI800
aI800
aI800
aI800
aI800
aI800
aI800
aI800
aI800
aI800
aI800
aI800
aI800
aI800
aI800
aI800
aI800
aI800
aI800
aI800
aI800
aI800
aI800
aI800
aI800
aI800
aI800
aI800
aI800
aI800
aI800
aI800
aI800
aI800
aI800
aI800
aI800
aI800
aI800
aI800
aI800
aI800
aI800
aI800
aI800
aI800
aI800
aI800
aI800
aI800
aI800
aI800
aI800
aI800
aI800
aI800
aI800
aI800
aI800
aI800
aI800
aI800
aI800
aI800
aI800
aI800
aI800
aI800
aI800
aI800
aI800
aI800
aI800
aI800
aI800
aI800
aI800
aI800
aI800
aI800
aI800
aI800
aI800
aI800
aI800
aI800
aI800
aI800
aI800
aI800
aI800
aI800
aI800
aI800
aI800
aI800
aI800
aI800
aI800
aI800
aI800
aI800
aI800
aI800
aI800
aI800
aI800
aI800
aI800
aI800
aI800
aI800
aI800
aI800
aI800
aI800
aI800
aI800
aI800
aI800
aI800
aI800
aI800
aI800
aI800
aI800
aI800
aI800
aI800
aI800
aI800
aI800
aI800
aI800
aI800
aI800
aI800
aI800
aI800
aI800
aI800
aI800
aI800
aI800
aI800
aI800
aI800
aI800
aI800
aI800
aI800
aI800
aI800
aI800
aI800
aI800
aI800
aI800
aI800
aI800
aI800
aI800
aI800
aI800
aI800
aI800
aI800
aI800
aI800
aI800
aI800
aI800
aI800
aI800
aI800
aI800
aI800
aI800
aI800
aI800
aI800
aI800
aI800
aI800
aI800
aI800
aI800
aI800
aI800
aI800
aI800
aI800
aI800
aI800
aI800
aI800
aI800
aI800
aI800
aI800
a.