(lp0
I6017
aI6018
aI6019
aI6020
aI6021
aI6022
aI6023
aI6024
aI6025
aI6026
aI6027
aI6028
aI6029
aI6030
aI6031
aI6032
aI6033
aI6034
aI6035
aI6036
aI6037
aI6038
aI6039
aI6040
aI6041
aI6042
aI6043
aI6044
aI6057
aI6058
aI6059
aI6060
aI6061
aI6062
aI6063
aI6064
aI6065
aI6066
aI6067
aI6068
aI6069
aI6070
aI6071
aI6072
aI6073
aI6074
aI6075
aI6076
aI6077
aI6078
aI6079
aI6080
aI6081
aI6082
aI6083
aI6084
aI6085
aI6086
aI6087
aI6088
aI6089
aI6090
aI6091
aI6092
aI6093
aI6094
aI6095
aI6096
aI6097
aI6098
aI6099
aI6100
aI6101
aI6102
aI6103
aI6104
aI6105
aI6106
aI6107
aI6108
aI6109
aI6110
aI6111
aI6112
aI6113
aI6114
aI6115
aI6116
aI6117
aI6118
aI6119
aI6120
aI6121
aI6122
aI6123
aI6124
aI6125
aI6126
aI6127
aI6128
aI6129
aI6130
aI6159
aI6160
aI6161
aI6162
aI6163
aI6164
aI6177
aI6178
aI6179
aI6180
aI6181
aI6182
aI6183
aI6184
aI6185
aI6186
aI6187
aI6188
aI6189
aI6190
aI6191
aI6192
aI6193
aI6194
aI6195
aI6196
aI6197
aI6198
aI6199
aI6200
aI6201
aI6202
aI6203
aI6204
aI6205
aI6206
aI6207
aI6208
aI6209
aI6210
aI6211
aI6212
aI6213
aI6214
aI6215
aI6216
aI6217
aI6218
aI6219
aI6220
aI6221
aI6222
aI6223
aI6224
aI6225
aI6226
aI6227
aI6228
aI6229
aI6230
aI6235
aI6236
aI6237
aI6238
aI6239
aI6240
aI6241
aI6242
aI6243
aI6244
aI6245
aI6246
aI6247
aI6248
aI6249
aI6250
aI6251
aI6252
aI6253
aI6254
aI6255
aI6256
aI6257
aI6258
aI6259
aI6260
aI6261
aI6262
aI6263
aI6264
aI6265
aI6266
aI6267
aI6268
aI6269
aI6270
aI6271
aI6272
aI6273
aI6274
aI6275
aI6276
aI6277
aI6278
aI6279
aI6280
aI6281
aI6282
aI6283
aI6284
aI6285
aI6286
aI6287
aI6288
aI6289
aI6290
aI6291
aI6292
aI6293
aI6294
aI6295
aI6296
aI6297
aI6298
aI6299
aI6300
aI6301
aI6302
aI6303
aI6304
aI6305
aI6306
aI6307
aI6308
aI6309
aI6310
aI6311
aI6312
aI6313
aI6314
aI6315
aI6316
aI6317
aI6318
aI6319
aI6320
aI6321
aI6322
aI6323
aI6324
aI6325
aI6326
aI6327
aI6328
aI6329
aI6330
aI6331
aI6332
aI6333
aI6334
aI6335
aI6336
aI6337
aI6338
aI6339
aI6340
aI6341
aI6342
aI6343
aI6344
aI6345
aI6346
aI6347
aI6348
aI6349
aI6350
aI6351
aI6352
aI6353
aI6354
aI6355
aI6356
aI6357
aI6358
aI6359
aI6360
aI6361
aI6362
aI6363
aI6364
aI6365
aI6366
aI6367
aI6368
aI6369
aI6370
aI6371
aI6372
aI6373
aI6374
aI6375
aI6376
aI6377
aI6378
aI6379
aI6380
aI6381
aI6382
aI6383
aI6384
aI6385
aI6386
aI6387
aI6388
aI6389
aI6390
aI6395
aI6396
aI6397
aI6398
aI6399
aI6400
aI6401
aI6402
aI6403
aI6404
aI6405
aI6406
aI6407
aI6408
aI6409
aI6410
aI6411
aI6412
aI6413
aI6414
aI6415
aI6416
aI6417
aI6418
aI6419
aI6420
aI6421
aI6422
aI6423
aI6424
aI6425
aI6426
aI6427
aI6428
aI6429
aI6430
aI6431
aI6432
aI6433
aI6434
aI6435
aI6436
aI6437
aI6438
aI6439
aI6440
aI6441
aI6442
aI6443
aI6444
aI6445
aI6446
aI6447
aI6448
aI6449
aI6450
aI6451
aI6452
aI6453
aI6454
aI6455
aI6456
aI6457
aI6458
aI6459
aI6460
aI6461
aI6462
aI6463
aI6464
aI6465
aI6466
aI6467
aI6468
aI6469
aI6470
aI6471
aI6472
aI6473
aI6474
aI6475
aI6476
aI6477
aI6478
aI6479
aI6480
aI6481
aI6482
aI6483
aI6484
aI6485
aI6486
aI6487
aI6488
aI6489
aI6490
aI6491
aI6492
aI6493
aI6494
aI6495
aI6496
aI6497
aI6498
aI6499
aI6500
aI6501
aI6502
aI6503
aI6504
aI6505
aI6506
aI6507
aI6508
aI6509
aI6510
aI6511
aI6512
aI6513
aI6514
aI6515
aI6516
aI6517
aI6518
aI6519
aI6520
aI6521
aI6522
aI6523
aI6524
aI6525
aI6526
aI6527
aI6528
aI6529
aI6530
aI6531
aI6532
aI6533
aI6534
aI6535
aI6536
aI6537
aI6538
aI6539
aI6540
aI6541
aI6542
aI6543
aI6544
aI6545
aI6546
aI6547
aI6548
aI6549
aI6550
aI6551
aI6552
aI6553
aI6554
aI6555
aI6556
aI6557
aI6558
aI6559
aI6560
aI6561
aI6562
aI6563
aI6564
aI6565
aI6566
aI6567
aI6568
aI6569
aI6570
aI6571
aI6572
aI6573
aI6574
aI6575
aI6576
aI6577
aI6578
aI6579
aI6580
aI6581
aI6582
aI6583
aI6584
aI6585
aI6586
aI6587
aI6588
aI6589
aI6590
aI6591
aI6592
aI6593
aI6594
aI6595
aI6596
aI6597
aI6598
aI6599
aI6600
aI6601
aI6602
aI6603
aI6604
aI6605
aI6606
aI6607
aI6608
aI6609
aI6610
aI6611
aI6612
aI6613
aI6614
aI6615
aI6616
aI6617
aI6618
aI6619
aI6620
aI6621
aI6622
aI6623
aI6624
aI6625
aI6626
aI6627
aI6628
aI6629
aI6630
aI6631
aI6632
aI6633
aI6634
aI6635
aI6636
aI6637
aI6638
aI6639
aI6640
aI6641
aI6642
aI6643
aI6644
aI6645
aI6646
aI6647
aI6648
aI6649
aI6650
aI6651
aI6652
aI6653
aI6654
aI6655
aI6656
aI6657
aI6658
aI6659
aI6660
aI6661
aI6662
aI6663
aI6664
aI6665
aI6666
aI6667
aI6668
aI6669
aI6670
aI6671
aI6672
aI6673
aI6681
aI6682
aI6683
aI6684
aI6685
aI6686
aI6687
aI6688
aI6689
aI6690
aI6691
aI6692
aI6693
aI6694
aI6695
aI6696
aI6697
aI6698
aI6699
aI6700
aI6701
aI6702
aI6703
aI6704
aI6705
aI6706
aI6707
aI6708
aI6709
aI6710
aI6711
aI6712
aI6713
aI6714
aI6715
aI6716
aI6717
aI6718
aI6719
aI6720
aI6721
aI6722
aI6723
aI6724
aI6725
aI6726
aI6727
aI6728
aI6729
aI6730
aI6731
aI6732
aI6733
aI6734
aI6735
aI6736
aI6741
aI6742
aI6743
aI6744
aI6745
aI6746
aI6747
aI6748
aI6749
aI6750
aI6751
aI6752
aI6753
aI6754
aI6755
aI6756
aI6757
aI6758
aI6759
aI6760
aI6761
aI6762
aI6763
aI6764
aI6765
aI6766
aI6767
aI6768
aI6769
aI6770
aI6771
aI6772
aI6773
aI6774
aI6775
aI6776
aI6777
aI6778
aI6779
aI6780
aI6781
aI6782
aI6783
aI6784
aI6785
aI6786
aI6787
aI6788
aI6789
aI6790
aI6791
aI6792
aI6793
aI6794
aI6795
aI6796
aI6797
aI6798
aI6799
aI6800
aI6801
aI6802
aI6803
aI6804
aI6805
aI6806
aI6807
aI6808
aI6809
aI6810
aI6811
aI6812
aI6813
aI6814
aI6815
aI6816
aI6817
aI6818
aI6819
aI6820
aI6821
aI6822
aI6823
aI6824
aI6825
aI6826
aI6827
aI6828
aI6829
aI6830
aI6831
aI6832
aI6833
aI6834
aI6835
aI6836
aI6837
aI6838
aI6839
aI6840
aI6841
aI6842
aI6843
aI6844
aI6845
aI6846
aI6847
aI6848
aI6849
aI6850
aI6851
aI6852
aI6853
aI6854
aI6855
aI6856
aI6857
aI6858
aI6859
aI6860
aI6861
aI6862
aI6863
aI6864
aI6865
aI6866
aI6867
aI6868
aI6869
aI6870
aI6871
aI6872
aI6873
aI6874
aI6875
aI6876
aI6877
aI6878
aI6879
aI6880
aI6881
aI6882
aI6883
aI6884
aI6885
aI6886
aI6887
aI6888
aI6889
aI6890
aI6891
aI6892
aI6893
aI6894
aI6895
aI6896
aI6897
aI6898
aI6899
aI6900
aI6901
aI6902
aI6903
aI6904
aI6905
aI6906
aI6907
aI6908
aI6909
aI6910
aI6911
aI6912
aI6913
aI6914
aI6915
aI6916
aI6917
aI6918
aI6919
aI6920
aI6921
aI6922
aI6923
aI6924
aI6925
aI6926
aI6927
aI6928
aI6929
aI6930
aI6931
aI6932
aI6933
aI6934
aI6935
aI6936
aI6937
aI6938
aI6939
aI6940
aI6941
aI6942
aI6943
aI6944
aI6945
aI6946
aI6947
aI6948
aI6949
aI6950
aI6951
aI6952
aI6953
aI6954
aI6955
aI6956
aI6957
aI6958
aI6959
aI6960
aI6961
aI6962
aI6963
aI6964
aI6965
aI6966
aI6967
aI6968
aI6969
aI6970
aI6971
aI6972
aI6973
aI6974
aI6975
aI6976
aI6977
aI6978
aI6979
aI6980
aI6981
aI6982
aI6983
aI6984
aI6985
aI6986
aI6987
aI6988
aI6989
aI6990
aI6991
aI6992
aI6993
aI6994
aI6995
aI6996
aI6997
aI6998
aI6999
aI7000
aI7001
aI7002
aI7003
aI7004
aI7005
aI7006
aI7007
aI7008
aI7009
aI7010
aI7011
aI7012
aI7013
aI7014
aI7015
aI7016
aI7017
aI7018
aI7019
aI7020
aI7021
aI7022
aI7023
aI7024
aI7025
aI7026
aI7027
aI7028
aI7029
aI7030
aI7031
aI7032
aI7033
aI7034
aI7035
aI7036
aI7037
aI7038
aI7039
aI7040
aI7041
aI7042
aI7043
aI7044
aI7045
aI7046
aI7047
aI7048
aI7049
aI7050
aI7051
aI7052
aI7053
aI7054
aI7055
aI7056
aI7057
aI7058
aI7059
aI7060
aI7061
aI7062
aI7063
aI7064
aI7065
aI7066
aI7067
aI7068
aI7069
aI7070
aI7071
aI7072
aI7073
aI7074
aI7075
aI7076
aI7077
aI7078
aI7079
aI7080
aI7081
aI7082
aI7083
aI7084
aI7085
aI7086
aI7087
aI7088
aI7089
aI7090
aI7091
aI7092
a.(lp0
I1720
aI1720
aI1720
aI1720
aI1720
aI1720
aI1720
aI1720
aI1720
aI1720
aI1720
aI1748
aI1752
aI1752
aI1752
aI1752
aI1752
aI1752
aI1752
aI1752
aI1752
aI1752
aI1752
aI1752
aI1752
aI1752
aI1752
aI1776
aI1808
aI1808
aI1808
aI1808
aI1808
aI1808
aI1808
aI1808
aI1808
aI1808
aI1808
aI1808
aI1808
aI1808
aI1808
aI1808
aI1808
aI1808
aI1808
aI1808
aI1808
aI1808
aI1808
aI1808
aI1808
aI1808
aI1808
aI1812
aI1812
aI1812
aI1824
aI1824
aI1824
aI1836
aI1856
aI1868
aI1884
aI1884
aI1884
aI1884
aI1884
aI1884
aI1884
aI1884
aI1884
aI1884
aI1884
aI1884
aI1884
aI1884
aI1884
aI1884
aI1884
aI1884
aI1884
aI1884
aI1884
aI1884
aI1884
aI1884
aI1884
aI1884
aI1884
aI1884
aI1884
aI1892
aI1908
aI1912
aI1912
aI1912
aI1912
aI1912
aI1912
aI1912
aI1904
aI1904
aI1904
aI1904
aI1904
aI1904
aI1900
aI1900
aI1900
aI1900
aI1900
aI1900
aI1900
aI1900
aI1900
aI1900
aI1900
aI1900
aI1900
aI1900
aI1900
aI1900
aI1900
aI1900
aI1900
aI1900
aI1900
aI1900
aI1900
aI1900
aI1900
aI1900
aI1900
aI1900
aI1900
aI1900
aI1900
aI1900
aI1900
aI1900
aI1900
aI1900
aI1900
aI1900
aI1900
aI1900
aI1924
aI1976
aI2020
aI2056
aI2092
aI2132
aI2132
aI2132
aI2132
aI2132
aI2104
aI1976
aI1860
aI1788
aI1892
aI1936
aI1988
aI1992
aI2000
aI1952
aI1904
aI1900
aI1900
aI1900
aI1900
aI1900
aI1900
aI1900
aI1900
aI1900
aI1900
aI1900
aI1900
aI1900
aI1900
aI1900
aI1900
aI1900
aI1900
aI1900
aI1900
aI1900
aI1936
aI1948
aI1960
aI1964
aI1968
aI1968
aI1968
aI1968
aI1968
aI1968
aI1968
aI1968
aI2000
aI2060
aI2076
aI2076
aI2076
aI2076
aI2076
aI2076
aI2076
aI2068
aI2064
aI2064
aI2064
aI2064
aI2064
aI2064
aI2064
aI2064
aI2064
aI2064
aI2064
aI2072
aI2076
aI2076
aI2076
aI2076
aI2076
aI2076
aI2076
aI2076
aI2076
aI2080
aI2088
aI2100
aI2108
aI2132
aI2148
aI2148
aI2148
aI2148
aI2148
aI2148
aI2148
aI2148
aI2148
aI2148
aI2148
aI2148
aI2148
aI2148
aI2148
aI2148
aI2144
aI2144
aI2140
aI2136
aI2136
aI2136
aI2136
aI2132
aI2132
aI2132
aI2132
aI2132
aI2132
aI2128
aI2108
aI2088
aI2060
aI2036
aI2036
aI2036
aI2036
aI2036
aI2036
aI2036
aI2036
aI2036
aI2036
aI2036
aI2036
aI2036
aI2036
aI2036
aI2036
aI2020
aI2020
aI2020
aI1988
aI1976
aI1976
aI1972
aI1952
aI1912
aI1892
aI1856
aI1808
aI1792
aI1768
aI1752
aI1748
aI1816
aI1904
aI1992
aI2004
aI2040
aI2068
aI2068
aI2068
aI2076
aI2100
aI2140
aI2172
aI2204
aI2204
aI2152
aI2068
aI2040
aI2024
aI1992
aI1936
aI1936
aI1936
aI1936
aI1936
aI1936
aI1936
aI1936
aI1936
aI1936
aI1936
aI1936
aI1936
aI1936
aI1936
aI1936
aI1936
aI1936
aI1932
aI1932
aI1932
aI1932
aI1928
aI1920
aI1912
aI1908
aI1904
aI1904
aI1904
aI1904
aI1904
aI1904
aI1904
aI1908
aI1916
aI1920
aI1924
aI1924
aI1924
aI1924
aI1924
aI1924
aI1924
aI1924
aI1916
aI1908
aI1904
aI1904
aI1904
aI1904
aI1904
aI1904
aI1904
aI1904
aI1900
aI1876
aI1852
aI1848
aI1844
aI1836
aI1836
aI1828
aI1804
aI1804
aI1804
aI1804
aI1804
aI1804
aI1804
aI1812
aI1820
aI1820
aI1820
aI1820
aI1820
aI1820
aI1820
aI1820
aI1820
aI1804
aI1792
aI1792
aI1792
aI1792
aI1792
aI1792
aI1792
aI1792
aI1792
aI1792
aI1792
aI1792
aI1792
aI1792
aI1792
aI1792
aI1792
aI1720
aI1712
aI1684
aI1684
aI1684
aI1684
aI1684
aI1684
aI1684
aI1684
aI1700
aI1704
aI1704
aI1712
aI1712
aI1712
aI1704
aI1704
aI1704
aI1704
aI1720
aI1728
aI1728
aI1736
aI1744
aI1760
aI1760
aI1760
aI1760
aI1760
aI1760
aI1760
aI1760
aI1760
aI1760
aI1760
aI1780
aI1804
aI1844
aI1876
aI1876
aI1884
aI1884
aI1872
aI1852
aI1824
aI1788
aI1748
aI1712
aI1704
aI1692
aI1688
aI1676
aI1676
aI1676
aI1736
aI1768
aI1812
aI1840
aI1840
aI1836
aI1832
aI1832
aI1832
aI1808
aI1760
aI1720
aI1656
aI1608
aI1604
aI1600
aI1600
aI1660
aI1744
aI1780
aI1892
aI1948
aI1972
aI1976
aI1976
aI1984
aI1988
aI1992
aI2008
aI2008
aI1976
aI1868
aI1776
aI1744
aI1684
aI1664
aI1636
aI1628
aI1628
aI1628
aI1644
aI1652
aI1660
aI1660
aI1624
aI1620
aI1620
aI1620
aI1704
aI1812
aI1824
aI1808
aI1808
aI1824
aI1856
aI1860
aI1904
aI1904
aI1956
aI2000
aI1988
aI1988
aI1988
aI2000
aI2000
aI2052
aI2084
aI2100
aI2116
aI2080
aI1968
aI1840
aI1836
aI1820
aI1720
aI1628
aI1556
aI1552
aI1520
aI1496
aI1492
aI1508
aI1572
aI1644
aI1668
aI1704
aI1720
aI1688
aI1660
aI1628
aI1628
aI1664
aI1700
aI1772
aI1900
aI1900
aI1888
aI1884
aI1884
aI1876
aI1876
aI1876
aI1872
aI1872
aI1872
aI1872
aI1880
aI1888
aI1896
aI1900
aI1900
aI1908
aI1928
aI1936
aI1952
aI1964
aI1992
aI1996
aI1996
aI1996
aI1996
aI1984
aI1968
aI1964
aI1964
aI1968
aI1968
aI1968
aI1968
aI1968
aI1968
aI1968
aI1968
aI1968
aI1968
aI1968
aI1968
aI1968
aI1968
aI1968
aI1968
aI1968
aI1968
aI1968
aI1968
aI1968
aI1968
aI1968
aI1968
aI1968
aI1968
aI1968
aI1968
aI1968
aI1968
aI1968
aI1968
aI1968
aI1968
aI1968
aI1968
aI1968
aI1968
aI1968
aI1968
aI1960
aI1948
aI1948
aI1948
aI1944
aI1936
aI1928
aI1928
aI1924
aI1924
aI1924
aI1920
aI1912
aI1908
aI1904
aI1904
aI1904
aI1904
aI1904
aI1904
aI1904
aI1904
aI1904
aI1904
aI1904
aI1904
aI1904
aI1904
aI1904
aI1904
aI1904
aI1904
aI1904
aI1904
aI1904
aI1904
aI1904
aI1904
aI1904
aI1904
aI1904
aI1904
aI1904
aI1904
aI1904
aI1872
aI1836
aI1804
aI1784
aI1764
aI1752
aI1728
aI1700
aI1676
aI1668
aI1656
aI1652
aI1652
aI1652
aI1652
aI1652
aI1652
aI1652
aI1652
aI1652
aI1652
aI1652
aI1652
aI1652
aI1652
aI1652
aI1652
aI1652
aI1652
aI1652
aI1652
aI1652
aI1652
aI1652
aI1652
aI1652
aI1652
aI1652
aI1652
aI1652
aI1652
aI1652
aI1652
aI1652
aI1652
aI1652
aI1660
aI1684
aI1700
aI1720
aI1752
aI1776
aI1808
aI1840
aI1844
aI1876
aI1888
aI1904
aI1908
aI1908
aI1908
aI1908
aI1908
aI1908
aI1908
aI1908
aI1908
aI1908
aI1908
aI1908
aI1908
aI1908
aI1908
aI1908
aI1908
aI1912
aI1912
aI1912
aI1912
aI1912
aI1912
aI1912
aI1912
aI1912
aI1912
aI1912
aI1912
aI1912
aI1912
aI1912
aI1912
aI1912
aI1912
aI1912
aI1912
aI1912
aI1912
aI1916
aI1924
aI1920
aI1904
aI1904
aI1904
aI1904
aI1904
aI1904
aI1904
aI1904
aI1904
aI1904
aI1904
aI1856
aI1784
aI1716
aI1724
aI1736
aI1792
aI1844
aI1884
aI1920
aI1936
aI1952
aI1952
aI1952
aI1952
aI1944
aI1908
aI1872
aI1808
aI1796
aI1776
aI1752
aI1720
aI1692
aI1668
aI1692
aI1700
aI1700
aI1684
aI1676
aI1676
aI1672
aI1640
aI1624
aI1620
aI1620
aI1620
aI1624
aI1640
aI1652
aI1628
aI1632
aI1640
aI1660
aI1684
aI1708
aI1736
aI1768
aI1792
aI1820
aI1856
aI1876
aI1888
aI1908
aI1916
aI1916
aI1900
aI1892
aI1888
aI1884
aI1884
aI1880
aI1876
aI1872
aI1860
aI1836
aI1820
aI1792
aI1768
aI1744
aI1716
aI1676
aI1644
aI1632
aI1604
aI1580
aI1568
aI1528
aI1528
aI1528
aI1484
aI1488
aI1500
aI1512
aI1544
aI1552
aI1556
aI1584
aI1644
aI1684
aI1736
aI1784
aI1836
aI1852
aI1848
aI1836
aI1820
aI1784
aI1732
aI1696
aI1668
aI1656
aI1664
aI1692
aI1728
aI1760
aI1792
aI1832
aI1852
aI1860
aI1860
aI1860
aI1860
aI1840
aI1816
aI1776
aI1736
aI1700
aI1672
aI1632
aI1612
aI1604
aI1652
aI1656
aI1700
aI1752
aI1800
aI1856
aI1888
aI1912
aI1908
aI1876
aI1832
aI1768
aI1720
aI1660
aI1628
aI1612
aI1608
aI1604
aI1624
aI1656
aI1684
aI1736
aI1792
aI1832
aI1852
aI1864
aI1848
aI1828
aI1796
aI1760
aI1728
aI1684
aI1652
aI1620
aI1604
aI1620
aI1668
aI1740
aI1792
aI1828
aI1852
aI1832
aI1792
aI1752
aI1696
aI1672
aI1652
aI1668
aI1720
aI1752
aI1760
aI1736
aI1688
aI1640
aI1628
aI1652
aI1692
aI1732
aI1752
aI1732
aI1684
aI1652
aI1656
aI1720
aI1756
aI1748
aI1692
aI1656
aI1660
aI1724
aI1744
aI1712
aI1660
aI1636
aI1652
aI1712
aI1724
aI1700
aI1696
aI1696
aI1696
aI1696
aI1696
aI1696
aI1696
aI1696
aI1696
aI1696
aI1696
a.(lp0
I976
aI976
aI976
aI976
aI976
aI976
aI976
aI976
aI976
aI976
aI976
aI964
aI964
aI964
aI964
aI964
aI964
aI964
aI964
aI964
aI964
aI964
aI964
aI964
aI964
aI964
aI940
aI904
aI908
aI908
aI908
aI908
aI908
aI908
aI908
aI908
aI908
aI908
aI908
aI908
aI908
aI908
aI908
aI908
aI908
aI908
aI908
aI908
aI908
aI908
aI908
aI908
aI908
aI908
aI928
aI956
aI972
aI980
aI1008
aI1020
aI1028
aI1068
aI1104
aI1124
aI1144
aI1144
aI1144
aI1144
aI1144
aI1144
aI1144
aI1144
aI1144
aI1144
aI1144
aI1144
aI1144
aI1144
aI1144
aI1144
aI1144
aI1144
aI1144
aI1144
aI1144
aI1144
aI1144
aI1144
aI1144
aI1144
aI1144
aI1144
aI1144
aI1172
aI1228
aI1236
aI1236
aI1236
aI1236
aI1236
aI1236
aI1236
aI1248
aI1240
aI1236
aI1236
aI1236
aI1244
aI1252
aI1248
aI1248
aI1248
aI1248
aI1248
aI1248
aI1248
aI1248
aI1248
aI1248
aI1248
aI1248
aI1248
aI1248
aI1248
aI1248
aI1248
aI1248
aI1248
aI1248
aI1248
aI1248
aI1248
aI1248
aI1248
aI1248
aI1248
aI1248
aI1248
aI1248
aI1248
aI1248
aI1248
aI1248
aI1248
aI1248
aI1248
aI1248
aI1248
aI1244
aI1236
aI1220
aI1216
aI1220
aI1240
aI1240
aI1240
aI1240
aI1240
aI1244
aI1236
aI1236
aI1252
aI1252
aI1256
aI1252
aI1252
aI1248
aI1248
aI1252
aI1252
aI1252
aI1252
aI1252
aI1252
aI1252
aI1252
aI1252
aI1252
aI1252
aI1252
aI1252
aI1252
aI1252
aI1252
aI1252
aI1252
aI1252
aI1252
aI1252
aI1252
aI1252
aI1252
aI1252
aI1252
aI1252
aI1252
aI1252
aI1252
aI1252
aI1252
aI1252
aI1252
aI1236
aI1232
aI1232
aI1228
aI1228
aI1228
aI1228
aI1228
aI1228
aI1208
aI1192
aI1192
aI1176
aI1168
aI1164
aI1160
aI1152
aI1152
aI1136
aI1120
aI1112
aI1100
aI1096
aI1096
aI1096
aI1096
aI1092
aI1092
aI1092
aI1092
aI1092
aI1088
aI1080
aI1076
aI1072
aI1068
aI1068
aI1068
aI1068
aI1068
aI1068
aI1068
aI1068
aI1068
aI1068
aI1068
aI1068
aI1068
aI1068
aI1068
aI1068
aI1068
aI1052
aI1052
aI1044
aI1028
aI1016
aI1012
aI1012
aI1012
aI1012
aI1012
aI1012
aI1012
aI1012
aI1012
aI988
aI972
aI960
aI960
aI960
aI960
aI960
aI960
aI960
aI960
aI960
aI960
aI960
aI960
aI952
aI952
aI948
aI940
aI936
aI920
aI920
aI920
aI872
aI840
aI840
aI840
aI840
aI828
aI816
aI784
aI796
aI804
aI828
aI848
aI928
aI960
aI980
aI1004
aI960
aI932
aI888
aI840
aI820
aI804
aI776
aI768
aI772
aI764
aI764
aI716
aI752
aI828
aI848
aI852
aI856
aI856
aI856
aI856
aI856
aI856
aI856
aI856
aI856
aI856
aI856
aI860
aI860
aI860
aI860
aI860
aI860
aI860
aI876
aI900
aI904
aI912
aI928
aI952
aI972
aI988
aI1004
aI1012
aI1012
aI1012
aI1012
aI1024
aI1028
aI1036
aI1036
aI1044
aI1052
aI1068
aI1068
aI1068
aI1068
aI1068
aI1068
aI1068
aI1068
aI1068
aI1068
aI1068
aI1068
aI1068
aI1068
aI1068
aI1068
aI1068
aI1068
aI1068
aI1068
aI1068
aI1060
aI1056
aI1056
aI1056
aI1056
aI1056
aI1056
aI1056
aI1056
aI1056
aI1056
aI1088
aI1096
aI1104
aI1104
aI1104
aI1104
aI1104
aI1104
aI1104
aI1104
aI1116
aI1132
aI1132
aI1132
aI1132
aI1132
aI1132
aI1132
aI1132
aI1132
aI1132
aI1132
aI1132
aI1132
aI1132
aI1132
aI1132
aI1132
aI1124
aI1116
aI1116
aI1116
aI1116
aI1116
aI1116
aI1116
aI1116
aI1116
aI1112
aI1108
aI1108
aI1096
aI1072
aI1044
aI1036
aI1036
aI1036
aI1036
aI1032
aI1028
aI1028
aI1024
aI1020
aI1016
aI1016
aI1016
aI1016
aI1016
aI1016
aI1016
aI1016
aI1016
aI1016
aI1016
aI1020
aI1020
aI1024
aI1044
aI1056
aI1072
aI1084
aI1092
aI1092
aI1080
aI1060
aI1060
aI1056
aI1056
aI1052
aI1052
aI1056
aI1056
aI1056
aI1016
aI996
aI968
aI924
aI904
aI864
aI852
aI852
aI852
aI836
aI828
aI828
aI828
aI828
aI828
aI828
aI828
aI832
aI824
aI824
aI852
aI852
aI844
aI844
aI844
aI816
aI804
aI800
aI780
aI772
aI756
aI744
aI756
aI772
aI788
aI820
aI880
aI916
aI988
aI1020
aI1044
aI1096
aI1096
aI1104
aI1176
aI1236
aI1236
aI1152
aI1088
aI1028
aI964
aI928
aI924
aI1036
aI1128
aI1208
aI1308
aI1308
aI1244
aI1124
aI1020
aI952
aI944
aI920
aI916
aI1020
aI1120
aI1220
aI1292
aI1312
aI1276
aI1252
aI1252
aI1176
aI1144
aI1144
aI1196
aI1236
aI1312
aI1348
aI1380
aI1404
aI1392
aI1352
aI1272
aI1168
aI1096
aI1068
aI1048
aI1176
aI1288
aI1384
aI1428
aI1392
aI1256
aI1176
aI1120
aI1112
aI1060
aI1016
aI1016
aI1016
aI1016
aI1016
aI1028
aI1088
aI1136
aI1180
aI1216
aI1240
aI1268
aI1312
aI1344
aI1352
aI1364
aI1372
aI1416
aI1432
aI1432
aI1432
aI1444
aI1460
aI1484
aI1424
aI1412
aI1400
aI1396
aI1396
aI1396
aI1396
aI1396
aI1396
aI1396
aI1396
aI1396
aI1396
aI1396
aI1396
aI1396
aI1396
aI1396
aI1396
aI1396
aI1396
aI1396
aI1396
aI1396
aI1396
aI1396
aI1396
aI1396
aI1396
aI1396
aI1396
aI1396
aI1396
aI1396
aI1396
aI1396
aI1396
aI1396
aI1396
aI1396
aI1396
aI1396
aI1396
aI1428
aI1432
aI1436
aI1440
aI1452
aI1460
aI1468
aI1468
aI1472
aI1472
aI1476
aI1476
aI1480
aI1484
aI1464
aI1456
aI1456
aI1456
aI1456
aI1456
aI1456
aI1456
aI1456
aI1456
aI1456
aI1456
aI1456
aI1456
aI1456
aI1456
aI1456
aI1456
aI1456
aI1456
aI1456
aI1456
aI1456
aI1456
aI1456
aI1456
aI1456
aI1456
aI1456
aI1456
aI1452
aI1452
aI1464
aI1468
aI1472
aI1472
aI1472
aI1472
aI1472
aI1472
aI1472
aI1468
aI1468
aI1468
aI1468
aI1468
aI1468
aI1468
aI1468
aI1468
aI1468
aI1468
aI1468
aI1468
aI1468
aI1468
aI1468
aI1468
aI1468
aI1468
aI1468
aI1468
aI1468
aI1468
aI1468
aI1468
aI1468
aI1468
aI1468
aI1468
aI1468
aI1468
aI1468
aI1468
aI1468
aI1468
aI1460
aI1436
aI1412
aI1376
aI1352
aI1320
aI1296
aI1276
aI1272
aI1244
aI1228
aI1216
aI1212
aI1212
aI1212
aI1212
aI1212
aI1212
aI1212
aI1212
aI1212
aI1212
aI1212
aI1212
aI1212
aI1212
aI1212
aI1212
aI1212
aI1212
aI1212
aI1212
aI1212
aI1212
aI1212
aI1212
aI1212
aI1212
aI1212
aI1212
aI1212
aI1212
aI1212
aI1212
aI1212
aI1212
aI1212
aI1212
aI1212
aI1212
aI1212
aI1244
aI1284
aI1320
aI1332
aI1332
aI1332
aI1332
aI1332
aI1332
aI1332
aI1332
aI1332
aI1332
aI1332
aI1352
aI1384
aI1384
aI1428
aI1464
aI1484
aI1468
aI1444
aI1412
aI1372
aI1356
aI1352
aI1332
aI1328
aI1312
aI1284
aI1252
aI1244
aI1244
aI1240
aI1236
aI1236
aI1228
aI1224
aI1228
aI1232
aI1232
aI1232
aI1244
aI1268
aI1284
aI1328
aI1360
aI1376
aI1392
aI1412
aI1420
aI1436
aI1444
aI1444
aI1452
aI1456
aI1452
aI1440
aI1428
aI1420
aI1404
aI1388
aI1376
aI1360
aI1352
aI1340
aI1328
aI1320
aI1296
aI1260
aI1224
aI1204
aI1176
aI1156
aI1144
aI1140
aI1128
aI1112
aI1096
aI1080
aI1060
aI1052
aI1048
aI1048
aI1044
aI1036
aI1036
aI1044
aI1060
aI1068
aI1104
aI1120
aI1160
aI1220
aI1236
aI1252
aI1284
aI1328
aI1336
aI1344
aI1376
aI1408
aI1428
aI1428
aI1384
aI1348
aI1292
aI1228
aI1164
aI1124
aI1096
aI1088
aI1104
aI1120
aI1156
aI1196
aI1244
aI1276
aI1288
aI1284
aI1264
aI1252
aI1228
aI1204
aI1168
aI1136
aI1104
aI1080
aI1064
aI1064
aI1068
aI1088
aI1120
aI1156
aI1224
aI1296
aI1332
aI1344
aI1344
aI1340
aI1328
aI1308
aI1256
aI1212
aI1176
aI1128
aI1088
aI1080
aI1112
aI1136
aI1164
aI1192
aI1236
aI1288
aI1332
aI1352
aI1356
aI1344
aI1328
aI1304
aI1252
aI1212
aI1176
aI1136
aI1112
aI1108
aI1108
aI1128
aI1160
aI1232
aI1288
aI1368
aI1408
aI1408
aI1376
aI1328
aI1268
aI1220
aI1196
aI1196
aI1232
aI1280
aI1304
aI1312
aI1304
aI1256
aI1228
aI1220
aI1228
aI1268
aI1308
aI1320
aI1304
aI1268
aI1228
aI1220
aI1252
aI1296
aI1340
aI1320
aI1264
aI1252
aI1272
aI1312
aI1332
aI1284
aI1244
aI1252
aI1284
aI1320
aI1332
aI1308
aI1296
aI1296
aI1296
aI1296
aI1296
aI1296
aI1296
aI1296
aI1296
aI1296
aI1296
aI1296
a.(lp0
I1200
aI1200
aI1200
aI1200
aI1200
aI1200
aI1200
aI1200
aI1200
aI1200
aI1200
aI1200
aI1200
aI1200
aI1200
aI1200
aI1200
aI1200
aI1200
aI1200
aI1200
aI1200
aI1200
aI1200
aI1200
aI1200
aI1200
aI1200
aI1200
aI1200
aI1200
aI1200
aI1200
aI1200
aI1200
aI1200
aI1200
aI1200
aI1200
aI1200
aI1200
aI1200
aI1200
aI1200
aI1200
aI1200
aI1200
aI1200
aI1200
aI1200
aI1200
aI1200
aI1200
aI1200
aI1200
aI1200
aI1200
aI1200
aI1200
aI1200
aI1200
aI1200
aI1200
aI1200
aI1200
aI1200
aI1200
aI1200
aI1200
aI1200
aI1200
aI1200
aI1200
aI1200
aI1200
aI1200
aI1200
aI1200
aI1200
aI1200
aI1200
aI1200
aI1200
aI1200
aI1200
aI1200
aI1200
aI1200
aI1200
aI1200
aI1200
aI1200
aI1200
aI1200
aI1200
aI1200
aI1200
aI1200
aI1200
aI1200
aI1200
aI1200
aI1200
aI1200
aI1200
aI1200
aI1200
aI1200
aI1200
aI1200
aI1200
aI1200
aI1200
aI1200
aI1200
aI1200
aI1200
aI1200
aI1200
aI1200
aI1200
aI1200
aI1200
aI1200
aI1200
aI1200
aI1200
aI1200
aI1200
aI1200
aI1200
aI1200
aI1200
aI1200
aI1200
aI1200
aI1200
aI1200
aI1200
aI1200
aI1200
aI1200
aI1200
aI1200
aI1200
aI1200
aI1200
aI1200
aI1200
aI1200
aI1200
aI1200
aI1200
aI1200
aI1200
aI1200
aI1200
aI1200
aI1200
aI1200
aI1200
aI1200
aI1200
aI1200
aI1200
aI1200
aI1200
aI1200
aI1200
aI1200
aI1200
aI1200
aI1200
aI1200
aI1200
aI1200
aI1200
aI1200
aI1200
aI1200
aI1200
aI1200
aI1200
aI1200
aI1200
aI1200
aI1200
aI1200
aI1200
aI1200
aI1200
aI1200
aI1200
aI1200
aI1200
aI1200
aI1200
aI1200
aI1200
aI1200
aI1200
aI1200
aI1200
aI1200
aI1200
aI1200
aI1200
aI1200
aI1200
aI1200
aI1200
aI1200
aI1200
aI1200
aI1200
aI1200
aI1200
aI1200
aI1200
aI1200
aI1200
aI1200
aI1200
aI1200
aI1200
aI1200
aI1200
aI1200
aI1200
aI1200
aI1200
aI1200
aI1200
aI1200
aI1200
aI1200
aI1200
aI1200
aI1200
aI1200
aI1200
aI1200
aI1200
aI1200
aI1200
aI1200
aI1200
aI1200
aI1200
aI1200
aI1200
aI1200
aI1200
aI1200
aI1200
aI1200
aI1200
aI1200
aI1200
aI1200
aI1200
aI1200
aI1200
aI1200
aI1200
aI1200
aI1200
aI1200
aI1200
aI1200
aI1200
aI1200
aI1200
aI1200
aI1200
aI1200
aI1200
aI1200
aI1200
aI1200
aI1200
aI1200
aI1200
aI1200
aI1200
aI1200
aI1200
aI1200
aI900
aI900
aI900
aI900
aI900
aI900
aI900
aI900
aI900
aI900
aI900
aI900
aI900
aI900
aI900
aI900
aI900
aI900
aI900
aI900
aI900
aI900
aI900
aI900
aI900
aI900
aI900
aI900
aI900
aI900
aI900
aI900
aI900
aI900
aI900
aI900
aI900
aI900
aI900
aI900
aI900
aI900
aI900
aI900
aI900
aI900
aI900
aI900
aI900
aI900
aI900
aI900
aI900
aI900
aI900
aI900
aI900
aI900
aI900
aI900
aI900
aI900
aI900
aI900
aI900
aI900
aI900
aI900
aI900
aI900
aI900
aI900
aI900
aI900
aI900
aI900
aI900
aI900
aI900
aI900
aI900
aI900
aI900
aI900
aI900
aI900
aI900
aI900
aI900
aI900
aI900
aI900
aI900
aI900
aI900
aI900
aI900
aI900
aI900
aI900
aI900
aI900
aI900
aI900
aI900
aI900
aI900
aI900
aI900
aI900
aI900
aI900
aI900
aI900
aI900
aI900
aI900
aI900
aI900
aI900
aI900
aI900
aI900
aI900
aI900
aI900
aI900
aI900
aI900
aI900
aI900
aI900
aI900
aI900
aI900
aI900
aI900
aI900
aI900
aI900
aI900
aI900
aI900
aI900
aI900
aI900
aI900
aI900
aI900
aI900
aI900
aI900
aI900
aI900
aI900
aI900
aI900
aI900
aI900
aI900
aI900
aI900
aI900
aI900
aI900
aI900
aI900
aI900
aI900
aI900
aI900
aI900
aI900
aI900
aI900
aI900
aI900
aI900
aI900
aI900
aI900
aI900
aI900
aI900
aI900
aI900
aI900
aI900
aI900
aI900
aI900
aI900
aI900
aI900
aI900
aI900
aI900
aI900
aI900
aI900
aI900
aI900
aI900
aI900
aI900
aI900
aI900
aI900
aI900
aI900
aI900
aI900
aI900
aI900
aI900
aI900
aI900
aI900
aI900
aI900
aI900
aI900
aI900
aI900
aI900
aI900
aI900
aI900
aI900
aI900
aI900
aI900
aI900
aI900
aI900
aI900
aI900
aI900
aI900
aI900
aI900
aI900
aI900
aI900
aI900
aI900
aI900
aI900
aI900
aI900
aI900
aI900
aI900
aI900
aI900
aI900
aI900
aI900
aI900
aI900
aI900
aI900
aI900
aI900
aI900
aI900
aI900
aI900
aI900
aI900
aI900
aI900
aI900
aI900
aI900
aI900
aI900
aI900
aI900
aI900
aI900
aI900
aI900
aI900
aI900
aI900
aI900
aI900
aI900
aI900
aI900
aI900
aI900
aI900
aI900
aI900
aI900
aI900
aI900
aI900
aI900
aI900
aI900
aI900
aI900
aI900
aI900
aI900
aI900
aI900
aI900
aI900
aI900
aI900
aI900
aI900
aI900
aI900
aI900
aI900
aI900
aI900
aI900
aI900
aI900
aI900
aI900
aI900
aI900
aI900
aI900
aI900
aI900
aI900
aI900
aI900
aI900
aI900
aI900
aI900
aI900
aI900
aI900
aI900
aI900
aI900
aI900
aI900
aI900
aI900
aI900
aI900
aI900
aI900
aI900
aI900
aI900
aI900
aI900
aI900
aI900
aI900
aI900
aI900
aI900
aI900
aI900
aI900
aI900
aI900
aI900
aI900
aI900
aI900
aI900
aI900
aI900
aI900
aI900
aI900
aI900
aI900
aI900
aI900
aI900
aI900
aI900
aI900
aI900
aI900
aI900
aI900
aI900
aI900
aI900
aI900
aI900
aI900
aI900
aI900
aI900
aI900
aI900
aI900
aI900
aI900
aI900
aI900
aI900
aI900
aI900
aI900
aI900
aI900
aI900
aI900
aI900
aI900
aI900
aI900
aI900
aI900
aI900
aI900
aI900
aI900
aI900
aI900
aI900
aI900
aI900
aI900
aI900
aI900
aI900
aI900
aI900
aI900
aI900
aI900
aI900
aI900
aI900
aI900
aI900
aI900
aI900
aI900
aI900
aI900
aI900
aI900
aI900
aI900
aI900
aI900
aI900
aI900
aI900
aI900
aI900
aI900
aI900
aI900
aI900
aI900
aI900
aI900
aI900
aI900
aI900
aI900
aI900
aI900
aI900
aI900
aI900
aI900
aI900
aI900
aI900
aI900
aI900
aI900
aI900
aI900
aI900
aI900
aI900
aI900
aI900
aI900
aI900
aI900
aI900
aI900
aI900
aI900
aI900
aI900
aI900
aI900
aI900
aI900
aI900
aI900
aI900
aI900
aI900
aI900
aI900
aI900
aI900
aI900
aI900
aI900
aI900
aI900
aI900
aI900
aI900
aI900
aI900
aI900
aI900
aI900
aI900
aI900
aI900
aI900
aI900
aI900
aI900
aI900
aI900
aI900
aI900
aI900
aI900
aI900
aI900
aI900
aI900
aI900
aI900
aI900
aI900
aI900
aI900
aI900
aI900
aI900
aI900
aI900
aI900
aI900
aI900
aI900
aI900
aI900
aI900
aI900
aI900
aI900
aI900
aI900
aI900
aI900
aI900
aI900
aI900
aI900
aI900
aI900
aI900
aI900
aI900
aI900
aI900
aI900
aI900
aI900
aI900
aI900
aI900
aI900
aI900
aI900
aI900
aI900
aI900
aI900
aI900
aI900
aI900
aI900
aI900
aI900
aI900
aI900
aI900
aI900
aI900
aI900
aI900
aI900
aI900
aI900
aI900
aI900
aI900
aI900
aI900
aI900
aI900
aI900
aI900
aI900
aI900
aI900
aI900
aI900
aI900
aI900
aI900
aI900
aI900
aI900
aI900
aI900
aI900
aI900
aI900
aI900
aI900
aI900
aI900
aI900
aI900
aI900
aI900
aI900
aI900
aI900
aI900
aI900
aI900
aI900
aI900
aI900
aI900
aI900
aI900
aI900
aI900
aI900
aI900
aI900
aI900
aI900
aI900
aI900
aI900
aI900
aI900
aI900
aI900
aI900
aI900
aI900
aI900
aI900
aI900
aI900
aI900
aI900
aI900
aI900
aI900
aI900
aI900
aI900
aI900
aI900
aI900
aI900
aI900
aI900
aI900
aI900
aI900
aI900
aI900
aI900
aI900
aI900
aI900
aI900
aI900
aI900
aI900
aI900
aI900
aI900
aI900
aI900
aI900
aI900
aI900
aI900
aI900
aI900
aI900
aI900
aI900
aI900
aI900
a.