(lp0
I3463
aI3464
aI3465
aI3466
aI3467
aI3468
aI3469
aI3470
aI3471
aI3472
aI3473
aI3474
aI3475
aI3476
aI3477
aI3478
aI3479
aI3480
aI3481
aI3482
aI3483
aI3484
aI3485
aI3486
aI3487
aI3488
aI3489
aI3490
aI3491
aI3492
aI3493
aI3494
aI3495
aI3496
aI3497
aI3498
aI3499
aI3500
aI3501
aI3502
aI3503
aI3504
aI3505
aI3506
aI3507
aI3508
aI3509
aI3510
aI3511
aI3512
aI3513
aI3514
aI3515
aI3516
aI3517
aI3518
aI3519
aI3520
aI3521
aI3522
aI3523
aI3524
aI3525
aI3526
aI3527
aI3528
aI3529
aI3530
aI3531
aI3532
aI3533
aI3534
aI3535
aI3536
aI3537
aI3538
aI3539
aI3540
aI3583
aI3584
aI3585
aI3586
aI3587
aI3588
aI3589
aI3590
aI3591
aI3592
aI3593
aI3594
aI3595
aI3596
aI3597
aI3598
aI3599
aI3600
aI3601
aI3602
aI3603
aI3604
aI3605
aI3606
aI3607
aI3608
aI3609
aI3610
aI3611
aI3612
aI3613
aI3614
aI3615
aI3616
aI3617
aI3618
aI3619
aI3620
aI3621
aI3622
aI3623
aI3624
aI3625
aI3626
aI3627
aI3628
aI3629
aI3630
aI3631
aI3632
aI3633
aI3634
aI3635
aI3636
aI3637
aI3638
aI3639
aI3640
aI3641
aI3642
aI3643
aI3644
aI3645
aI3646
aI3647
aI3648
aI3649
aI3650
aI3651
aI3652
aI3653
aI3654
aI3655
aI3656
aI3657
aI3658
aI3659
aI3660
aI3661
aI3662
aI3663
aI3664
aI3665
aI3666
aI3667
aI3668
aI3669
aI3670
aI3671
aI3672
aI3673
aI3674
aI3675
aI3676
aI3677
aI3678
aI3679
aI3680
aI3681
aI3682
aI3683
aI3684
aI3685
aI3686
aI3687
aI3688
aI3689
aI3690
aI3691
aI3692
aI3693
aI3694
aI3695
aI3696
aI3697
aI3698
aI3699
aI3700
aI3701
aI3702
aI3703
aI3704
aI3705
aI3706
aI3707
aI3708
aI3730
aI3731
aI3732
aI3733
aI3734
aI3735
aI3736
aI3737
aI3738
aI3739
aI3740
aI3741
aI3742
aI3743
aI3744
aI3745
aI3746
aI3747
aI3748
aI3749
aI3750
aI3751
aI3752
aI3753
aI3754
aI3755
aI3756
aI3757
aI3758
aI3759
aI3760
aI3761
aI3762
aI3763
aI3764
aI3765
aI3766
aI3767
aI3768
aI3769
aI3770
aI3771
aI3772
aI3773
aI3774
aI3775
aI3776
aI3777
aI3778
aI3779
aI3780
aI3781
aI3782
aI3783
aI3784
aI3785
aI3786
aI3787
aI3788
aI3789
aI3790
aI3791
aI3792
aI3793
aI3794
aI3795
aI3796
aI3797
aI3798
aI3799
aI3800
aI3801
aI3802
aI3803
aI3804
aI3805
aI3806
aI3807
aI3808
aI3809
aI3810
aI3811
aI3812
aI3813
aI3814
aI3815
aI3816
aI3817
aI3818
aI3819
aI3820
aI3821
aI3822
aI3823
aI3824
aI3825
aI3826
aI3827
aI3828
aI3829
aI3830
aI3831
aI3832
aI3833
aI3834
aI3835
aI3836
aI3837
aI3838
aI3839
aI3840
aI3841
aI3842
aI3843
aI3844
aI3845
aI3846
aI3847
aI3848
aI3849
aI3850
aI3851
aI3852
aI3853
aI3854
aI3855
aI3856
aI3857
aI3858
aI3859
aI3860
aI3861
aI3862
aI3863
aI3864
aI3865
aI3866
aI3867
aI3868
aI3869
aI3870
aI3871
aI3872
aI3873
aI3874
aI3875
aI3876
aI3877
aI3878
aI3879
aI3880
aI3881
aI3882
aI3883
aI3884
aI3885
aI3886
aI3887
aI3888
aI3889
aI3890
aI3891
aI3892
aI3893
aI3894
aI3895
aI3896
aI3897
aI3898
aI3899
aI3900
aI3901
aI3902
aI3903
aI3904
aI3905
aI3906
aI3907
aI3908
aI3909
aI3910
aI3911
aI3912
aI3913
aI3914
aI3915
aI3916
aI3917
aI3918
aI3919
aI3920
aI3921
aI3922
aI3923
aI3924
aI3925
aI3926
aI3927
aI3928
aI3929
aI3930
aI3931
aI3932
aI3933
aI3934
aI3935
aI3936
aI3937
aI3938
aI3939
aI3940
aI3941
aI3942
aI3943
aI3944
aI3945
aI3946
aI3947
aI3948
aI3949
aI3950
aI3951
aI3952
aI3953
aI3954
aI3955
aI3956
aI3957
aI3958
aI3959
aI3960
aI3961
aI3962
aI3963
aI3964
aI3965
aI3966
aI3967
aI3968
aI3969
aI3970
aI3971
aI3972
aI3973
aI3974
aI3975
aI3976
aI3977
aI3978
aI3979
aI3980
aI3981
aI3982
aI3983
aI3984
aI3985
aI3986
aI3987
aI3988
aI3989
aI3990
aI3991
aI3992
aI3993
aI3994
aI3995
aI3996
aI3997
aI3998
aI3999
aI4000
aI4001
aI4002
aI4003
aI4004
aI4005
aI4006
aI4007
aI4008
aI4009
aI4010
aI4011
aI4012
aI4013
aI4014
aI4015
aI4016
aI4017
aI4018
aI4019
aI4020
aI4021
aI4022
aI4023
aI4024
aI4025
aI4026
aI4027
aI4028
aI4029
aI4030
aI4040
aI4041
aI4042
aI4043
aI4044
aI4045
aI4046
aI4047
aI4048
aI4049
aI4050
aI4051
aI4052
aI4053
aI4054
aI4055
aI4056
aI4057
aI4058
aI4059
aI4060
aI4061
aI4062
aI4063
aI4064
aI4065
aI4066
aI4067
aI4068
aI4069
aI4070
aI4071
aI4072
aI4073
aI4074
aI4075
aI4076
aI4077
aI4078
aI4079
aI4080
aI4081
aI4082
aI4083
aI4084
aI4085
aI4086
aI4087
aI4088
aI4089
aI4090
aI4091
aI4092
aI4093
aI4094
aI4095
aI4096
aI4097
aI4098
aI4099
aI4100
aI4101
aI4102
aI4103
aI4104
aI4105
aI4106
aI4107
aI4108
aI4109
aI4110
aI4111
aI4112
aI4113
aI4114
aI4115
aI4116
aI4117
aI4118
aI4119
aI4120
aI4121
aI4122
aI4123
aI4124
aI4125
aI4126
aI4127
aI4128
aI4129
aI4130
aI4131
aI4132
aI4133
aI4134
aI4135
a.(lp0
I2128
aI2128
aI2128
aI2128
aI2128
aI2128
aI2128
aI2128
aI2128
aI2124
aI2124
aI2104
aI2124
aI2172
aI2184
aI2184
aI2184
aI2212
aI2212
aI2236
aI2268
aI2284
aI2284
aI2284
aI2272
aI2232
aI2220
aI2216
aI2212
aI2200
aI2184
aI2176
aI2160
aI2152
aI2148
aI2136
aI2124
aI2116
aI2108
aI2104
aI2100
aI2092
aI2080
aI2068
aI2052
aI2044
aI2040
aI2032
aI2028
aI2016
aI2000
aI1968
aI1960
aI1952
aI1944
aI1940
aI1904
aI1900
aI1892
aI1880
aI1876
aI1876
aI1872
aI1876
aI1852
aI1848
aI1792
aI1784
aI1812
aI1812
aI1792
aI1768
aI1768
aI1768
aI1768
aI1768
aI1768
aI1776
aI1912
aI1912
aI1912
aI1912
aI1912
aI1916
aI1916
aI1916
aI1916
aI1916
aI1916
aI1916
aI1916
aI1916
aI1916
aI1916
aI1916
aI1916
aI1916
aI1916
aI1916
aI1916
aI1916
aI1916
aI1916
aI1916
aI1916
aI1916
aI1916
aI1916
aI1916
aI1916
aI1916
aI1916
aI1916
aI1916
aI1916
aI1916
aI1916
aI1916
aI1916
aI1912
aI1928
aI1948
aI1952
aI1960
aI1984
aI1992
aI2000
aI2020
aI2036
aI2036
aI2044
aI2032
aI2028
aI2040
aI2052
aI2060
aI2068
aI2088
aI2116
aI2136
aI2152
aI2160
aI2160
aI2176
aI2188
aI2200
aI2200
aI2208
aI2228
aI2240
aI2240
aI2240
aI2240
aI2240
aI2240
aI2240
aI2240
aI2240
aI2240
aI2240
aI2240
aI2240
aI2240
aI2240
aI2240
aI2240
aI2240
aI2240
aI2240
aI2240
aI2240
aI2240
aI2240
aI2240
aI2244
aI2244
aI2248
aI2260
aI2260
aI2252
aI2264
aI2268
aI2268
aI2272
aI2276
aI2276
aI2276
aI2276
aI2276
aI2276
aI2276
aI2276
aI2276
aI2276
aI2276
aI2276
aI2276
aI2268
aI2264
aI2252
aI2244
aI2236
aI2232
aI2224
aI2096
aI2096
aI2096
aI2092
aI2092
aI2092
aI2092
aI2092
aI2092
aI2088
aI2088
aI2084
aI2080
aI2076
aI2076
aI2076
aI2076
aI2076
aI2076
aI2076
aI2076
aI2076
aI2052
aI2040
aI2016
aI2000
aI2000
aI1992
aI1992
aI1988
aI1976
aI1952
aI1924
aI1912
aI1904
aI1900
aI1900
aI1900
aI1900
aI1900
aI1900
aI1908
aI1920
aI1928
aI1976
aI2016
aI2032
aI2068
aI2088
aI2108
aI2124
aI2140
aI2164
aI2220
aI2252
aI2268
aI2280
aI2280
aI2280
aI2280
aI2280
aI2280
aI2260
aI2244
aI2232
aI2212
aI2208
aI2208
aI2208
aI2208
aI2208
aI2208
aI2212
aI2212
aI2204
aI2204
aI2204
aI2204
aI2204
aI2204
aI2204
aI2204
aI2204
aI2204
aI2204
aI2204
aI2204
aI2204
aI2204
aI2204
aI2204
aI2204
aI2204
aI2200
aI2144
aI2104
aI2068
aI2056
aI2052
aI2048
aI2048
aI2044
aI2040
aI2036
aI2008
aI1992
aI1984
aI1984
aI1984
aI1980
aI1980
aI1980
aI1980
aI1980
aI1980
aI1980
aI1980
aI1980
aI1980
aI1988
aI2000
aI2016
aI2024
aI2036
aI2044
aI2056
aI2068
aI2072
aI2076
aI2084
aI2084
aI2084
aI2084
aI2084
aI2084
aI2084
aI2084
aI2084
aI2088
aI2088
aI2088
aI2080
aI2080
aI2080
aI2080
aI2080
aI2080
aI2080
aI2092
aI2100
aI2100
aI2100
aI2100
aI2100
aI2100
aI2100
aI2100
aI2100
aI2104
aI2108
aI2108
aI2108
aI2108
aI2104
aI2080
aI2056
aI2036
aI2028
aI2008
aI1992
aI1988
aI1980
aI1976
aI1976
aI1976
aI1976
aI1976
aI1976
aI1976
aI1976
aI1976
aI1976
aI1976
aI1976
aI1976
aI1976
aI1976
aI1968
aI1948
aI1936
aI1932
aI1928
aI1916
aI1908
aI1908
aI1908
aI1908
aI1908
aI1908
aI1908
aI1908
aI1908
aI1908
aI1908
aI1908
aI1908
aI1908
aI1908
aI1908
aI1908
aI1908
aI1908
aI1908
aI1892
aI1868
aI1856
aI1852
aI1852
aI1852
aI1848
aI1844
aI1844
aI1840
aI1836
aI1828
aI1820
aI1820
aI1816
aI1816
aI1816
aI1816
aI1816
aI1816
aI1816
aI1816
aI1816
aI1812
aI1812
aI1812
aI1812
aI1812
aI1812
aI1812
aI1812
aI1812
aI1812
aI1812
aI1812
aI1812
aI1812
aI1812
aI1812
aI1812
aI1812
aI1812
aI1812
aI1812
aI1812
aI1812
aI1812
aI1812
aI1812
aI1812
aI1812
aI1812
aI1812
aI1812
aI1812
aI1812
aI1808
aI1788
aI1772
aI1756
aI1736
aI1724
aI1700
aI1684
aI1672
aI1668
aI1664
aI1660
aI1660
aI1660
aI1656
aI1656
aI1656
aI1656
aI1656
aI1656
aI1656
aI1656
aI1656
aI1656
aI1656
aI1656
aI1656
aI1656
aI1656
aI1700
aI1712
aI1736
aI1792
aI1808
aI1808
aI1816
aI1816
aI1820
aI1820
aI1820
aI1820
aI1820
aI1820
aI1820
aI1820
aI1820
aI1832
aI1840
aI1852
aI1868
aI1900
aI1928
aI1956
aI1988
aI2028
aI2028
aI2028
aI2032
aI2032
aI2044
aI2088
aI2092
aI2092
aI2100
aI2108
aI2112
aI2112
aI2116
aI2116
aI2136
aI2144
aI2144
aI2148
aI2156
aI2164
aI2164
aI2168
aI2172
aI2176
aI2184
aI2184
aI2188
aI2188
aI2188
aI2192
aI2192
aI2208
aI2208
aI2208
aI2208
aI2212
aI2212
aI2212
aI2212
aI2212
aI2212
aI2196
aI2168
aI2148
aI2124
aI2108
aI2084
aI2048
aI2028
aI2000
aI2000
aI2000
aI1996
aI1996
aI1996
aI1996
aI1996
aI1996
aI1996
aI1996
aI1996
aI2000
aI2004
aI2004
aI2004
aI2004
aI2004
aI2004
aI2008
aI2036
aI2056
aI2060
aI2052
a.(lp0
I1160
aI1120
aI1112
aI1112
aI1112
aI1112
aI1112
aI1112
aI1112
aI1120
aI1128
aI1160
aI1188
aI1200
aI1196
aI1196
aI1192
aI1176
aI1172
aI1164
aI1152
aI1152
aI1152
aI1148
aI1136
aI1112
aI1112
aI1112
aI1112
aI1112
aI1112
aI1112
aI1112
aI1112
aI1112
aI1112
aI1112
aI1112
aI1112
aI1112
aI1112
aI1112
aI1112
aI1112
aI1112
aI1112
aI1112
aI1112
aI1112
aI1112
aI1112
aI1112
aI1096
aI1096
aI1104
aI1112
aI1112
aI1120
aI1128
aI1144
aI1152
aI1160
aI1164
aI1176
aI1176
aI1188
aI1196
aI1196
aI1220
aI1224
aI1224
aI1224
aI1224
aI1224
aI1224
aI1224
aI1224
aI1236
aI1252
aI1244
aI1232
aI1224
aI1224
aI1224
aI1224
aI1224
aI1224
aI1224
aI1224
aI1224
aI1224
aI1224
aI1224
aI1224
aI1224
aI1224
aI1224
aI1224
aI1224
aI1224
aI1224
aI1224
aI1224
aI1224
aI1224
aI1224
aI1224
aI1224
aI1224
aI1224
aI1224
aI1224
aI1224
aI1224
aI1224
aI1224
aI1224
aI1224
aI1224
aI1220
aI1216
aI1216
aI1216
aI1216
aI1212
aI1212
aI1208
aI1200
aI1196
aI1196
aI1196
aI1188
aI1180
aI1176
aI1168
aI1168
aI1168
aI1168
aI1168
aI1168
aI1168
aI1168
aI1168
aI1168
aI1168
aI1168
aI1168
aI1164
aI1164
aI1164
aI1164
aI1164
aI1164
aI1164
aI1164
aI1164
aI1164
aI1164
aI1164
aI1164
aI1164
aI1164
aI1164
aI1164
aI1164
aI1164
aI1164
aI1164
aI1164
aI1164
aI1164
aI1164
aI1164
aI1164
aI1160
aI1152
aI1136
aI1112
aI1100
aI1096
aI1088
aI1084
aI1080
aI1072
aI1072
aI1068
aI1060
aI1052
aI1036
aI1028
aI1020
aI1012
aI1008
aI1004
aI996
aI988
aI988
aI980
aI968
aI952
aI932
aI920
aI912
aI904
aI912
aI920
aI924
aI924
aI932
aI936
aI936
aI936
aI936
aI936
aI936
aI936
aI936
aI936
aI936
aI936
aI936
aI936
aI936
aI936
aI936
aI936
aI956
aI976
aI1004
aI1016
aI1020
aI1028
aI1028
aI1032
aI1044
aI1056
aI1068
aI1080
aI1088
aI1088
aI1092
aI1092
aI1092
aI1092
aI1092
aI1088
aI1080
aI1080
aI1084
aI1100
aI1104
aI1088
aI1088
aI1084
aI1084
aI1084
aI1084
aI1092
aI1100
aI1100
aI1100
aI1100
aI1100
aI1100
aI1100
aI1100
aI1112
aI1124
aI1136
aI1152
aI1156
aI1156
aI1156
aI1156
aI1156
aI1156
aI1156
aI1160
aI1160
aI1160
aI1160
aI1160
aI1160
aI1160
aI1160
aI1160
aI1160
aI1160
aI1160
aI1160
aI1160
aI1160
aI1160
aI1160
aI1160
aI1160
aI1160
aI1160
aI1172
aI1176
aI1180
aI1180
aI1180
aI1180
aI1180
aI1180
aI1172
aI1172
aI1160
aI1156
aI1156
aI1156
aI1152
aI1152
aI1152
aI1152
aI1152
aI1152
aI1152
aI1152
aI1152
aI1152
aI1152
aI1152
aI1144
aI1140
aI1136
aI1128
aI1124
aI1120
aI1108
aI1104
aI1096
aI1096
aI1092
aI1092
aI1092
aI1092
aI1092
aI1092
aI1092
aI1080
aI1064
aI1044
aI1036
aI1032
aI1032
aI1032
aI1028
aI1028
aI1028
aI1028
aI1008
aI1004
aI1004
aI1004
aI1004
aI1004
aI1004
aI1004
aI1004
aI996
aI996
aI988
aI988
aI988
aI988
aI988
aI1000
aI1008
aI1012
aI1016
aI1020
aI1020
aI1020
aI1020
aI1020
aI1020
aI1020
aI1020
aI1020
aI1020
aI1020
aI1020
aI1020
aI1020
aI1020
aI1020
aI1020
aI1020
aI1020
aI1024
aI1028
aI1028
aI1028
aI1028
aI1028
aI1020
aI1020
aI1020
aI1020
aI1020
aI1020
aI1020
aI1020
aI1020
aI1020
aI1020
aI1020
aI1020
aI1020
aI1020
aI1020
aI1020
aI1020
aI1020
aI1020
aI1020
aI1020
aI1020
aI1020
aI1020
aI1020
aI1020
aI1020
aI1020
aI1020
aI1016
aI1012
aI1012
aI1012
aI1012
aI1012
aI1012
aI1012
aI1012
aI1012
aI1012
aI1012
aI1012
aI1012
aI1012
aI1012
aI1012
aI1012
aI1012
aI1012
aI1012
aI1012
aI1012
aI1012
aI1012
aI1012
aI1012
aI1012
aI1012
aI1012
aI1012
aI1012
aI1012
aI1012
aI1012
aI1012
aI1012
aI1012
aI1012
aI1012
aI1012
aI1012
aI1012
aI1012
aI1012
aI1012
aI1012
aI1008
aI996
aI984
aI980
aI980
aI972
aI968
aI964
aI964
aI960
aI960
aI960
aI960
aI960
aI960
aI960
aI960
aI960
aI960
aI960
aI960
aI960
aI960
aI960
aI960
aI960
aI960
aI960
aI948
aI932
aI920
aI920
aI936
aI948
aI960
aI964
aI964
aI964
aI960
aI944
aI940
aI940
aI936
aI936
aI932
aI932
aI928
aI928
aI924
aI924
aI924
aI920
aI920
aI920
aI920
aI920
aI920
aI920
aI920
aI920
aI920
aI932
aI940
aI944
aI944
aI944
aI944
aI944
aI944
aI944
aI944
aI944
aI944
aI952
aI952
aI952
aI952
aI952
aI952
aI952
aI952
aI952
aI952
aI956
aI1000
aI1020
aI1020
aI1020
aI1020
aI1020
aI1020
aI1020
aI1020
aI1020
aI1020
aI1028
aI1048
aI1060
aI1060
aI1056
aI1052
aI1044
aI1044
aI1044
aI1044
aI1044
aI1044
aI1044
aI1044
aI1044
aI1044
aI1044
aI1044
aI1044
aI1044
aI1040
aI1036
aI1036
aI1036
aI1036
aI1036
aI1036
aI1052
aI1096
aI1152
aI1212
aI1236
a.(lp0
I1200
aI1200
aI1200
aI1200
aI1200
aI1200
aI1200
aI1200
aI1200
aI1200
aI1200
aI1200
aI1200
aI1200
aI1200
aI1200
aI1200
aI1200
aI1200
aI1200
aI1200
aI1200
aI1200
aI1200
aI1200
aI1200
aI1200
aI1200
aI1200
aI1200
aI1200
aI1200
aI1200
aI1200
aI1200
aI1200
aI1200
aI1200
aI1200
aI1200
aI1200
aI1200
aI1200
aI1200
aI1200
aI1200
aI1200
aI1200
aI1200
aI1200
aI1200
aI1200
aI1200
aI1200
aI1200
aI1200
aI1200
aI1200
aI1200
aI1200
aI1200
aI1200
aI1200
aI1200
aI1200
aI1200
aI1200
aI1200
aI1200
aI1200
aI1200
aI1200
aI1200
aI1200
aI1200
aI1200
aI1200
aI1200
aI1200
aI1200
aI1200
aI1200
aI1200
aI1200
aI1200
aI1200
aI1200
aI1200
aI1200
aI1200
aI1200
aI1200
aI1200
aI1200
aI1200
aI1200
aI1200
aI1200
aI1200
aI1200
aI1200
aI1200
aI1200
aI1200
aI1200
aI1200
aI1200
aI1200
aI1200
aI1200
aI1200
aI1200
aI1200
aI1200
aI1200
aI1200
aI1200
aI1200
aI1200
aI1200
aI1200
aI1200
aI1200
aI1200
aI1200
aI1200
aI1200
aI1200
aI1200
aI1200
aI1200
aI1200
aI1200
aI1200
aI1200
aI1200
aI1200
aI1200
aI1200
aI1200
aI1200
aI1200
aI1200
aI1200
aI1200
aI1200
aI1200
aI1200
aI1200
aI1200
aI1200
aI1200
aI1200
aI1200
aI1200
aI1200
aI1200
aI1200
aI1200
aI1200
aI1200
aI1200
aI1200
aI1200
aI1200
aI1200
aI1200
aI1200
aI1200
aI1200
aI1200
aI1200
aI1200
aI1200
aI1200
aI1200
aI1200
aI1200
aI1200
aI1200
aI1200
aI1200
aI1200
aI1200
aI1200
aI1200
aI1200
aI1200
aI1200
aI1200
aI1200
aI1200
aI1200
aI1200
aI1200
aI1200
aI1200
aI1200
aI1200
aI1200
aI1200
aI1200
aI1200
aI1200
aI1200
aI1200
aI1200
aI1200
aI1200
aI1200
aI1200
aI1200
aI1200
aI1200
aI1200
aI1200
aI1200
aI1200
aI1200
aI1200
aI1200
aI1200
aI1200
aI1200
aI1200
aI1200
aI1200
aI1200
aI1200
aI1200
aI1200
aI1200
aI1200
aI1200
aI1200
aI1200
aI1200
aI1200
aI1200
aI1200
aI1200
aI1200
aI1200
aI1200
aI1200
aI1200
aI1200
aI1200
aI1200
aI1200
aI1200
aI1200
aI1200
aI1200
aI1200
aI1200
aI1200
aI1200
aI1200
aI1200
aI1200
aI1200
aI1200
aI1200
aI1200
aI1200
aI1200
aI1200
aI1200
aI1200
aI1200
aI1200
aI1200
aI1200
aI1200
aI1200
aI1200
aI1200
aI1200
aI1200
aI1200
aI1200
aI1200
aI1200
aI1200
aI1200
aI1200
aI1200
aI1200
aI1200
aI1200
aI1200
aI1200
aI1200
aI1200
aI1200
aI1200
aI1200
aI1200
aI1200
aI1200
aI1200
aI1200
aI1200
aI1200
aI1200
aI1200
aI1200
aI1200
aI1200
aI1200
aI1200
aI1200
aI1200
aI1200
aI1200
aI1200
aI1200
aI1200
aI1200
aI1200
aI1200
aI1200
aI1200
aI1200
aI1200
aI1200
aI1200
aI1200
aI1200
aI1200
aI1200
aI1200
aI1200
aI1200
aI1200
aI1200
aI1200
aI1200
aI1200
aI1200
aI1200
aI1200
aI1200
aI1200
aI1200
aI1200
aI1200
aI1200
aI1200
aI1200
aI1200
aI1200
aI1200
aI1200
aI1200
aI1200
aI1200
aI1200
aI1200
aI1200
aI1200
aI1200
aI1200
aI1200
aI1200
aI1200
aI1200
aI1200
aI1200
aI1200
aI1200
aI1200
aI1200
aI1200
aI1200
aI1200
aI1200
aI1200
aI1200
aI1200
aI1200
aI1200
aI1200
aI1200
aI1200
aI1200
aI1200
aI1200
aI1200
aI1200
aI1200
aI1200
aI1200
aI1200
aI1200
aI1200
aI1200
aI1200
aI1200
aI1200
aI1200
aI1200
aI1200
aI1200
aI1200
aI1200
aI1200
aI1200
aI1200
aI1200
aI1200
aI1200
aI1200
aI1200
aI1200
aI1200
aI1200
aI1200
aI1200
aI1200
aI1200
aI1200
aI1200
aI1200
aI1200
aI1200
aI1200
aI1200
aI1200
aI1200
aI1200
aI1200
aI1200
aI1200
aI1200
aI1200
aI1200
aI1200
aI1200
aI1200
aI1200
aI1200
aI1200
aI1200
aI1200
aI1200
aI1200
aI1200
aI1200
aI1200
aI1200
aI1200
aI1200
aI1200
aI1200
aI1200
aI1200
aI1200
aI1200
aI1200
aI1200
aI1200
aI1200
aI1200
aI1200
aI1200
aI1200
aI1200
aI1200
aI1200
aI1200
aI1200
aI1200
aI1200
aI1200
aI1200
aI1200
aI1200
aI1200
aI1200
aI1200
aI1200
aI1200
aI1200
aI1200
aI1200
aI1200
aI1200
aI1200
aI1200
aI1200
aI1200
aI1200
aI1200
aI1200
aI1200
aI1200
aI1200
aI1200
aI1200
aI1200
aI1200
aI1200
aI1200
aI1200
aI1200
aI1200
aI1200
aI1200
aI1200
aI1200
aI1200
aI1200
aI1200
aI1200
aI1200
aI1200
aI1200
aI1200
aI1200
aI1200
aI1200
aI1200
aI1200
aI1200
aI1200
aI1200
aI1200
aI1200
aI1200
aI1200
aI1200
aI1200
aI1200
aI1200
aI1200
aI1200
aI1200
aI1200
aI1200
aI1200
aI1200
aI1200
aI1200
aI1200
aI1200
aI1200
aI1200
aI1200
aI1200
aI1200
aI1200
aI1200
aI1200
aI1200
aI1200
aI1200
aI1200
aI1200
aI1200
aI1200
aI1200
aI1200
aI1200
aI1200
aI1200
aI1200
aI1200
aI1200
aI1200
aI1200
aI1200
aI1200
aI1200
aI1200
aI1200
aI1200
aI1200
aI1200
aI1200
aI1200
aI1200
aI1200
aI1200
aI1200
aI1200
aI1200
aI1200
aI1200
aI1200
aI1200
aI1200
aI1200
aI1200
aI1200
aI1200
aI1200
aI1200
aI1200
aI1200
a.