(lp0
I6462
aI6463
aI6464
aI6465
aI6466
aI6467
aI6468
aI6469
aI6470
aI6471
aI6472
aI6473
aI6474
aI6475
aI6476
aI6477
aI6478
aI6479
aI6480
aI6481
aI6482
aI6483
aI6484
aI6485
aI6486
aI6487
aI6488
aI6489
aI6490
aI6491
aI6492
aI6493
aI6494
aI6495
aI6496
aI6497
aI6498
aI6499
aI6500
aI6501
aI6502
aI6503
aI6504
aI6505
aI6506
aI6507
aI6508
aI6509
aI6510
aI6511
aI6512
aI6513
aI6514
aI6515
aI6516
aI6517
aI6518
aI6519
aI6520
aI6521
aI6522
aI6523
aI6524
aI6525
aI6526
aI6527
aI6528
aI6529
aI6530
aI6531
aI6532
aI6533
aI6534
aI6535
aI6536
aI6537
aI6538
aI6539
aI6540
aI6541
aI6542
aI6543
aI6544
aI6545
aI6546
aI6547
aI6548
aI6549
aI6550
aI6551
aI6552
aI6553
aI6554
aI6555
aI6556
aI6557
aI6558
aI6559
aI6560
aI6561
aI6562
aI6563
aI6564
aI6565
aI6566
aI6567
aI6568
aI6569
aI6570
aI6571
aI6572
aI6573
aI6574
aI6575
aI6576
aI6577
aI6578
aI6579
aI6580
aI6581
aI6582
aI6583
aI6584
aI6585
aI6586
aI6587
aI6588
aI6589
aI6590
aI6591
aI6592
aI6593
aI6594
aI6595
aI6596
aI6597
aI6598
aI6599
aI6600
aI6601
aI6602
aI6603
aI6604
aI6605
aI6606
aI6607
aI6608
aI6609
aI6610
aI6611
aI6612
aI6613
aI6614
aI6615
aI6616
aI6617
aI6618
aI6619
aI6620
aI6621
aI6622
aI6623
aI6624
aI6625
aI6626
aI6627
aI6628
aI6629
aI6630
aI6631
aI6632
aI6633
aI6634
aI6635
aI6636
aI6637
aI6638
aI6639
aI6640
aI6641
aI6642
aI6643
aI6644
aI6645
aI6646
aI6647
aI6648
aI6649
aI6650
aI6651
aI6652
aI6653
aI6654
aI6655
aI6656
aI6657
aI6658
aI6659
aI6660
aI6661
aI6662
aI6663
aI6664
aI6665
aI6666
aI6667
aI6668
aI6669
aI6670
aI6671
aI6672
aI6673
aI6674
aI6675
aI6676
aI6677
aI6678
aI6679
aI6680
aI6681
aI6682
aI6683
aI6684
aI6685
aI6686
aI6687
aI6688
aI6689
aI6690
aI6691
aI6692
aI6693
aI6694
aI6695
aI6696
aI6697
aI6698
aI6699
aI6700
aI6701
aI6702
aI6703
aI6704
aI6705
aI6706
aI6707
aI6708
aI6709
aI6710
aI6711
aI6712
aI6713
aI6714
aI6715
aI6716
aI6717
aI6718
aI6719
aI6720
aI6721
aI6722
aI6723
aI6724
aI6725
aI6726
aI6727
aI6728
aI6729
aI6730
aI6731
aI6732
aI6733
aI6734
aI6735
aI6736
aI6737
aI6738
aI6739
aI6740
aI6741
aI6742
aI6743
aI6744
aI6745
aI6746
aI6747
aI6748
aI6749
aI6750
aI6751
aI6752
aI6753
aI6754
aI6755
aI6756
aI6757
aI6758
aI6759
aI6760
aI6761
aI6762
aI6763
aI6764
aI6765
aI6766
aI6767
aI6768
aI6769
aI6770
aI6771
aI6772
aI6773
aI6774
aI6775
aI6776
aI6777
aI6778
aI6779
aI6780
aI6781
aI6782
aI6783
aI6784
aI6785
aI6786
aI6787
aI6788
aI6789
aI6790
aI6791
aI6792
aI6793
aI6794
aI6795
aI6796
aI6797
aI6798
aI6799
aI6800
aI6801
aI6802
aI6803
aI6804
aI6805
aI6806
aI6807
aI6808
aI6809
aI6810
aI6811
aI6812
aI6813
aI6814
aI6815
aI6816
aI6817
aI6818
aI6819
aI6820
aI6821
aI6822
aI6823
aI6824
aI6825
aI6826
aI6827
aI6828
aI6829
aI6830
aI6831
aI6832
aI6833
aI6834
aI6835
aI6836
aI6837
aI6838
aI6839
aI6840
aI6841
aI6842
aI6843
aI6844
aI6845
aI6846
aI6847
aI6848
aI6849
aI6850
aI6851
aI6852
aI6853
aI6854
aI6855
aI6856
aI6857
aI6858
aI6859
aI6860
aI6861
aI6862
aI6863
aI6864
aI6865
aI6866
aI6867
aI6868
aI6869
aI6870
aI6871
aI6872
aI6873
aI6874
aI6875
aI6876
aI6877
aI6878
aI6879
aI6880
aI6881
aI6882
aI6883
aI6884
aI6885
aI6886
aI6887
aI6888
aI6889
aI6890
aI6891
aI6892
aI6893
aI6894
aI6895
aI6896
aI6897
aI6898
aI6899
aI6900
aI6901
aI6902
aI6903
aI6904
aI6905
aI6906
aI6907
aI6908
aI6909
aI6910
aI6911
aI6912
aI6913
aI6914
aI6915
aI6916
aI6917
aI6918
aI6919
aI6920
aI6921
aI6922
aI6923
aI6924
aI6925
aI6926
aI6927
aI6928
aI6929
aI6930
aI6931
aI6932
aI6933
aI6934
aI6935
aI6936
aI6937
aI6938
aI6939
aI6940
aI6941
aI6942
aI6943
aI6944
aI6945
aI6946
aI6947
aI6948
aI6949
aI6950
aI6951
aI6952
aI6953
aI6954
aI6955
aI6956
aI6957
aI6958
aI6959
aI6960
aI6961
aI6962
aI6963
aI6964
aI6965
aI6966
aI6967
aI6968
aI6969
aI6970
aI6971
aI6972
aI6973
aI6974
aI6975
aI6976
aI6977
aI6978
aI6979
aI6980
aI6981
aI6982
aI6983
aI6984
aI6985
aI6986
aI6987
aI6988
aI6989
aI6990
aI6991
aI6992
aI6993
aI6994
aI6995
aI6996
aI6997
aI6998
aI6999
aI7000
aI7001
aI7002
aI7003
aI7004
aI7005
aI7006
aI7007
aI7008
aI7009
aI7010
aI7011
aI7012
aI7013
aI7014
aI7015
aI7016
aI7017
aI7018
aI7019
aI7020
aI7021
aI7022
aI7023
aI7024
aI7025
aI7026
aI7027
aI7028
aI7029
aI7030
aI7031
aI7032
aI7033
aI7034
aI7035
aI7036
aI7037
aI7038
aI7039
aI7040
aI7041
aI7042
aI7043
aI7044
aI7045
aI7046
aI7047
aI7048
aI7049
aI7050
aI7051
aI7052
aI7053
aI7054
aI7055
aI7056
aI7057
aI7058
aI7059
aI7060
aI7061
aI7062
aI7063
aI7064
aI7065
aI7066
aI7067
aI7068
aI7069
aI7070
aI7071
aI7072
aI7073
aI7074
aI7075
aI7076
aI7077
aI7078
aI7079
aI7080
aI7081
aI7082
aI7083
aI7084
aI7085
aI7086
aI7087
aI7088
aI7089
aI7090
aI7091
aI7092
aI7093
aI7094
aI7095
aI7096
aI7097
aI7098
aI7099
aI7100
aI7101
aI7102
aI7103
aI7104
aI7105
aI7106
aI7107
aI7108
aI7109
aI7110
aI7111
aI7112
aI7113
aI7114
aI7115
aI7116
aI7117
aI7118
aI7119
aI7120
aI7121
aI7122
aI7123
aI7124
aI7125
aI7126
aI7127
aI7128
aI7129
aI7130
aI7131
aI7132
aI7133
aI7134
aI7135
aI7136
aI7137
aI7138
aI7139
aI7140
aI7141
aI7142
aI7143
aI7144
aI7145
aI7146
aI7147
aI7148
aI7149
aI7150
aI7151
aI7152
aI7153
aI7154
aI7155
aI7156
aI7157
aI7158
aI7159
aI7160
aI7161
aI7162
aI7163
aI7164
aI7165
aI7166
aI7167
aI7168
aI7169
aI7170
aI7171
aI7172
aI7173
aI7174
aI7175
aI7176
aI7177
aI7178
aI7179
aI7180
aI7181
aI7182
aI7183
aI7184
aI7185
aI7186
aI7187
aI7188
aI7189
aI7190
aI7191
aI7192
aI7193
aI7194
aI7195
aI7196
aI7197
aI7198
aI7199
aI7200
aI7201
aI7202
aI7203
aI7204
aI7205
aI7206
aI7207
aI7208
aI7209
aI7210
aI7211
aI7212
aI7213
aI7214
aI7215
aI7216
aI7217
aI7218
aI7219
aI7220
aI7221
aI7222
aI7223
aI7224
aI7225
aI7226
aI7227
aI7228
aI7229
aI7230
aI7231
aI7232
aI7233
aI7234
aI7235
aI7236
aI7237
aI7238
aI7239
aI7240
aI7241
aI7242
aI7243
aI7244
aI7245
aI7246
aI7247
aI7248
aI7249
aI7250
aI7251
aI7252
aI7253
aI7254
aI7255
aI7256
aI7257
aI7258
aI7259
aI7260
aI7261
aI7262
aI7263
aI7264
aI7265
aI7266
aI7267
aI7268
aI7269
aI7270
aI7271
aI7272
aI7273
aI7274
aI7275
aI7276
aI7277
aI7278
aI7279
aI7280
aI7281
aI7282
aI7283
aI7284
aI7285
aI7286
aI7287
aI7288
aI7289
aI7290
aI7291
aI7292
aI7293
aI7294
aI7295
aI7296
aI7297
aI7298
aI7299
aI7300
aI7301
aI7302
aI7303
aI7304
aI7305
aI7306
aI7307
aI7308
aI7309
aI7310
aI7311
aI7312
aI7313
aI7314
aI7315
aI7316
aI7317
aI7318
aI7319
aI7320
aI7321
aI7322
aI7323
aI7324
aI7325
aI7326
aI7327
aI7328
aI7329
aI7330
aI7331
aI7332
aI7333
aI7334
aI7335
aI7336
aI7337
aI7338
aI7339
aI7340
aI7341
aI7342
aI7343
aI7344
aI7345
aI7346
aI7347
aI7348
aI7349
aI7350
aI7351
aI7352
aI7353
aI7354
aI7355
aI7356
aI7357
aI7358
aI7359
aI7360
aI7361
aI7362
aI7363
aI7364
aI7365
aI7366
aI7367
aI7368
aI7369
aI7370
aI7371
aI7372
aI7373
aI7374
aI7375
aI7376
aI7377
aI7378
aI7379
aI7380
aI7381
aI7382
aI7383
aI7384
aI7385
aI7386
aI7387
aI7388
aI7389
aI7390
aI7391
aI7392
aI7393
aI7394
aI7395
aI7396
aI7397
aI7398
aI7399
aI7400
aI7401
aI7402
aI7403
aI7404
aI7405
aI7406
aI7407
aI7408
aI7409
aI7410
aI7411
aI7412
aI7413
aI7414
aI7415
aI7416
aI7417
aI7418
aI7419
aI7420
aI7421
aI7422
aI7423
aI7424
aI7425
aI7426
aI7427
aI7428
aI7429
aI7430
aI7431
aI7432
aI7433
aI7434
aI7435
aI7436
aI7437
aI7438
aI7439
aI7440
aI7441
aI7442
aI7443
aI7444
aI7445
aI7446
aI7447
aI7448
aI7449
aI7450
aI7451
aI7452
aI7453
aI7454
aI7455
aI7456
aI7457
aI7458
aI7459
aI7460
aI7461
aI7462
aI7463
aI7464
aI7465
aI7466
aI7467
aI7468
aI7469
aI7470
aI7471
aI7472
aI7473
aI7474
aI7475
aI7476
aI7477
aI7478
aI7479
aI7480
aI7481
aI7482
aI7483
aI7484
aI7485
aI7486
aI7487
aI7488
aI7489
aI7490
aI7491
aI7492
aI7493
aI7494
aI7495
aI7496
aI7497
aI7498
aI7499
aI7500
aI7501
aI7502
aI7503
aI7504
aI7505
aI7506
aI7507
aI7508
aI7509
aI7510
aI7511
aI7512
aI7513
aI7514
aI7515
aI7516
aI7517
aI7518
aI7519
aI7520
aI7521
aI7522
aI7523
aI7524
aI7525
aI7526
aI7527
aI7528
aI7529
aI7530
aI7531
aI7532
aI7533
aI7534
aI7535
aI7536
aI7537
aI7538
aI7539
aI7540
aI7541
aI7542
aI7543
aI7544
aI7545
aI7546
aI7547
aI7548
aI7549
aI7550
aI7551
aI7552
aI7553
aI7554
aI7555
aI7556
aI7557
aI7558
aI7559
aI7560
aI7561
aI7562
aI7563
aI7564
aI7565
aI7566
aI7567
aI7568
aI7569
aI7570
aI7571
aI7572
aI7573
aI7574
aI7575
aI7576
aI7577
aI7578
aI7579
aI7580
aI7581
aI7582
aI7583
aI7584
aI7585
aI7586
aI7587
aI7588
aI7589
aI7590
aI7591
aI7592
aI7593
aI7594
aI7595
aI7596
aI7597
aI7598
aI7599
aI7600
aI7601
aI7602
aI7603
aI7604
aI7605
aI7606
aI7607
aI7608
aI7609
aI7610
aI7611
aI7612
aI7613
aI7614
aI7615
aI7616
aI7617
aI7618
aI7619
aI7620
aI7621
aI7622
aI7623
aI7624
aI7625
aI7626
aI7627
aI7628
aI7629
aI7630
aI7631
aI7632
aI7633
aI7634
aI7635
aI7636
aI7637
aI7638
aI7639
aI7640
aI7641
aI7642
aI7643
aI7644
aI7645
aI7646
aI7647
aI7648
aI7649
aI7650
aI7651
aI7652
aI7669
aI7670
aI7671
aI7672
aI7673
aI7674
aI7675
aI7676
aI7677
aI7678
aI7679
aI7680
aI7681
aI7688
aI7689
aI7690
aI7691
aI7692
aI7693
aI7694
aI7695
aI7696
aI7697
aI7698
aI7699
aI7700
aI7701
aI7702
aI7703
aI7704
aI7705
aI7706
aI7707
aI7708
aI7709
aI7710
aI7711
aI7712
aI7713
aI7714
aI7715
aI7716
aI7717
aI7718
aI7719
aI7720
aI7721
aI7722
aI7723
aI7724
aI7725
aI7726
aI7727
aI7728
aI7729
aI7730
aI7731
aI7732
aI7733
aI7734
aI7735
aI7736
aI7737
aI7738
aI7739
aI7740
aI7741
aI7742
aI7743
aI7744
aI7745
aI7746
aI7747
aI7748
aI7749
aI7750
aI7751
aI7752
aI7753
aI7754
aI7755
aI7756
aI7757
aI7758
aI7759
aI7760
aI7761
aI7762
aI7763
aI7764
aI7765
aI7766
aI7767
aI7768
aI7769
aI7770
aI7771
aI7772
aI7773
aI7774
aI7775
aI7776
aI7777
aI7778
aI7779
aI7780
aI7781
aI7782
aI7783
aI7784
aI7785
aI7786
aI7787
aI7788
aI7789
aI7790
aI7791
aI7792
aI7793
aI7794
aI7795
aI7796
aI7797
aI7798
aI7799
aI7800
aI7801
aI7802
aI7803
aI7804
aI7805
aI7806
aI7807
aI7808
aI7809
aI7810
aI7811
aI7812
aI7813
aI7814
aI7815
aI7816
aI7817
aI7818
aI7819
aI7820
aI7821
aI7822
aI7823
aI7824
aI7825
aI7826
aI7827
aI7828
aI7829
aI7830
aI7831
aI7832
aI7833
aI7834
aI7835
aI7836
aI7837
aI7838
aI7839
aI7840
aI7841
aI7842
aI7843
aI7844
aI7845
aI7846
aI7847
aI7848
aI7849
aI7853
aI7854
aI7855
aI7856
aI7857
aI7858
aI7859
aI7860
aI7861
aI7862
aI7863
aI7864
aI7865
aI7869
aI7870
aI7871
aI7872
aI7873
aI7874
aI7875
aI7876
aI7877
aI7878
aI7879
aI7880
aI7881
aI7882
aI7883
aI7884
aI7885
aI7886
aI7887
aI7888
aI7889
aI7890
aI7891
aI7892
aI7893
aI7894
aI7895
aI7896
aI7897
aI7898
aI7899
aI7900
aI7901
aI7902
aI7903
aI7904
aI7905
aI7906
aI7907
aI7908
aI7909
aI7910
aI7911
a.(lp0
I1832
aI1840
aI1840
aI1836
aI1836
aI1792
aI1784
aI1780
aI1780
aI1772
aI1772
aI1808
aI1820
aI1824
aI1824
aI1824
aI1824
aI1824
aI1824
aI1824
aI1824
aI1824
aI1828
aI1828
aI1828
aI1828
aI1828
aI1828
aI1828
aI1828
aI1828
aI1828
aI1828
aI1828
aI1828
aI1828
aI1828
aI1828
aI1828
aI1824
aI1816
aI1816
aI1816
aI1816
aI1816
aI1824
aI1828
aI1828
aI1828
aI1828
aI1828
aI1828
aI1828
aI1828
aI1832
aI1836
aI1836
aI1836
aI1836
aI1836
aI1836
aI1836
aI1840
aI1844
aI1844
aI1872
aI1876
aI1876
aI1896
aI1896
aI1896
aI1896
aI1900
aI1900
aI1916
aI1944
aI1944
aI1944
aI1928
aI1888
aI1876
aI1856
aI1824
aI1816
aI1812
aI1812
aI1848
aI1864
aI1868
aI1868
aI1868
aI1856
aI1864
aI1876
aI1876
aI1876
aI1876
aI1860
aI1856
aI1856
aI1856
aI1856
aI1856
aI1852
aI1852
aI1884
aI1892
aI1892
aI1892
aI1944
aI1960
aI1976
aI1980
aI1992
aI2024
aI2024
aI1996
aI1980
aI1964
aI1936
aI1932
aI1928
aI1928
aI1928
aI1928
aI1928
aI1928
aI1928
aI1928
aI1928
aI1928
aI1928
aI1928
aI1928
aI1928
aI1928
aI1928
aI1884
aI1884
aI1880
aI1892
aI1904
aI1900
aI1888
aI1884
aI1876
aI1868
aI1868
aI1864
aI1852
aI1844
aI1872
aI1892
aI1892
aI1908
aI1940
aI1980
aI2008
aI2008
aI2008
aI2008
aI2008
aI2000
aI1992
aI1976
aI1976
aI1956
aI1952
aI1948
aI1924
aI1904
aI1880
aI1876
aI1860
aI1852
aI1828
aI1820
aI1820
aI1812
aI1812
aI1812
aI1808
aI1808
aI1808
aI1808
aI1808
aI1812
aI1820
aI1828
aI1828
aI1828
aI1828
aI1828
aI1828
aI1828
aI1836
aI1840
aI1852
aI1856
aI1860
aI1864
aI1868
aI1876
aI1876
aI1876
aI1876
aI1876
aI1876
aI1876
aI1876
aI1876
aI1876
aI1876
aI1876
aI1876
aI1876
aI1876
aI1876
aI1876
aI1876
aI1876
aI1876
aI1876
aI1876
aI1876
aI1876
aI1876
aI1880
aI1888
aI1892
aI1892
aI1892
aI1896
aI1900
aI1900
aI1900
aI1900
aI1900
aI1900
aI1900
aI1900
aI1900
aI1900
aI1900
aI1904
aI1904
aI1904
aI1904
aI1904
aI1904
aI1904
aI1904
aI1904
aI1904
aI1904
aI1904
aI1904
aI1904
aI1904
aI1904
aI1904
aI1904
aI1904
aI1904
aI1904
aI1904
aI1904
aI1904
aI1904
aI1904
aI1904
aI1904
aI1904
aI1904
aI1904
aI1904
aI1904
aI1904
aI1904
aI1904
aI1904
aI1904
aI1904
aI1904
aI1904
aI1904
aI1904
aI1904
aI1904
aI1904
aI1904
aI1904
aI1904
aI1904
aI1904
aI1904
aI1904
aI1904
aI1904
aI1904
aI1904
aI1904
aI1904
aI1904
aI1904
aI1904
aI1904
aI1904
aI1904
aI1908
aI1912
aI1912
aI1912
aI1912
aI1912
aI1908
aI1904
aI1904
aI1904
aI1904
aI1904
aI1904
aI1904
aI1904
aI1904
aI1904
aI1904
aI1904
aI1904
aI1904
aI1904
aI1904
aI1904
aI1904
aI1904
aI1904
aI1904
aI1904
aI1904
aI1904
aI1904
aI1904
aI1904
aI1904
aI1904
aI1900
aI1900
aI1896
aI1884
aI1864
aI1860
aI1860
aI1860
aI1856
aI1844
aI1824
aI1820
aI1820
aI1820
aI1820
aI1820
aI1820
aI1820
aI1820
aI1820
aI1820
aI1820
aI1820
aI1820
aI1820
aI1828
aI1836
aI1844
aI1908
aI1908
aI1908
aI1908
aI1908
aI1908
aI1892
aI1892
aI1892
aI1892
aI1892
aI1892
aI1892
aI1892
aI1892
aI1892
aI1892
aI1892
aI1892
aI1892
aI1892
aI1892
aI1892
aI1892
aI1892
aI1892
aI1892
aI1892
aI1892
aI1892
aI1892
aI1892
aI1892
aI1892
aI1876
aI1868
aI1868
aI1848
aI1844
aI1832
aI1828
aI1828
aI1832
aI1872
aI1892
aI1900
aI1912
aI1936
aI1940
aI1936
aI1936
aI1952
aI1952
aI1952
aI1952
aI1956
aI1960
aI1960
aI1948
aI1936
aI1932
aI1928
aI1924
aI1920
aI1920
aI1916
aI1912
aI1904
aI1900
aI1896
aI1892
aI1892
aI1892
aI1884
aI1880
aI1880
aI1880
aI1880
aI1880
aI1880
aI1884
aI1892
aI1912
aI1924
aI1928
aI1932
aI1936
aI1936
aI1940
aI1940
aI1940
aI1940
aI1940
aI1940
aI1940
aI1940
aI1940
aI1948
aI1960
aI1960
aI1960
aI1944
aI1928
aI1904
aI1884
aI1876
aI1868
aI1864
aI1860
aI1860
aI1852
aI1852
aI1848
aI1848
aI1848
aI1876
aI1892
aI1908
aI1924
aI1932
aI1964
aI1976
aI1984
aI1996
aI2008
aI2036
aI2048
aI2048
aI2048
aI2048
aI2044
aI2044
aI2044
aI2044
aI2044
aI2044
aI2044
aI2044
aI2044
aI2036
aI2032
aI2024
aI2020
aI2020
aI2020
aI2020
aI2020
aI2020
aI2020
aI2020
aI2020
aI2020
aI2020
aI2020
aI2032
aI2044
aI2068
aI2068
aI2068
aI2068
aI2068
aI2068
aI2068
aI2068
aI2068
aI2068
aI2068
aI2068
aI2068
aI2068
aI2068
aI2076
aI2092
aI2100
aI2108
aI2108
aI2112
aI2112
aI2112
aI2088
aI2080
aI2076
aI2076
aI2076
aI2076
aI2076
aI2076
aI2076
aI2076
aI2076
aI2076
aI2076
aI2076
aI2076
aI2076
aI2076
aI2076
aI2076
aI2076
aI2076
aI2076
aI2076
aI2076
aI2084
aI2084
aI2088
aI2092
aI2092
aI2104
aI2108
aI2112
aI2112
aI2112
aI2112
aI2112
aI2112
aI2112
aI2112
aI2112
aI2112
aI2112
aI2112
aI2112
aI2112
aI2112
aI2112
aI2112
aI2112
aI2112
aI2112
aI2112
aI2116
aI2136
aI2152
aI2164
aI2176
aI2176
aI2176
aI2176
aI2176
aI2176
aI2176
aI2176
aI2176
aI2168
aI2168
aI2168
aI2168
aI2168
aI2168
aI2168
aI2168
aI2168
aI2168
aI2168
aI2168
aI2168
aI2168
aI2168
aI2156
aI2152
aI2152
aI2152
aI2152
aI2148
aI2144
aI2144
aI2144
aI2144
aI2144
aI2144
aI2144
aI2144
aI2144
aI2144
aI2148
aI2100
aI2092
aI2092
aI2092
aI2092
aI2092
aI2092
aI2084
aI2108
aI2096
aI2096
aI2096
aI2092
aI2092
aI2092
aI2092
aI2092
aI2092
aI2092
aI2092
aI2096
aI2104
aI2108
aI2108
aI2108
aI2108
aI2108
aI2108
aI2108
aI2108
aI2108
aI2108
aI2108
aI2108
aI2108
aI2108
aI2108
aI2108
aI2112
aI2112
aI2112
aI2112
aI2112
aI2112
aI2112
aI2112
aI2112
aI2112
aI2112
aI2112
aI2112
aI2112
aI2104
aI2100
aI2096
aI2092
aI2088
aI2088
aI2088
aI2088
aI2088
aI2088
aI2088
aI2088
aI2088
aI2088
aI2088
aI2088
aI2088
aI2088
aI2088
aI2088
aI2088
aI2088
aI2084
aI2080
aI2068
aI2060
aI2052
aI2044
aI2044
aI2044
aI2052
aI2076
aI2100
aI2100
aI2116
aI2132
aI2132
aI2120
aI2108
aI2096
aI2080
aI2056
aI2036
aI2008
aI1976
aI1960
aI1968
aI2000
aI2040
aI2080
aI2100
aI2100
aI2068
aI2044
aI2008
aI1976
aI1952
aI1944
aI1936
aI1936
aI1968
aI2044
aI2104
aI2140
aI2136
aI2092
aI2044
aI1984
aI1944
aI1936
aI1948
aI1976
aI2004
aI2056
aI2084
aI2088
aI2064
aI2036
aI2000
aI1956
aI1940
aI1932
aI1948
aI1968
aI2028
aI2056
aI2068
aI2048
aI2000
aI1960
aI1920
aI1900
aI1892
aI1916
aI1940
aI1988
aI2036
aI2068
aI2052
aI2000
aI1960
aI1924
aI1908
aI1900
aI1916
aI1948
aI1988
aI2008
aI2004
aI1924
aI1868
aI1872
aI1888
aI1908
aI1972
aI2016
aI2016
aI1976
aI1912
aI1876
aI1880
aI1900
aI1940
aI2000
aI2048
aI2044
aI1960
aI1912
aI1888
aI1924
aI1984
aI2016
aI2036
aI2040
aI1984
aI1928
aI1900
aI1904
aI1956
aI1960
aI1992
aI2012
aI1992
aI1936
aI1888
aI1856
aI1860
aI1916
aI2008
aI2048
aI2036
aI1980
aI1932
aI1924
aI1968
aI2024
aI2076
aI2072
aI1996
aI1936
aI1912
aI1968
aI2028
aI2068
aI2076
aI2016
aI1952
aI1936
aI1952
aI1976
aI2044
aI2068
aI2068
aI2028
aI1960
aI1928
aI1968
aI2012
aI2068
aI2044
aI1968
aI1928
aI1924
aI1980
aI2044
aI2064
aI2004
aI1944
aI1920
aI1920
aI2016
aI2068
aI2028
aI1936
aI1900
aI1936
aI2008
aI2044
aI2032
aI1984
aI1952
aI1944
aI2000
aI2040
aI2004
aI1936
aI1908
aI1916
aI1996
aI2068
aI2052
aI2012
aI2000
aI1984
aI2008
aI2060
aI2060
aI2056
aI2060
aI2124
aI2108
aI2084
aI2072
aI2068
aI2056
aI2056
aI2064
aI2064
aI2064
aI2064
aI2104
aI2124
aI2124
aI2124
aI2124
aI2124
aI2124
aI2124
aI2124
aI2124
aI2124
aI2124
aI2128
aI2128
aI2128
aI2128
aI2128
aI2128
aI2128
aI2124
aI2124
aI2124
aI2124
aI2124
aI2120
aI2120
aI2120
aI2116
aI2116
aI2112
aI2112
aI2108
aI2108
aI2108
aI2108
aI2108
aI2108
aI2108
aI2108
aI2108
aI2108
aI2124
aI2124
aI2124
aI2124
aI2124
aI2124
aI2124
aI2124
aI2124
aI2124
aI2124
aI2116
aI2112
aI2108
aI2108
aI2108
aI2108
aI2100
aI2088
aI2084
aI2084
aI2084
aI2084
aI2084
aI2084
aI2084
aI2084
aI2084
aI2084
aI2084
aI2084
aI2084
aI2084
aI2084
aI2084
aI2084
aI2084
aI2084
aI2084
aI2084
aI2084
aI2084
aI2084
aI2084
aI2084
aI2084
aI2084
aI2084
aI2084
aI2084
aI2084
aI2084
aI2084
aI2084
aI2084
aI2084
aI2084
aI2084
aI2084
aI2084
aI2084
aI2084
aI2084
aI2084
aI2084
aI2084
aI2100
aI2124
aI2132
aI2132
aI2132
aI2132
aI2132
aI2132
aI2132
aI2132
aI2132
aI2132
aI2132
aI2132
aI2132
aI2132
aI2132
aI2132
aI2132
aI2132
aI2132
aI2132
aI2132
aI2132
aI2132
aI2132
aI2132
aI2132
aI2132
aI2132
aI2132
aI2132
aI2132
aI2132
aI2132
aI2132
aI2132
aI2132
aI2132
aI2132
aI2132
aI2132
aI2132
aI2132
aI2132
aI2132
aI2132
aI2132
aI2132
aI2132
aI2132
aI2132
aI2132
aI2132
aI2132
aI2132
aI2132
aI2132
aI2132
aI2132
aI2132
aI2132
aI2132
aI2132
aI2132
aI2132
aI2132
aI2132
aI2132
aI2132
aI2132
aI2132
aI2132
aI2132
aI2132
aI2132
aI2132
aI2132
aI2132
aI2132
aI2132
aI2132
aI2132
aI2140
aI2176
aI2244
aI2300
aI2336
aI2392
aI2392
aI2384
aI2376
aI2376
aI2376
aI2360
aI2316
aI2204
aI2088
aI2000
aI1924
aI1928
aI2060
aI2216
aI2296
aI2316
aI2320
aI2320
aI2316
aI2316
aI2316
aI2316
aI2300
aI2268
aI2236
aI2196
aI2192
aI2180
aI2172
aI2140
aI2124
aI2116
aI2116
aI2144
aI2164
aI2164
aI2164
aI2164
aI2164
aI2164
aI2164
aI2164
aI2164
aI2164
aI2164
aI2164
aI2164
aI2164
aI2164
aI2164
aI2164
aI2164
aI2164
aI2232
aI2232
aI2224
aI2216
aI2212
aI2212
aI2208
aI2208
aI2216
aI2224
aI2240
aI2284
aI2284
aI2288
aI2288
aI2288
aI2288
aI2288
aI2288
aI2288
aI2288
aI2288
aI2288
aI2288
aI2292
aI2300
aI2300
aI2300
aI2300
aI2300
aI2300
aI2300
aI2300
aI2300
aI2300
aI2300
aI2300
aI2300
aI2300
aI2300
aI2300
aI2300
aI2300
aI2300
aI2300
aI2300
aI2300
aI2300
aI2300
aI2300
aI2300
aI2300
aI2300
aI2300
aI2300
aI2300
aI2300
aI2300
aI2300
aI2300
aI2300
aI2300
aI2300
aI2300
aI2300
aI2300
aI2300
aI2300
aI2300
aI2300
aI2300
aI2300
aI2300
aI2300
aI2300
aI2300
aI2300
aI2300
aI2300
aI2300
aI2300
aI2300
aI2300
aI2300
aI2300
aI2300
aI2300
aI2300
aI2300
aI2300
aI2300
aI2300
aI2300
aI2300
aI2308
aI2360
aI2392
aI2412
aI2424
aI2424
aI2424
aI2416
aI2416
aI2416
aI2416
aI2416
aI2416
aI2440
aI2508
aI2524
aI2560
aI2576
aI2592
aI2596
aI2596
aI2584
aI2584
aI2584
aI2584
aI2584
aI2584
aI2584
aI2584
aI2584
aI2584
aI2584
aI2584
aI2584
aI2568
aI2568
aI2568
aI2576
aI2580
aI2580
aI2580
aI2580
aI2584
aI2584
aI2580
aI2576
aI2568
aI2568
aI2568
aI2568
aI2568
aI2568
aI2568
aI2568
aI2548
aI2532
aI2476
aI2428
aI2380
aI2332
aI2300
aI2244
aI2232
aI2232
aI2292
aI2308
aI2344
aI2440
aI2536
aI2640
aI2720
aI2768
aI2772
aI2732
aI2648
aI2532
aI2444
aI2380
aI2332
aI2340
aI2432
aI2564
aI2632
aI2676
aI2656
aI2576
aI2488
aI2436
aI2372
aI2300
aI2252
aI2252
aI2600
aI2592
aI2560
aI2484
aI2440
aI2420
aI2416
aI2416
aI2416
aI2416
aI2432
aI2440
aI2448
aI2448
aI2448
aI2448
aI2448
aI2448
aI2448
aI2448
aI2448
aI2448
aI2448
aI2448
aI2448
aI2448
aI2448
aI2448
aI2448
aI2448
aI2448
aI2448
aI2448
aI2448
aI2448
aI2448
aI2448
aI2448
aI2448
aI2448
aI2448
aI2448
aI2448
aI2448
aI2448
aI2448
aI2448
aI2448
aI2448
aI2448
aI2448
aI2448
aI2448
aI2448
aI2448
aI2448
a.(lp0
I1052
aI1096
aI1096
aI1096
aI1096
aI1120
aI1128
aI1136
aI1140
aI1152
aI1160
aI1168
aI1176
aI1176
aI1176
aI1176
aI1176
aI1176
aI1176
aI1176
aI1176
aI1176
aI1176
aI1176
aI1176
aI1176
aI1168
aI1156
aI1144
aI1144
aI1144
aI1144
aI1144
aI1144
aI1144
aI1144
aI1140
aI1132
aI1128
aI1120
aI1108
aI1096
aI1096
aI1092
aI1084
aI1072
aI1068
aI1068
aI1068
aI1068
aI1068
aI1068
aI1068
aI1064
aI1048
aI1040
aI1040
aI1040
aI1040
aI1040
aI1040
aI1036
aI1028
aI1028
aI1028
aI1032
aI1032
aI1032
aI1032
aI1032
aI1032
aI1036
aI1032
aI1028
aI1028
aI1044
aI1044
aI1044
aI1064
aI1088
aI1100
aI1112
aI1120
aI1120
aI1124
aI1128
aI1172
aI1216
aI1228
aI1232
aI1252
aI1268
aI1304
aI1332
aI1352
aI1364
aI1376
aI1392
aI1392
aI1392
aI1392
aI1392
aI1392
aI1404
aI1428
aI1468
aI1476
aI1476
aI1476
aI1504
aI1512
aI1512
aI1512
aI1512
aI1520
aI1520
aI1520
aI1508
aI1488
aI1472
aI1468
aI1468
aI1468
aI1468
aI1468
aI1468
aI1468
aI1468
aI1468
aI1468
aI1468
aI1468
aI1468
aI1468
aI1468
aI1468
aI1468
aI1468
aI1468
aI1468
aI1460
aI1452
aI1452
aI1484
aI1520
aI1536
aI1544
aI1536
aI1516
aI1508
aI1504
aI1496
aI1480
aI1468
aI1440
aI1428
aI1416
aI1412
aI1412
aI1412
aI1412
aI1412
aI1388
aI1372
aI1368
aI1364
aI1344
aI1332
aI1332
aI1332
aI1328
aI1324
aI1324
aI1332
aI1336
aI1368
aI1376
aI1364
aI1320
aI1320
aI1360
aI1376
aI1380
aI1380
aI1380
aI1380
aI1384
aI1392
aI1408
aI1412
aI1412
aI1412
aI1412
aI1412
aI1412
aI1412
aI1404
aI1404
aI1404
aI1404
aI1404
aI1412
aI1416
aI1416
aI1416
aI1420
aI1420
aI1420
aI1420
aI1420
aI1420
aI1420
aI1420
aI1420
aI1420
aI1420
aI1420
aI1420
aI1420
aI1420
aI1420
aI1420
aI1420
aI1420
aI1420
aI1420
aI1420
aI1412
aI1404
aI1400
aI1392
aI1388
aI1380
aI1372
aI1372
aI1368
aI1368
aI1368
aI1368
aI1360
aI1352
aI1344
aI1336
aI1328
aI1320
aI1320
aI1320
aI1320
aI1320
aI1320
aI1320
aI1320
aI1320
aI1320
aI1320
aI1320
aI1320
aI1320
aI1320
aI1320
aI1320
aI1320
aI1320
aI1320
aI1320
aI1320
aI1320
aI1320
aI1320
aI1320
aI1320
aI1320
aI1320
aI1320
aI1320
aI1320
aI1320
aI1320
aI1320
aI1320
aI1320
aI1320
aI1320
aI1320
aI1320
aI1320
aI1320
aI1320
aI1320
aI1320
aI1320
aI1320
aI1320
aI1320
aI1320
aI1320
aI1320
aI1320
aI1320
aI1320
aI1320
aI1320
aI1320
aI1320
aI1320
aI1320
aI1320
aI1320
aI1320
aI1312
aI1300
aI1284
aI1268
aI1244
aI1228
aI1212
aI1212
aI1212
aI1212
aI1212
aI1212
aI1212
aI1212
aI1212
aI1212
aI1212
aI1212
aI1212
aI1212
aI1212
aI1212
aI1212
aI1212
aI1212
aI1212
aI1212
aI1212
aI1212
aI1212
aI1212
aI1212
aI1212
aI1212
aI1212
aI1212
aI1196
aI1196
aI1188
aI1188
aI1188
aI1188
aI1176
aI1168
aI1176
aI1188
aI1204
aI1204
aI1204
aI1204
aI1204
aI1204
aI1204
aI1204
aI1204
aI1204
aI1204
aI1204
aI1204
aI1204
aI1196
aI1176
aI1172
aI1168
aI1148
aI1148
aI1148
aI1148
aI1148
aI1144
aI1112
aI1112
aI1112
aI1112
aI1112
aI1112
aI1112
aI1112
aI1112
aI1112
aI1112
aI1112
aI1112
aI1112
aI1112
aI1112
aI1112
aI1112
aI1112
aI1112
aI1112
aI1112
aI1112
aI1112
aI1112
aI1112
aI1112
aI1112
aI1148
aI1152
aI1160
aI1188
aI1192
aI1204
aI1212
aI1212
aI1204
aI1204
aI1200
aI1200
aI1200
aI1196
aI1196
aI1192
aI1192
aI1176
aI1172
aI1168
aI1144
aI1120
aI1112
aI1104
aI1096
aI1076
aI1068
aI1068
aI1068
aI1064
aI1060
aI1060
aI1060
aI1052
aI1052
aI1044
aI1044
aI1036
aI1036
aI1036
aI1032
aI1032
aI1032
aI1032
aI1032
aI1032
aI1032
aI1028
aI1024
aI1020
aI1020
aI1016
aI1012
aI1012
aI1008
aI1008
aI1008
aI1008
aI1008
aI1008
aI1008
aI1008
aI1008
aI1012
aI1020
aI1024
aI1028
aI1036
aI1044
aI1044
aI1036
aI1040
aI1044
aI1048
aI1056
aI1076
aI1092
aI1100
aI1104
aI1104
aI1104
aI1104
aI1108
aI1112
aI1120
aI1120
aI1132
aI1136
aI1136
aI1140
aI1140
aI1140
aI1140
aI1140
aI1140
aI1140
aI1140
aI1140
aI1140
aI1140
aI1140
aI1140
aI1140
aI1140
aI1140
aI1152
aI1160
aI1180
aI1204
aI1204
aI1204
aI1204
aI1204
aI1204
aI1204
aI1204
aI1204
aI1204
aI1204
aI1204
aI1196
aI1188
aI1176
aI1176
aI1176
aI1176
aI1176
aI1176
aI1176
aI1176
aI1176
aI1176
aI1176
aI1176
aI1176
aI1176
aI1168
aI1152
aI1128
aI1116
aI1096
aI1080
aI1076
aI1076
aI1076
aI1072
aI1072
aI1072
aI1072
aI1072
aI1072
aI1072
aI1072
aI1072
aI1072
aI1072
aI1072
aI1072
aI1072
aI1072
aI1072
aI1072
aI1072
aI1072
aI1072
aI1072
aI1072
aI1072
aI1072
aI1068
aI1060
aI1060
aI1060
aI1052
aI1044
aI1036
aI1028
aI1028
aI1028
aI1028
aI1028
aI1028
aI1028
aI1028
aI1028
aI1028
aI1028
aI1028
aI1028
aI1028
aI1028
aI1028
aI1028
aI1028
aI1028
aI1028
aI1028
aI1024
aI1012
aI992
aI984
aI972
aI952
aI936
aI928
aI928
aI928
aI928
aI928
aI928
aI928
aI928
aI928
aI928
aI928
aI928
aI928
aI928
aI928
aI928
aI928
aI928
aI928
aI928
aI928
aI944
aI944
aI948
aI948
aI948
aI948
aI948
aI948
aI940
aI940
aI940
aI940
aI940
aI940
aI940
aI940
aI924
aI912
aI936
aI936
aI936
aI936
aI936
aI936
aI940
aI936
aI960
aI960
aI964
aI976
aI988
aI992
aI992
aI992
aI992
aI992
aI984
aI976
aI960
aI956
aI956
aI948
aI948
aI948
aI944
aI944
aI944
aI944
aI944
aI944
aI944
aI944
aI944
aI944
aI944
aI944
aI944
aI944
aI944
aI952
aI960
aI968
aI972
aI976
aI984
aI1000
aI1008
aI1016
aI1024
aI1028
aI1036
aI1044
aI1048
aI1056
aI1060
aI1060
aI1060
aI1060
aI1060
aI1060
aI1060
aI1064
aI1064
aI1064
aI1064
aI1064
aI1064
aI1064
aI1064
aI1064
aI1076
aI1080
aI1084
aI1088
aI1096
aI1104
aI1116
aI1120
aI1120
aI1112
aI1096
aI1096
aI1092
aI1068
aI1044
aI1008
aI964
aI936
aI928
aI924
aI932
aI944
aI960
aI984
aI1016
aI1060
aI1104
aI1116
aI1096
aI1048
aI1012
aI968
aI952
aI944
aI952
aI968
aI996
aI1028
aI1048
aI1072
aI1080
aI1080
aI1068
aI988
aI924
aI904
aI900
aI932
aI988
aI1012
aI1040
aI1052
aI1040
aI1004
aI940
aI892
aI876
aI872
aI892
aI916
aI956
aI992
aI1000
aI1000
aI976
aI960
aI912
aI880
aI872
aI884
aI912
aI956
aI980
aI1000
aI1008
aI988
aI956
aI908
aI888
aI888
aI904
aI920
aI944
aI972
aI980
aI976
aI920
aI876
aI844
aI872
aI920
aI960
aI972
aI972
aI944
aI888
aI844
aI844
aI900
aI944
aI952
aI952
aI948
aI920
aI876
aI844
aI864
aI896
aI936
aI944
aI944
aI916
aI880
aI844
aI852
aI888
aI920
aI944
aI944
aI928
aI888
aI844
aI824
aI836
aI888
aI928
aI952
aI936
aI904
aI848
aI828
aI852
aI904
aI952
aI952
aI932
aI868
aI852
aI864
aI920
aI964
aI964
aI936
aI868
aI844
aI868
aI924
aI988
aI1020
aI1012
aI984
aI960
aI912
aI904
aI984
aI1028
aI1020
aI980
aI912
aI932
aI964
aI1032
aI1064
aI1044
aI1004
aI980
aI1004
aI1044
aI1104
aI1112
aI1028
aI972
aI972
aI1020
aI1096
aI1112
aI1068
aI1012
aI1028
aI1048
aI1096
aI1108
aI1068
aI1008
aI1012
aI1040
aI1080
aI1108
aI1084
aI1028
aI1008
aI1016
aI1052
aI1080
aI1068
aI1016
aI996
aI988
aI960
aI976
aI996
aI1004
aI1008
aI1052
aI1052
aI1036
aI1028
aI1028
aI1028
aI1008
aI1004
aI1000
aI1000
aI1000
aI1000
aI1000
aI1000
aI1000
aI996
aI996
aI988
aI980
aI968
aI960
aI952
aI944
aI936
aI932
aI924
aI920
aI916
aI912
aI912
aI912
aI904
aI900
aI892
aI884
aI876
aI876
aI876
aI876
aI876
aI876
aI876
aI876
aI876
aI876
aI876
aI908
aI928
aI936
aI936
aI936
aI936
aI936
aI940
aI940
aI940
aI940
aI940
aI948
aI956
aI960
aI964
aI964
aI964
aI972
aI980
aI984
aI984
aI984
aI984
aI984
aI984
aI984
aI984
aI984
aI984
aI984
aI984
aI984
aI984
aI984
aI984
aI984
aI984
aI984
aI984
aI984
aI984
aI984
aI984
aI984
aI984
aI984
aI984
aI984
aI984
aI984
aI984
aI984
aI984
aI984
aI984
aI984
aI984
aI984
aI984
aI984
aI984
aI984
aI984
aI984
aI988
aI1024
aI1080
aI1116
aI1124
aI1124
aI1124
aI1124
aI1124
aI1124
aI1124
aI1124
aI1124
aI1124
aI1124
aI1124
aI1124
aI1124
aI1124
aI1124
aI1124
aI1124
aI1124
aI1124
aI1124
aI1124
aI1124
aI1124
aI1124
aI1124
aI1124
aI1124
aI1124
aI1124
aI1124
aI1124
aI1124
aI1124
aI1124
aI1124
aI1124
aI1124
aI1124
aI1124
aI1124
aI1124
aI1124
aI1124
aI1124
aI1124
aI1124
aI1124
aI1124
aI1124
aI1124
aI1124
aI1124
aI1124
aI1124
aI1124
aI1124
aI1124
aI1124
aI1124
aI1124
aI1124
aI1124
aI1124
aI1124
aI1124
aI1124
aI1124
aI1124
aI1124
aI1124
aI1124
aI1124
aI1124
aI1124
aI1124
aI1124
aI1124
aI1124
aI1124
aI1124
aI1120
aI1108
aI1108
aI1104
aI1100
aI1096
aI1096
aI1096
aI1096
aI1096
aI1096
aI1092
aI1092
aI1088
aI1092
aI1076
aI1068
aI1068
aI1072
aI1080
aI1080
aI1076
aI1076
aI1076
aI1076
aI1076
aI1076
aI1076
aI1068
aI1060
aI1052
aI1028
aI1024
aI1020
aI1028
aI1044
aI1056
aI1064
aI1064
aI1064
aI1068
aI1068
aI1068
aI1068
aI1068
aI1068
aI1068
aI1068
aI1068
aI1068
aI1068
aI1068
aI1068
aI1068
aI1068
aI1068
aI1068
aI1068
aI1068
aI1144
aI1184
aI1204
aI1212
aI1224
aI1228
aI1236
aI1244
aI1244
aI1248
aI1252
aI1252
aI1252
aI1248
aI1244
aI1244
aI1244
aI1244
aI1244
aI1244
aI1244
aI1244
aI1244
aI1256
aI1252
aI1236
aI1236
aI1232
aI1232
aI1232
aI1232
aI1232
aI1232
aI1232
aI1232
aI1232
aI1232
aI1232
aI1232
aI1232
aI1232
aI1232
aI1232
aI1232
aI1232
aI1232
aI1232
aI1232
aI1232
aI1232
aI1232
aI1232
aI1232
aI1232
aI1232
aI1232
aI1232
aI1232
aI1232
aI1232
aI1232
aI1232
aI1232
aI1232
aI1232
aI1232
aI1232
aI1232
aI1232
aI1232
aI1232
aI1232
aI1232
aI1232
aI1232
aI1232
aI1232
aI1232
aI1232
aI1232
aI1232
aI1232
aI1232
aI1232
aI1232
aI1232
aI1232
aI1232
aI1232
aI1232
aI1232
aI1232
aI1232
aI1232
aI1228
aI1224
aI1220
aI1220
aI1220
aI1220
aI1220
aI1220
aI1220
aI1220
aI1220
aI1220
aI1220
aI1212
aI1204
aI1196
aI1184
aI1172
aI1156
aI1144
aI1120
aI1096
aI1088
aI1088
aI1088
aI1088
aI1088
aI1088
aI1088
aI1088
aI1088
aI1088
aI1088
aI1088
aI1072
aI1068
aI1064
aI1040
aI1028
aI1020
aI1020
aI1020
aI1004
aI980
aI960
aI952
aI944
aI944
aI944
aI944
aI944
aI944
aI944
aI944
aI944
aI952
aI952
aI952
aI960
aI972
aI1000
aI1048
aI1064
aI1096
aI1172
aI1196
aI1220
aI1248
aI1244
aI1220
aI1208
aI1160
aI1096
aI1012
aI968
aI940
aI944
aI964
aI1080
aI1160
aI1220
aI1220
aI1152
aI1076
aI1004
aI928
aI912
aI908
aI944
aI1000
aI1108
aI1228
aI1252
aI1144
aI1120
aI1084
aI1120
aI1164
aI1176
aI1176
aI1176
aI1176
aI1220
aI1236
aI1252
aI1236
aI1232
aI1232
aI1232
aI1232
aI1232
aI1232
aI1232
aI1232
aI1232
aI1232
aI1232
aI1232
aI1232
aI1232
aI1232
aI1232
aI1232
aI1232
aI1232
aI1232
aI1232
aI1232
aI1232
aI1232
aI1232
aI1232
aI1232
aI1232
aI1232
aI1232
aI1232
aI1232
aI1232
aI1232
aI1232
aI1232
aI1232
aI1232
aI1232
aI1232
aI1232
aI1232
a.(lp0
I300
aI300
aI300
aI300
aI300
aI300
aI300
aI300
aI300
aI300
aI300
aI300
aI300
aI300
aI300
aI300
aI300
aI300
aI300
aI300
aI300
aI300
aI300
aI300
aI300
aI300
aI300
aI300
aI300
aI300
aI300
aI300
aI300
aI300
aI300
aI300
aI300
aI300
aI300
aI300
aI300
aI300
aI300
aI300
aI300
aI300
aI300
aI300
aI300
aI300
aI300
aI300
aI300
aI300
aI300
aI300
aI300
aI300
aI300
aI300
aI300
aI300
aI300
aI300
aI300
aI300
aI300
aI300
aI300
aI300
aI300
aI300
aI300
aI300
aI300
aI300
aI300
aI300
aI300
aI300
aI300
aI300
aI300
aI300
aI300
aI300
aI300
aI300
aI300
aI300
aI300
aI300
aI300
aI300
aI300
aI300
aI300
aI300
aI300
aI300
aI300
aI300
aI300
aI300
aI300
aI300
aI300
aI300
aI300
aI300
aI300
aI300
aI300
aI300
aI300
aI300
aI300
aI300
aI300
aI300
aI300
aI300
aI300
aI300
aI300
aI300
aI300
aI300
aI300
aI300
aI300
aI300
aI300
aI300
aI300
aI300
aI300
aI300
aI300
aI300
aI300
aI300
aI300
aI300
aI300
aI300
aI300
aI300
aI300
aI300
aI300
aI300
aI300
aI300
aI300
aI300
aI300
aI300
aI300
aI300
aI300
aI300
aI300
aI300
aI300
aI300
aI300
aI300
aI300
aI300
aI300
aI300
aI300
aI300
aI300
aI300
aI300
aI300
aI300
aI300
aI300
aI300
aI300
aI300
aI300
aI300
aI300
aI300
aI300
aI300
aI300
aI300
aI300
aI300
aI300
aI300
aI300
aI300
aI300
aI300
aI300
aI300
aI300
aI300
aI300
aI300
aI300
aI300
aI300
aI300
aI300
aI300
aI300
aI300
aI300
aI300
aI300
aI300
aI300
aI300
aI300
aI300
aI300
aI300
aI300
aI300
aI300
aI300
aI300
aI300
aI300
aI300
aI300
aI300
aI300
aI300
aI300
aI300
aI300
aI300
aI300
aI300
aI300
aI300
aI300
aI300
aI300
aI300
aI300
aI300
aI300
aI300
aI300
aI300
aI300
aI300
aI300
aI300
aI300
aI300
aI300
aI300
aI300
aI300
aI300
aI300
aI300
aI300
aI300
aI300
aI300
aI300
aI300
aI300
aI300
aI300
aI300
aI300
aI300
aI300
aI300
aI300
aI300
aI300
aI300
aI300
aI300
aI300
aI300
aI300
aI300
aI300
aI300
aI300
aI300
aI300
aI300
aI300
aI300
aI300
aI300
aI300
aI300
aI300
aI300
aI300
aI300
aI300
aI300
aI300
aI300
aI300
aI300
aI300
aI300
aI300
aI300
aI300
aI300
aI300
aI300
aI300
aI300
aI300
aI300
aI300
aI300
aI300
aI300
aI300
aI300
aI300
aI300
aI300
aI300
aI300
aI300
aI300
aI300
aI300
aI300
aI300
aI300
aI300
aI300
aI300
aI300
aI300
aI300
aI300
aI300
aI300
aI300
aI300
aI300
aI300
aI300
aI300
aI300
aI300
aI300
aI300
aI300
aI300
aI300
aI300
aI300
aI300
aI300
aI300
aI300
aI300
aI300
aI300
aI300
aI300
aI300
aI300
aI300
aI300
aI300
aI300
aI300
aI300
aI300
aI300
aI300
aI300
aI300
aI300
aI300
aI300
aI300
aI300
aI300
aI300
aI300
aI300
aI300
aI300
aI300
aI300
aI300
aI300
aI300
aI300
aI300
aI300
aI300
aI300
aI300
aI300
aI300
aI300
aI300
aI300
aI300
aI300
aI300
aI300
aI300
aI300
aI300
aI300
aI300
aI300
aI300
aI300
aI300
aI300
aI300
aI300
aI300
aI300
aI300
aI300
aI300
aI300
aI300
aI300
aI300
aI300
aI300
aI300
aI300
aI300
aI300
aI300
aI300
aI300
aI300
aI300
aI300
aI300
aI300
aI300
aI300
aI300
aI300
aI300
aI300
aI300
aI300
aI300
aI300
aI300
aI300
aI300
aI300
aI300
aI300
aI300
aI300
aI300
aI300
aI300
aI300
aI300
aI300
aI300
aI300
aI300
aI300
aI300
aI300
aI300
aI300
aI300
aI300
aI300
aI300
aI300
aI300
aI300
aI300
aI300
aI300
aI300
aI300
aI300
aI300
aI300
aI300
aI300
aI300
aI300
aI300
aI300
aI300
aI300
aI300
aI300
aI300
aI300
aI300
aI300
aI300
aI300
aI300
aI300
aI300
aI300
aI300
aI300
aI300
aI300
aI300
aI300
aI300
aI300
aI300
aI300
aI300
aI300
aI300
aI300
aI300
aI300
aI300
aI300
aI300
aI300
aI300
aI300
aI300
aI300
aI300
aI300
aI300
aI300
aI300
aI300
aI300
aI300
aI300
aI300
aI300
aI300
aI300
aI300
aI300
aI300
aI300
aI300
aI300
aI300
aI300
aI300
aI300
aI300
aI300
aI300
aI300
aI300
aI300
aI300
aI300
aI300
aI300
aI300
aI300
aI300
aI300
aI300
aI300
aI300
aI300
aI300
aI300
aI300
aI300
aI300
aI300
aI300
aI300
aI300
aI300
aI300
aI300
aI300
aI300
aI300
aI300
aI300
aI300
aI300
aI300
aI300
aI300
aI300
aI300
aI300
aI300
aI300
aI300
aI300
aI300
aI300
aI300
aI300
aI300
aI300
aI300
aI300
aI300
aI300
aI300
aI300
aI300
aI300
aI300
aI300
aI300
aI300
aI300
aI300
aI300
aI300
aI300
aI300
aI300
aI300
aI300
aI300
aI300
aI400
aI400
aI400
aI400
aI400
aI400
aI400
aI400
aI400
aI400
aI400
aI400
aI400
aI400
aI400
aI400
aI400
aI400
aI400
aI400
aI400
aI400
aI400
aI400
aI400
aI400
aI400
aI400
aI400
aI400
aI400
aI400
aI400
aI400
aI400
aI400
aI400
aI400
aI400
aI400
aI400
aI400
aI400
aI400
aI400
aI400
aI400
aI400
aI400
aI400
aI400
aI400
aI400
aI400
aI400
aI400
aI400
aI400
aI400
aI400
aI400
aI400
aI400
aI400
aI400
aI500
aI500
aI500
aI500
aI500
aI500
aI500
aI500
aI500
aI500
aI500
aI500
aI500
aI500
aI500
aI500
aI500
aI500
aI500
aI500
aI500
aI500
aI500
aI500
aI500
aI500
aI500
aI500
aI500
aI500
aI500
aI500
aI500
aI500
aI500
aI500
aI500
aI500
aI500
aI500
aI500
aI500
aI500
aI500
aI500
aI500
aI500
aI500
aI500
aI500
aI500
aI500
aI500
aI500
aI500
aI500
aI500
aI500
aI500
aI500
aI500
aI500
aI500
aI500
aI500
aI500
aI500
aI500
aI500
aI500
aI500
aI500
aI500
aI500
aI500
aI600
aI600
aI600
aI600
aI600
aI600
aI600
aI600
aI600
aI600
aI600
aI600
aI600
aI600
aI600
aI600
aI600
aI600
aI600
aI600
aI600
aI600
aI600
aI600
aI600
aI600
aI600
aI600
aI600
aI600
aI600
aI600
aI600
aI600
aI600
aI600
aI600
aI700
aI700
aI700
aI700
aI700
aI700
aI700
aI700
aI700
aI700
aI700
aI700
aI700
aI700
aI700
aI700
aI700
aI700
aI700
aI700
aI700
aI700
aI700
aI700
aI700
aI700
aI700
aI700
aI700
aI700
aI700
aI700
aI700
aI700
aI800
aI800
aI800
aI800
aI800
aI800
aI800
aI800
aI800
aI800
aI800
aI800
aI800
aI800
aI800
aI800
aI800
aI800
aI800
aI800
aI800
aI800
aI800
aI800
aI800
aI800
aI800
aI800
aI800
aI800
aI800
aI800
aI800
aI800
aI800
aI800
aI800
aI800
aI800
aI800
aI800
aI800
aI800
aI800
aI800
aI800
aI800
aI800
aI900
aI900
aI900
aI900
aI900
aI900
aI900
aI900
aI900
aI900
aI900
aI900
aI900
aI900
aI900
aI900
aI900
aI900
aI900
aI900
aI900
aI900
aI900
aI900
aI900
aI900
aI900
aI900
aI900
aI900
aI900
aI900
aI900
aI900
aI900
aI900
aI900
aI900
aI900
aI900
aI900
aI900
aI900
aI900
aI900
aI900
aI900
aI900
aI900
aI900
aI900
aI900
aI900
aI900
aI900
aI900
aI900
aI900
aI900
aI900
aI900
aI900
aI900
aI900
aI900
aI900
aI900
aI900
aI900
aI900
aI900
aI900
aI900
aI1200
aI1200
aI1200
aI1200
aI1200
aI1200
aI1200
aI1200
aI1200
aI1200
aI1200
aI1200
aI1200
aI1200
aI1200
aI1200
aI1200
aI1200
aI1200
aI1200
aI1200
aI1200
aI1200
aI1200
aI1200
aI1200
aI1200
aI1200
aI1200
aI1200
aI1200
aI1200
aI1200
aI1200
aI1200
aI1200
aI1200
aI1200
aI1200
aI1200
aI1200
aI1200
aI1200
aI1200
aI1200
aI1200
aI1200
aI1200
aI1200
aI1200
aI1200
aI1200
aI1200
aI1200
aI1200
aI1200
aI1200
aI1200
aI1200
aI1200
aI1200
aI1200
aI1200
aI1200
aI1200
aI1200
aI1200
aI1200
aI1200
aI1200
aI1200
aI1200
aI1200
aI1200
aI1200
aI1200
aI1200
aI1200
aI1200
aI1200
aI1200
aI1200
aI1200
aI1200
aI1200
aI1200
aI1200
aI1200
aI1200
aI1200
aI1200
aI1200
aI1200
aI1200
aI1200
aI1200
aI1200
aI1200
aI1200
aI1200
aI1200
aI1200
aI1200
aI1200
aI1200
aI1200
aI1200
aI1200
aI1200
aI1200
aI1200
aI1200
aI1200
aI1200
aI1200
aI1200
aI1200
aI1200
aI1200
aI1200
aI1200
aI1200
aI1200
aI1200
aI1200
aI1200
aI1200
aI1200
aI1200
aI1200
aI1200
aI1200
aI1200
aI1200
aI1200
aI1200
aI1200
aI1200
aI1200
aI1200
aI1200
aI1200
aI1200
aI1200
aI1200
aI1200
aI1200
aI1200
aI1200
aI1200
aI1200
aI1200
aI1200
aI1200
aI1200
aI1200
aI1200
aI1200
aI1200
aI1200
aI1200
aI1200
aI1200
aI1200
aI1200
aI1200
aI1200
aI1200
aI1200
aI1200
aI1200
aI1200
aI1200
aI1200
aI1200
aI1200
aI1200
aI1200
aI1200
aI1200
aI1200
aI1200
aI1200
aI1200
aI1200
aI1200
aI1200
aI1200
aI1200
aI1200
aI1200
aI1200
aI1200
aI1200
aI1200
aI1200
aI1200
aI1200
aI1200
aI1200
aI1200
aI1200
aI1200
aI1200
aI1200
aI1200
aI1200
aI1200
aI1200
aI1200
aI1200
aI1200
aI1200
aI1200
aI1200
aI1200
aI1200
aI1200
aI1200
aI1200
aI1200
aI1200
aI1200
aI1200
aI1200
aI1200
aI1200
aI1200
aI1200
aI1200
aI1200
aI1200
aI1200
aI1200
aI1200
aI1200
aI1200
aI1200
aI1200
aI1200
aI1200
aI1200
aI1200
aI1200
aI1200
aI1200
aI1200
aI1200
aI1200
aI1200
aI1200
aI1200
aI1200
aI1200
aI1200
aI1200
aI1200
aI1200
aI1200
aI1200
aI1200
aI1200
aI1200
aI1200
aI1200
aI1200
aI1200
aI1200
aI1200
aI1200
aI1200
aI1200
aI1200
aI1200
aI1200
aI1200
aI1200
aI1200
aI1200
aI1200
aI1200
aI1200
aI1200
aI1200
aI1200
aI1200
aI1200
aI1200
aI1200
aI1200
aI1200
aI1200
aI1200
aI1200
aI1200
aI1200
aI1200
aI1200
aI1200
aI1200
aI1200
aI1200
aI1200
aI1200
aI1200
aI1200
aI1200
aI1200
aI1200
aI1200
aI1200
aI1200
aI1200
aI1200
aI1200
aI1200
aI1200
aI1200
aI1200
aI1200
aI1200
aI1200
aI1200
aI1200
aI1200
aI1200
aI1200
aI1200
aI1200
aI1200
aI1200
aI1200
aI1200
aI1200
aI1200
aI1200
aI1200
aI1200
aI1200
aI1200
aI1200
aI1200
aI1200
aI1200
aI1200
aI1200
aI1200
aI1200
aI1200
aI1200
aI1200
aI1200
aI1200
aI1200
aI1200
aI1200
aI1200
aI1200
aI1200
aI1200
aI1200
aI1200
aI1200
aI1200
aI1200
aI1200
aI1200
aI1200
aI1200
aI1200
aI1200
aI1200
aI1200
aI1200
aI1200
aI1200
aI1200
aI1200
aI1200
aI1200
aI1200
aI1200
aI1200
aI1200
aI1200
aI1200
aI1200
aI1200
aI1200
aI1200
aI1200
aI1200
aI1200
aI1200
aI1200
aI1200
aI1200
aI1200
aI1200
aI1200
aI1200
aI1200
aI1200
aI1200
aI1200
aI1200
aI1200
aI1200
aI1200
aI1200
aI1200
aI1200
aI1200
aI1200
aI1200
aI1200
aI1200
aI1200
aI1200
aI1200
aI1200
aI1200
aI1200
aI1200
aI1200
aI1200
aI1200
aI1200
aI1200
aI1200
aI1200
aI1200
aI1200
aI1200
aI1200
aI1200
aI1200
aI1200
aI1200
aI1200
aI1200
aI1200
aI1200
aI1200
aI1200
a.