(lp0
I2155
aI2156
aI2157
aI2158
aI2159
aI2160
aI2161
aI2162
aI2163
aI2164
aI2165
aI2166
aI2167
aI2168
aI2169
aI2170
aI2171
aI2172
aI2173
aI2174
aI2175
aI2176
aI2177
aI2178
aI2179
aI2180
aI2181
aI2182
aI2183
aI2184
aI2185
aI2186
aI2187
aI2188
aI2189
aI2190
aI2191
aI2192
aI2193
aI2194
aI2195
aI2196
aI2197
aI2198
aI2199
aI2200
aI2201
aI2202
aI2203
aI2204
aI2205
aI2206
aI2207
aI2208
aI2209
aI2210
aI2211
aI2212
aI2213
aI2214
aI2215
aI2216
aI2217
aI2218
aI2219
aI2220
aI2221
aI2222
aI2223
aI2224
aI2225
aI2226
aI2227
aI2228
aI2229
aI2230
aI2231
aI2232
aI2233
aI2234
aI2235
aI2236
aI2237
aI2238
aI2239
aI2240
aI2241
aI2242
aI2243
aI2244
aI2245
aI2246
aI2247
aI2248
aI2249
aI2250
aI2251
aI2252
aI2253
aI2254
aI2255
aI2256
aI2257
aI2258
aI2259
aI2260
aI2261
aI2262
aI2263
aI2264
aI2265
aI2266
aI2267
aI2268
aI2269
aI2270
aI2271
aI2272
aI2273
aI2274
aI2275
aI2276
aI2277
aI2278
aI2279
aI2280
aI2281
aI2282
aI2283
aI2284
aI2285
aI2286
aI2287
aI2288
aI2289
aI2290
aI2291
aI2292
aI2293
aI2294
aI2295
aI2296
aI2297
aI2298
aI2299
aI2300
aI2301
aI2302
aI2303
aI2304
aI2305
aI2306
aI2307
aI2308
aI2309
aI2310
aI2311
aI2312
aI2313
aI2314
aI2315
aI2316
aI2317
aI2318
aI2319
aI2320
aI2321
aI2322
aI2323
aI2324
aI2325
aI2326
aI2327
aI2328
aI2329
aI2330
aI2331
aI2332
aI2333
aI2334
aI2335
aI2336
aI2337
aI2338
aI2339
aI2340
aI2341
aI2342
aI2343
aI2344
aI2345
aI2346
aI2347
aI2348
aI2349
aI2350
aI2351
aI2352
aI2353
aI2354
aI2355
aI2356
aI2357
aI2358
aI2359
aI2360
aI2361
aI2362
aI2363
aI2364
aI2365
aI2366
aI2367
aI2368
aI2369
aI2370
aI2371
aI2372
aI2373
aI2374
aI2375
aI2376
aI2377
aI2378
aI2379
aI2380
aI2381
aI2382
aI2383
aI2384
aI2385
aI2386
aI2387
aI2388
aI2389
aI2390
aI2391
aI2392
aI2393
aI2394
aI2395
aI2396
aI2397
aI2398
aI2399
aI2400
aI2401
aI2402
aI2403
aI2404
aI2405
a.(lp0
I1536
aI1528
aI1520
aI1520
aI1540
aI1540
aI1540
aI1540
aI1540
aI1532
aI1532
aI1532
aI1532
aI1532
aI1544
aI1544
aI1556
aI1564
aI1560
aI1532
aI1528
aI1544
aI1556
aI1572
aI1572
aI1572
aI1572
aI1572
aI1572
aI1572
aI1572
aI1572
aI1572
aI1572
aI1560
aI1552
aI1552
aI1560
aI1576
aI1576
aI1576
aI1576
aI1576
aI1568
aI1544
aI1544
aI1544
aI1552
aI1552
aI1552
aI1556
aI1568
aI1568
aI1600
aI1612
aI1612
aI1596
aI1544
aI1516
aI1508
aI1516
aI1520
aI1536
aI1560
aI1576
aI1604
aI1616
aI1584
aI1568
aI1568
aI1576
aI1584
aI1584
aI1584
aI1584
aI1576
aI1576
aI1568
aI1548
aI1544
aI1560
aI1572
aI1576
aI1576
aI1576
aI1556
aI1560
aI1560
aI1568
aI1572
aI1572
aI1560
aI1552
aI1564
aI1584
aI1584
aI1560
aI1540
aI1520
aI1476
aI1472
aI1468
aI1468
aI1468
aI1468
aI1484
aI1504
aI1508
aI1508
aI1508
aI1508
aI1508
aI1508
aI1508
aI1508
aI1508
aI1512
aI1520
aI1536
aI1552
aI1560
aI1560
aI1556
aI1500
aI1476
aI1472
aI1472
aI1540
aI1588
aI1592
aI1592
aI1556
aI1520
aI1520
aI1520
aI1528
aI1552
aI1552
aI1552
aI1552
aI1552
aI1552
aI1548
aI1544
aI1544
aI1540
aI1528
aI1520
aI1520
aI1520
aI1520
aI1528
aI1544
aI1552
aI1556
aI1556
aI1504
aI1452
aI1432
aI1432
aI1444
aI1476
aI1504
aI1520
aI1536
aI1536
aI1536
aI1536
aI1536
aI1536
aI1536
aI1536
aI1536
aI1536
aI1536
aI1536
aI1536
aI1536
aI1556
aI1560
aI1548
aI1544
aI1544
aI1548
aI1548
aI1548
aI1548
aI1548
aI1560
aI1560
aI1560
aI1560
aI1564
aI1568
aI1568
aI1568
aI1568
aI1572
aI1580
aI1580
aI1580
aI1580
aI1580
aI1592
aI1596
aI1596
aI1596
aI1596
aI1596
aI1596
aI1596
aI1600
aI1600
aI1600
aI1600
aI1600
aI1600
aI1600
aI1592
aI1592
aI1592
aI1592
aI1592
aI1588
aI1584
aI1600
aI1612
aI1612
aI1612
aI1612
aI1608
aI1608
aI1608
aI1608
aI1608
aI1604
aI1604
aI1604
aI1604
aI1604
aI1604
aI1592
aI1584
aI1576
aI1564
aI1552
aI1552
aI1564
aI1564
aI1620
aI1644
a.(lp0
I944
aI960
aI976
aI976
aI956
aI956
aI956
aI956
aI956
aI956
aI956
aI956
aI956
aI956
aI980
aI980
aI1020
aI1152
aI1196
aI1340
aI1360
aI1412
aI1412
aI1384
aI1372
aI1360
aI1352
aI1352
aI1352
aI1352
aI1352
aI1352
aI1352
aI1352
aI1352
aI1352
aI1352
aI1352
aI1352
aI1352
aI1352
aI1352
aI1352
aI1360
aI1436
aI1436
aI1436
aI1436
aI1436
aI1436
aI1420
aI1404
aI1404
aI1400
aI1376
aI1376
aI1376
aI1388
aI1408
aI1420
aI1424
aI1448
aI1460
aI1472
aI1472
aI1476
aI1476
aI1480
aI1620
aI1620
aI1708
aI1796
aI1904
aI1904
aI1892
aI1876
aI1876
aI1876
aI1864
aI1864
aI1804
aI1692
aI1504
aI1448
aI1344
aI1216
aI1136
aI1104
aI1020
aI984
aI984
aI1012
aI1016
aI1012
aI996
aI996
aI1044
aI1060
aI1068
aI1068
aI1068
aI1068
aI1068
aI1068
aI1068
aI1060
aI1032
aI960
aI936
aI936
aI936
aI936
aI972
aI980
aI980
aI980
aI972
aI968
aI968
aI972
aI972
aI972
aI972
aI972
aI976
aI976
aI980
aI984
aI984
aI984
aI984
aI984
aI996
aI1004
aI1004
aI1004
aI996
aI996
aI996
aI996
aI996
aI980
aI980
aI960
aI952
aI940
aI928
aI912
aI896
aI880
aI872
aI864
aI864
aI864
aI864
aI864
aI856
aI856
aI856
aI856
aI864
aI884
aI908
aI916
aI944
aI948
aI948
aI948
aI948
aI948
aI948
aI948
aI948
aI948
aI948
aI948
aI948
aI948
aI964
aI968
aI980
aI996
aI1012
aI1012
aI1012
aI1012
aI1012
aI1012
aI1012
aI1012
aI1012
aI1012
aI1020
aI1028
aI1028
aI1028
aI1028
aI1044
aI1064
aI1064
aI1064
aI1064
aI1064
aI1088
aI1088
aI1088
aI1088
aI1088
aI1096
aI1096
aI1096
aI1104
aI1104
aI1104
aI1104
aI1120
aI1120
aI1120
aI1128
aI1128
aI1132
aI1136
aI1136
aI1152
aI1168
aI1172
aI1176
aI1176
aI1176
aI1188
aI1200
aI1200
aI1204
aI1204
aI1204
aI1216
aI1248
aI1252
aI1252
aI1264
aI1268
aI1292
aI1304
aI1344
aI1392
aI1404
aI1384
aI1360
aI1360
aI1348
aI1348
a.(lp0
I300
aI300
aI300
aI300
aI300
aI300
aI300
aI300
aI300
aI300
aI300
aI300
aI300
aI300
aI300
aI300
aI300
aI300
aI300
aI300
aI300
aI300
aI300
aI300
aI300
aI300
aI300
aI300
aI300
aI300
aI300
aI300
aI300
aI300
aI300
aI300
aI300
aI300
aI300
aI300
aI300
aI300
aI300
aI300
aI300
aI300
aI300
aI300
aI300
aI300
aI300
aI300
aI300
aI300
aI300
aI300
aI300
aI300
aI300
aI300
aI300
aI300
aI300
aI300
aI300
aI300
aI300
aI300
aI300
aI300
aI300
aI300
aI300
aI300
aI300
aI300
aI300
aI300
aI300
aI300
aI300
aI300
aI300
aI300
aI300
aI300
aI300
aI300
aI300
aI300
aI300
aI300
aI300
aI300
aI300
aI300
aI300
aI300
aI300
aI300
aI300
aI300
aI300
aI300
aI300
aI300
aI300
aI300
aI300
aI300
aI300
aI300
aI300
aI300
aI300
aI300
aI300
aI300
aI300
aI300
aI300
aI300
aI300
aI300
aI300
aI300
aI300
aI300
aI300
aI300
aI300
aI300
aI300
aI300
aI300
aI300
aI300
aI300
aI300
aI300
aI300
aI300
aI300
aI300
aI300
aI300
aI300
aI300
aI300
aI300
aI300
aI300
aI300
aI300
aI300
aI300
aI300
aI300
aI300
aI300
aI300
aI300
aI300
aI300
aI300
aI300
aI300
aI300
aI300
aI300
aI300
aI300
aI300
aI300
aI300
aI300
aI300
aI300
aI300
aI300
aI300
aI300
aI300
aI300
aI300
aI300
aI300
aI300
aI300
aI300
aI300
aI300
aI300
aI300
aI300
aI300
aI300
aI300
aI300
aI300
aI300
aI300
aI300
aI300
aI300
aI300
aI300
aI300
aI300
aI300
aI300
aI300
aI300
aI300
aI300
aI300
aI300
aI300
aI300
aI300
aI300
aI300
aI300
aI300
aI300
aI300
aI300
aI300
aI300
aI300
aI300
aI300
aI300
aI300
aI300
aI300
aI300
aI300
aI300
aI300
aI300
aI300
aI300
aI300
aI300
aI300
aI300
aI300
aI300
aI300
aI300
a.