(lp0
I1840
aI1841
aI1842
aI1843
aI1844
aI1845
aI1846
aI1847
aI1848
aI1849
aI1850
aI1851
aI1852
aI1853
aI1854
aI1855
aI1856
aI1857
aI1858
aI1859
aI1860
aI1861
aI1862
aI1863
aI1864
aI1865
aI1866
aI1867
aI1868
aI1869
aI1870
aI1871
aI1872
aI1873
aI1874
aI1875
aI1876
aI1877
aI1878
aI1879
aI1880
aI1881
aI1882
aI1883
aI1884
aI1885
aI1886
aI1887
aI1888
aI1889
aI1890
aI1891
aI1892
aI1893
aI1894
aI1895
aI1896
aI1897
aI1898
aI1899
aI1900
aI1901
aI1902
aI1903
aI1904
aI1905
aI1906
aI1907
aI1908
aI1909
aI1910
aI1911
aI1912
aI1913
aI1914
aI1915
aI1916
aI1917
aI1918
aI1919
aI1920
aI1921
aI1931
aI1932
aI1933
aI1934
aI1935
aI1936
aI1937
aI1938
aI1939
aI1940
aI1941
aI1942
aI1943
aI1944
aI1945
aI1946
aI1947
aI1948
aI1949
aI1950
aI1951
aI1952
aI1953
aI1954
aI1955
aI1956
aI1957
aI1958
aI1959
aI1960
aI1961
aI1962
aI1963
aI1964
aI1965
aI1966
aI1967
aI1968
aI1969
aI1970
aI1971
aI1972
aI1973
aI1974
aI1975
aI1976
aI1977
aI1978
aI1979
aI1980
aI1981
aI1982
aI1983
aI1984
aI1985
aI1986
aI1987
aI1988
aI1989
aI1990
aI1991
aI1992
aI1993
aI1994
aI1995
aI1996
aI1997
aI1998
aI1999
aI2000
aI2001
aI2002
aI2003
aI2004
aI2005
aI2006
aI2007
aI2008
aI2009
aI2010
aI2011
aI2012
aI2013
aI2014
aI2015
aI2016
aI2017
aI2018
aI2019
aI2020
aI2021
aI2022
aI2023
aI2024
aI2025
aI2026
aI2035
aI2036
aI2037
aI2038
aI2039
aI2040
aI2041
aI2042
aI2043
aI2044
aI2045
aI2046
aI2047
aI2048
aI2049
aI2050
aI2051
aI2052
aI2053
aI2054
aI2055
aI2056
aI2057
aI2058
aI2059
aI2060
aI2061
aI2062
aI2063
aI2064
aI2065
aI2066
aI2067
aI2068
aI2069
aI2070
aI2071
aI2072
aI2073
aI2074
aI2075
aI2076
aI2077
aI2087
aI2088
aI2089
aI2090
aI2091
aI2092
aI2093
aI2094
aI2095
aI2096
aI2097
aI2098
aI2099
aI2100
aI2101
aI2102
aI2103
aI2106
aI2107
aI2108
aI2109
aI2110
aI2111
aI2112
aI2113
aI2114
aI2115
aI2116
aI2117
aI2118
aI2119
aI2120
aI2121
aI2122
aI2123
aI2124
aI2125
aI2126
aI2127
aI2128
aI2129
aI2130
aI2131
aI2132
aI2133
aI2134
aI2135
aI2136
aI2137
aI2138
aI2139
aI2140
aI2141
aI2142
aI2143
aI2144
aI2145
aI2146
a.(lp0
I2012
aI2068
aI2072
aI2076
aI2076
aI2076
aI2072
aI2068
aI2068
aI2068
aI2068
aI2068
aI2068
aI2068
aI2068
aI2068
aI2068
aI2060
aI2060
aI2060
aI2060
aI2056
aI2056
aI2056
aI2056
aI2056
aI2056
aI2056
aI2056
aI2052
aI2044
aI2040
aI2024
aI2000
aI1992
aI1992
aI2008
aI2008
aI2008
aI2000
aI1992
aI1984
aI1976
aI1968
aI1968
aI1968
aI1968
aI1968
aI1968
aI1968
aI1968
aI1984
aI1984
aI1988
aI2000
aI2000
aI2000
aI2000
aI2012
aI2016
aI2016
aI2044
aI2068
aI2076
aI2076
aI2076
aI2076
aI2076
aI2076
aI2080
aI2084
aI2084
aI2084
aI2084
aI2084
aI2084
aI2084
aI2084
aI2084
aI2084
aI2084
aI2076
aI2160
aI2160
aI2160
aI2160
aI2160
aI2160
aI2160
aI2160
aI2160
aI2132
aI2096
aI2052
aI2036
aI2020
aI2036
aI2092
aI2148
aI2220
aI2316
aI2392
aI2424
aI2448
aI2468
aI2484
aI2460
aI2432
aI2364
aI2248
aI2168
aI2108
aI2060
aI2000
aI1936
aI1896
aI1876
aI1860
aI1860
aI2008
aI2128
aI2240
aI2376
aI2432
aI2476
aI2524
aI2524
aI2500
aI2452
aI2360
aI2280
aI2228
aI2136
aI2056
aI2028
aI1984
aI1952
aI1936
aI1920
aI1912
aI1896
aI1892
aI1892
aI1900
aI1904
aI1920
aI1964
aI2008
aI2052
aI2108
aI2144
aI2188
aI2216
aI2276
aI2336
aI2376
aI2424
aI2460
aI2512
aI2548
aI2572
aI2576
aI2584
aI2592
aI2624
aI2660
aI2668
aI2668
aI2668
aI2668
aI2668
aI2668
aI2640
aI2608
aI2568
aI2552
aI2528
aI2508
aI2372
aI2380
aI2380
aI2376
aI2376
aI2376
aI2376
aI2304
aI2252
aI2208
aI2172
aI2136
aI2136
aI2144
aI2164
aI2208
aI2268
aI2352
aI2392
aI2396
aI2396
aI2396
aI2396
aI2396
aI2492
aI2568
aI2596
aI2608
aI2608
aI2544
aI2432
aI2340
aI2280
aI2200
aI2132
aI2084
aI2044
aI2000
aI2000
aI1996
aI1940
aI1928
aI1924
aI2276
aI2288
aI2288
aI2288
aI2332
aI2388
aI2448
aI2532
aI2576
aI2636
aI2656
aI2636
aI2588
aI2588
aI2560
aI2484
aI2428
aI2228
aI2220
aI2308
aI2308
aI2228
aI2172
aI2132
aI2092
aI2048
aI1960
aI1948
aI1992
aI2064
aI2124
aI2184
aI2196
aI2260
aI2304
aI2328
aI2372
aI2368
aI2392
aI2424
aI2484
aI2508
aI2512
aI2516
aI2516
aI2516
aI2492
aI2468
aI2440
aI2432
aI2420
aI2408
aI2392
aI2384
aI2368
aI2356
aI2348
aI2312
a.(lp0
I924
aI912
aI904
aI880
aI880
aI892
aI892
aI892
aI892
aI892
aI892
aI892
aI892
aI892
aI892
aI892
aI896
aI896
aI900
aI900
aI900
aI900
aI900
aI900
aI900
aI900
aI900
aI900
aI900
aI904
aI912
aI920
aI936
aI952
aI972
aI984
aI1032
aI1036
aI1048
aI1080
aI1100
aI1112
aI1124
aI1152
aI1152
aI1152
aI1152
aI1152
aI1152
aI1152
aI1152
aI1168
aI1168
aI1172
aI1188
aI1192
aI1192
aI1192
aI1220
aI1220
aI1220
aI1220
aI1216
aI1224
aI1224
aI1224
aI1224
aI1224
aI1224
aI1228
aI1248
aI1256
aI1260
aI1260
aI1260
aI1260
aI1260
aI1260
aI1260
aI1260
aI1260
aI1276
aI1208
aI1196
aI1176
aI1176
aI1176
aI1176
aI1176
aI1176
aI1176
aI1180
aI1176
aI1160
aI1120
aI1068
aI1016
aI984
aI992
aI1004
aI1016
aI1016
aI1028
aI1036
aI1068
aI1100
aI1120
aI1164
aI1176
aI1184
aI1192
aI1196
aI1192
aI1188
aI1184
aI1180
aI1180
aI1188
aI1192
aI1176
aI1156
aI1152
aI1140
aI1136
aI1132
aI1144
aI1160
aI1208
aI1208
aI1204
aI1228
aI1228
aI1212
aI1212
aI1212
aI1216
aI1216
aI1220
aI1220
aI1220
aI1220
aI1220
aI1220
aI1220
aI1220
aI1216
aI1204
aI1204
aI1188
aI1172
aI1160
aI1152
aI1152
aI1140
aI1128
aI1120
aI1120
aI1112
aI1112
aI1112
aI1120
aI1120
aI1124
aI1124
aI1128
aI1128
aI1128
aI1128
aI1128
aI1128
aI1128
aI1092
aI1060
aI1032
aI1004
aI980
aI940
aI924
aI940
aI960
aI980
aI992
aI992
aI992
aI992
aI1004
aI1020
aI1028
aI1032
aI1036
aI1036
aI1036
aI1020
aI1000
aI992
aI988
aI984
aI980
aI980
aI980
aI980
aI980
aI980
aI996
aI984
aI972
aI972
aI960
aI952
aI948
aI944
aI960
aI968
aI952
aI940
aI940
aI940
aI936
aI912
aI912
aI908
aI928
aI936
aI940
aI948
aI948
aI920
aI916
aI952
aI980
aI988
aI988
aI984
aI968
aI944
aI912
aI904
aI912
aI920
aI924
aI944
aI948
aI984
aI1004
aI1016
aI1032
aI1056
aI1104
aI1104
aI1064
aI1028
aI1000
aI984
aI980
aI960
aI988
aI988
aI984
aI976
aI952
aI952
aI952
aI956
aI960
aI960
aI960
aI960
aI972
aI980
aI988
aI992
aI996
aI1008
aI1020
aI1028
aI1036
aI1044
aI1044
aI1052
a.(lp0
I300
aI600
aI600
aI600
aI600
aI600
aI600
aI600
aI600
aI600
aI600
aI600
aI600
aI600
aI600
aI600
aI600
aI600
aI600
aI600
aI600
aI600
aI600
aI600
aI600
aI600
aI800
aI800
aI800
aI800
aI800
aI800
aI800
aI800
aI800
aI800
aI800
aI800
aI800
aI800
aI800
aI800
aI800
aI800
aI800
aI800
aI800
aI800
aI900
aI900
aI900
aI900
aI900
aI900
aI900
aI900
aI900
aI900
aI900
aI900
aI900
aI900
aI900
aI900
aI900
aI900
aI900
aI900
aI900
aI900
aI900
aI900
aI900
aI900
aI900
aI900
aI900
aI900
aI900
aI900
aI900
aI900
aI1200
aI1200
aI1200
aI1200
aI1200
aI1200
aI1200
aI1200
aI1200
aI1200
aI1200
aI1200
aI1200
aI1200
aI1200
aI1200
aI1200
aI1200
aI1200
aI1200
aI1200
aI1200
aI1200
aI1200
aI1200
aI1200
aI1200
aI1200
aI1200
aI1200
aI1200
aI1200
aI1200
aI1200
aI1200
aI1200
aI1200
aI1200
aI1200
aI1200
aI1200
aI1200
aI1200
aI1200
aI1200
aI1200
aI1200
aI1200
aI1200
aI1200
aI1200
aI1200
aI1200
aI1200
aI1200
aI1200
aI1200
aI1200
aI1200
aI1200
aI1200
aI1200
aI1200
aI1200
aI1200
aI1200
aI1200
aI1200
aI1200
aI1200
aI1200
aI1200
aI1200
aI1200
aI1200
aI1200
aI1200
aI1200
aI1200
aI1200
aI1200
aI1200
aI1200
aI1200
aI1200
aI1200
aI1200
aI1200
aI1200
aI1200
aI1200
aI1200
aI1200
aI1200
aI1200
aI1200
aI1200
aI1200
aI1200
aI1200
aI1200
aI1200
aI1200
aI1200
aI1200
aI1200
aI1200
aI1200
aI1200
aI1200
aI1200
aI1200
aI1200
aI1200
aI1200
aI1200
aI1200
aI1200
aI1200
aI1200
aI1200
aI1200
aI1200
aI1200
aI1200
aI1200
aI1200
aI1200
aI1200
aI1200
aI1200
aI1200
aI1200
aI1200
aI1200
aI1200
aI1200
aI1200
aI1200
aI1200
aI1200
aI1200
aI1200
aI1200
aI1200
aI1200
aI1200
aI1200
aI1200
aI1200
aI1200
aI1200
aI1200
aI1200
aI1200
aI1200
aI1200
aI1200
aI1200
aI1200
aI1200
aI1200
aI1200
aI1200
aI1200
aI1200
aI1200
aI1200
aI1200
aI1200
aI1200
aI1200
aI1200
aI1200
aI1200
aI1200
aI1200
aI1200
aI1200
aI1200
aI1200
aI1200
aI1200
aI1200
aI1200
aI1200
aI1200
aI1200
aI1200
aI1200
aI1200
aI1200
aI1200
aI1200
aI1200
aI1200
aI1200
a.