(lp0
I7387
aI7388
aI7389
aI7390
aI7391
aI7392
aI7393
aI7394
aI7395
aI7396
aI7397
aI7398
aI7399
aI7400
aI7401
aI7402
aI7403
aI7404
aI7405
aI7406
aI7407
aI7408
aI7409
aI7410
aI7411
aI7412
aI7413
aI7414
aI7415
aI7416
aI7417
aI7418
aI7419
aI7420
aI7421
aI7422
aI7423
aI7424
aI7425
aI7426
aI7427
aI7428
aI7429
aI7430
aI7431
aI7432
aI7433
aI7434
aI7435
aI7436
aI7437
aI7438
aI7439
aI7440
aI7441
aI7442
aI7443
aI7444
aI7445
aI7446
aI7447
aI7448
aI7449
aI7450
aI7451
aI7452
aI7453
aI7454
aI7455
aI7456
aI7457
aI7458
aI7459
aI7460
aI7461
aI7462
aI7463
aI7464
aI7465
aI7466
aI7467
aI7468
aI7469
aI7470
aI7474
aI7475
aI7476
aI7477
aI7478
aI7479
aI7480
aI7481
aI7482
aI7483
aI7484
aI7485
aI7486
aI7491
aI7492
aI7495
aI7496
aI7497
aI7498
aI7499
aI7500
aI7501
aI7502
aI7503
aI7504
aI7505
aI7506
aI7507
aI7508
aI7509
aI7510
aI7511
aI7512
aI7513
aI7514
aI7515
aI7516
aI7517
aI7518
aI7519
aI7520
aI7521
aI7522
aI7523
aI7524
aI7525
aI7526
aI7527
aI7528
aI7529
aI7530
aI7531
aI7532
aI7533
aI7534
aI7535
aI7536
aI7537
aI7538
aI7539
aI7540
aI7541
aI7542
aI7543
aI7544
aI7545
aI7546
aI7547
aI7548
aI7549
aI7550
aI7551
aI7552
aI7553
aI7554
aI7555
aI7556
aI7557
aI7558
aI7559
aI7560
aI7561
aI7562
aI7563
aI7564
aI7565
aI7566
aI7567
aI7568
aI7569
aI7570
aI7571
aI7572
aI7573
aI7574
aI7575
aI7576
aI7577
aI7578
aI7579
aI7580
aI7581
aI7582
aI7583
aI7584
aI7585
aI7586
aI7587
aI7588
aI7589
aI7590
aI7591
aI7592
aI7593
aI7594
aI7595
aI7596
aI7597
aI7598
aI7599
aI7600
aI7601
aI7602
aI7603
aI7604
aI7605
aI7606
aI7607
aI7608
aI7609
aI7610
aI7611
aI7612
aI7613
aI7614
aI7615
aI7616
aI7617
aI7618
aI7619
aI7620
aI7621
aI7622
aI7623
aI7624
aI7625
aI7626
aI7627
aI7628
aI7629
aI7630
aI7631
aI7632
aI7633
aI7634
aI7635
aI7636
aI7637
aI7638
aI7639
aI7640
aI7641
aI7642
aI7643
aI7644
aI7645
aI7646
aI7647
aI7648
aI7649
aI7650
aI7651
aI7652
aI7653
aI7654
aI7655
aI7656
aI7657
aI7658
aI7659
aI7660
aI7661
aI7662
aI7663
aI7664
aI7665
aI7666
aI7667
aI7668
aI7669
aI7681
aI7682
aI7683
aI7684
aI7685
aI7686
aI7687
aI7688
aI7689
aI7690
aI7691
aI7692
aI7693
aI7694
aI7695
aI7696
aI7697
aI7698
aI7699
aI7700
aI7701
aI7702
aI7703
aI7704
aI7705
aI7706
aI7707
aI7708
aI7709
aI7710
aI7711
aI7712
aI7713
aI7714
aI7715
aI7716
aI7717
aI7718
aI7719
aI7720
aI7721
aI7722
aI7723
aI7724
aI7725
aI7726
aI7727
aI7728
aI7729
aI7730
aI7731
aI7732
aI7733
aI7734
aI7735
aI7736
aI7737
aI7738
aI7739
aI7740
aI7741
aI7742
aI7743
aI7744
aI7745
aI7746
aI7747
aI7748
aI7749
aI7750
aI7751
aI7752
aI7753
aI7754
aI7755
aI7756
aI7757
aI7758
aI7759
aI7760
aI7761
aI7762
aI7763
aI7764
aI7765
aI7766
aI7767
aI7768
aI7769
aI7770
aI7771
aI7772
aI7773
aI7774
aI7775
aI7776
aI7777
aI7778
aI7779
aI7780
aI7781
aI7782
aI7783
aI7784
aI7785
aI7786
aI7787
aI7788
aI7789
aI7790
aI7791
aI7792
aI7793
aI7794
aI7795
aI7796
aI7797
aI7798
aI7799
aI7800
aI7801
aI7802
aI7803
aI7804
aI7805
aI7806
aI7807
aI7808
aI7809
aI7810
aI7811
aI7812
aI7813
aI7814
aI7815
aI7816
aI7817
aI7818
aI7819
aI7820
aI7821
aI7822
aI7823
aI7824
aI7825
aI7826
aI7827
aI7828
aI7829
aI7830
aI7831
aI7832
aI7833
aI7834
aI7835
aI7836
aI7837
aI7838
aI7839
aI7840
aI7841
aI7842
aI7843
aI7844
aI7845
aI7846
aI7847
aI7848
aI7849
aI7850
aI7851
aI7852
aI7853
aI7854
aI7855
aI7856
aI7857
aI7858
aI7859
aI7860
aI7861
aI7862
aI7863
aI7864
aI7865
aI7866
aI7867
aI7868
aI7869
aI7870
aI7871
aI7872
aI7873
aI7874
aI7875
aI7876
aI7877
aI7878
aI7879
aI7880
aI7881
aI7882
aI7883
aI7884
aI7885
aI7886
aI7887
aI7888
aI7889
aI7890
aI7891
a.(lp0
I1820
aI1820
aI1820
aI1820
aI1820
aI1836
aI1848
aI1848
aI1848
aI1840
aI1840
aI1840
aI1840
aI1840
aI1840
aI1840
aI1840
aI1840
aI1840
aI1840
aI1872
aI1876
aI1876
aI1876
aI1876
aI1876
aI1904
aI1920
aI1920
aI1920
aI1924
aI1924
aI1924
aI1924
aI1924
aI1924
aI1924
aI1944
aI1956
aI1968
aI1968
aI1968
aI1968
aI1968
aI1968
aI1968
aI1992
aI2016
aI2020
aI2028
aI2068
aI2076
aI2076
aI2076
aI2192
aI2244
aI2292
aI2300
aI2300
aI2260
aI2176
aI2108
aI2048
aI1928
aI1856
aI1784
aI1768
aI1844
aI1928
aI2000
aI2096
aI2168
aI2188
aI2196
aI2196
aI2196
aI2200
aI2272
aI2300
aI2344
aI2352
aI2332
aI2276
aI2176
aI2084
aI2100
aI2100
aI2048
aI1984
aI1884
aI1836
aI1836
aI1904
aI1924
aI1944
aI1960
aI1964
aI2008
aI1940
aI1960
aI2068
aI2088
aI2088
aI2088
aI2088
aI2088
aI2100
aI2104
aI2104
aI2104
aI2104
aI2104
aI2104
aI2104
aI2104
aI2104
aI2104
aI2104
aI2104
aI2104
aI2104
aI2104
aI2104
aI2104
aI2104
aI2104
aI2104
aI2104
aI2104
aI2104
aI2104
aI2104
aI2104
aI2104
aI2104
aI2104
aI2104
aI2104
aI2104
aI2104
aI2104
aI2104
aI2104
aI2104
aI2104
aI2104
aI2104
aI2104
aI2104
aI2104
aI2104
aI2104
aI2104
aI2104
aI2104
aI2104
aI2104
aI2104
aI2104
aI2104
aI2104
aI2104
aI2104
aI2104
aI2104
aI2104
aI2104
aI2104
aI2104
aI2104
aI2104
aI2104
aI2104
aI2104
aI2104
aI2104
aI2104
aI2104
aI2104
aI2104
aI2104
aI2104
aI2104
aI2104
aI2104
aI2104
aI2104
aI2104
aI2104
aI2104
aI2104
aI2104
aI2104
aI2104
aI2104
aI2104
aI2104
aI2104
aI2104
aI2104
aI2104
aI2104
aI2104
aI2104
aI2104
aI2104
aI2104
aI2104
aI2104
aI2104
aI2104
aI2104
aI2104
aI2104
aI2104
aI2104
aI2104
aI2104
aI2104
aI2104
aI2104
aI2104
aI2104
aI2104
aI2104
aI2104
aI2104
aI2104
aI2104
aI2104
aI2104
aI2104
aI2104
aI2104
aI2104
aI2104
aI2104
aI2104
aI2104
aI2104
aI2104
aI2104
aI2104
aI2104
aI2104
aI2104
aI2104
aI2104
aI2104
aI2104
aI2104
aI2104
aI2104
aI2104
aI2104
aI2104
aI2104
aI2104
aI2104
aI2104
aI2104
aI2104
aI2104
aI2104
aI2104
aI2104
aI2104
aI2104
aI2104
aI2104
aI2104
aI2068
aI2024
aI1992
aI2056
aI2036
aI2036
aI2036
aI2036
aI2036
aI2036
aI2036
aI2036
aI2036
aI2036
aI2036
aI2036
aI2036
aI2036
aI2036
aI2036
aI2016
aI2008
aI2008
aI2008
aI2008
aI2008
aI2008
aI2008
aI2008
aI2008
aI2008
aI2008
aI2008
aI2008
aI2008
aI2008
aI2008
aI2008
aI2008
aI2008
aI2008
aI2008
aI2008
aI2008
aI2008
aI2008
aI2008
aI2008
aI2008
aI2008
aI2008
aI2008
aI2008
aI2008
aI2008
aI2008
aI2008
aI2008
aI2008
aI2008
aI2008
aI2008
aI2008
aI2008
aI2008
aI2008
aI2008
aI2008
aI2008
aI2008
aI2008
aI2008
aI2008
aI2008
aI2008
aI2004
aI2000
aI2000
aI2000
aI2000
aI2000
aI2000
aI2000
aI2000
aI2000
aI2000
aI2000
aI2000
aI2000
aI2000
aI2000
aI2000
aI2000
aI2000
aI2000
aI2000
aI2000
aI2000
aI2000
aI2000
aI2000
aI2000
aI2000
aI2000
aI2000
aI2000
aI2000
aI2000
aI2000
aI2000
aI2000
aI2000
aI2000
aI2000
aI2000
aI2000
aI2000
aI2000
aI2000
aI2000
aI2000
aI2000
aI2000
aI2000
aI2000
aI2000
aI2000
aI2000
aI2000
aI2000
aI2000
aI2000
aI2000
aI2000
aI2000
aI2000
aI2000
aI2000
aI2000
aI2000
aI2000
aI2000
aI2000
aI2000
aI2000
aI2000
aI2000
aI2000
aI2000
aI2000
aI2000
aI2000
aI2000
aI2000
aI2000
aI2000
aI2000
aI2000
aI2000
aI2000
aI2000
aI2000
aI2000
aI2000
aI2000
aI2000
aI2000
aI2000
aI2000
aI2000
aI2000
aI2000
aI2000
aI2000
aI2000
aI2000
aI2000
aI2000
aI2000
aI2000
aI2000
aI2000
aI2000
aI2000
aI2000
aI2000
aI2000
aI2000
aI2000
aI2000
aI2000
aI2000
aI2000
aI2000
aI2000
aI2000
aI2000
aI2000
aI1988
aI1972
aI1952
aI1952
aI1944
aI1936
aI1928
aI1908
aI1892
aI1880
aI1880
aI1880
aI1880
aI1868
aI1856
aI1844
a.(lp0
I1120
aI1120
aI1120
aI1120
aI1120
aI1120
aI1116
aI1116
aI1116
aI1120
aI1120
aI1120
aI1120
aI1120
aI1120
aI1120
aI1120
aI1120
aI1120
aI1120
aI1128
aI1128
aI1128
aI1128
aI1128
aI1120
aI1104
aI1112
aI1112
aI1112
aI1128
aI1128
aI1128
aI1128
aI1128
aI1128
aI1128
aI1128
aI1128
aI1120
aI1120
aI1120
aI1120
aI1120
aI1120
aI1120
aI1128
aI1144
aI1144
aI1144
aI1136
aI1136
aI1136
aI1136
aI1156
aI1160
aI1160
aI1160
aI1160
aI1156
aI1160
aI1160
aI1156
aI1168
aI1168
aI1176
aI1180
aI1180
aI1204
aI1188
aI1176
aI1184
aI1176
aI1168
aI1168
aI1168
aI1164
aI1084
aI1036
aI988
aI980
aI960
aI936
aI920
aI1000
aI1032
aI1036
aI1036
aI1036
aI1028
aI1028
aI1028
aI1092
aI1152
aI1200
aI1236
aI1252
aI1236
aI1256
aI1256
aI1240
aI1232
aI1232
aI1232
aI1232
aI1232
aI1236
aI1244
aI1244
aI1244
aI1244
aI1244
aI1244
aI1244
aI1244
aI1244
aI1244
aI1244
aI1244
aI1244
aI1244
aI1244
aI1244
aI1244
aI1244
aI1244
aI1244
aI1244
aI1244
aI1244
aI1244
aI1244
aI1244
aI1244
aI1244
aI1244
aI1244
aI1244
aI1244
aI1244
aI1244
aI1244
aI1244
aI1244
aI1244
aI1244
aI1244
aI1244
aI1244
aI1244
aI1244
aI1244
aI1244
aI1244
aI1244
aI1244
aI1244
aI1244
aI1244
aI1244
aI1244
aI1244
aI1244
aI1244
aI1244
aI1244
aI1244
aI1244
aI1244
aI1244
aI1244
aI1244
aI1244
aI1244
aI1244
aI1244
aI1244
aI1244
aI1244
aI1244
aI1244
aI1244
aI1244
aI1244
aI1244
aI1244
aI1244
aI1244
aI1244
aI1244
aI1244
aI1244
aI1244
aI1244
aI1244
aI1244
aI1244
aI1244
aI1244
aI1244
aI1244
aI1244
aI1244
aI1244
aI1244
aI1244
aI1244
aI1244
aI1244
aI1244
aI1244
aI1244
aI1244
aI1244
aI1244
aI1244
aI1244
aI1244
aI1244
aI1244
aI1244
aI1244
aI1244
aI1244
aI1244
aI1244
aI1244
aI1244
aI1244
aI1244
aI1244
aI1244
aI1244
aI1244
aI1244
aI1244
aI1244
aI1244
aI1244
aI1244
aI1244
aI1244
aI1244
aI1244
aI1244
aI1244
aI1244
aI1244
aI1244
aI1244
aI1244
aI1244
aI1244
aI1244
aI1244
aI1244
aI1244
aI1244
aI1244
aI1244
aI1244
aI1244
aI1244
aI1244
aI1244
aI1244
aI1244
aI1244
aI1244
aI1244
aI1244
aI1236
aI1236
aI1244
aI1248
aI1220
aI1216
aI1216
aI1216
aI1216
aI1216
aI1216
aI1216
aI1216
aI1216
aI1216
aI1216
aI1216
aI1216
aI1216
aI1216
aI1200
aI1164
aI1136
aI1104
aI1076
aI1076
aI1076
aI1076
aI1076
aI1076
aI1076
aI1076
aI1076
aI1076
aI1076
aI1076
aI1076
aI1076
aI1076
aI1076
aI1076
aI1076
aI1076
aI1076
aI1076
aI1076
aI1076
aI1076
aI1076
aI1076
aI1076
aI1076
aI1076
aI1076
aI1076
aI1076
aI1076
aI1076
aI1076
aI1076
aI1076
aI1076
aI1076
aI1076
aI1076
aI1076
aI1076
aI1076
aI1076
aI1076
aI1076
aI1076
aI1076
aI1072
aI1072
aI1068
aI1068
aI1068
aI1068
aI1068
aI1068
aI1068
aI1068
aI1068
aI1068
aI1068
aI1068
aI1068
aI1068
aI1068
aI1068
aI1068
aI1068
aI1068
aI1068
aI1068
aI1068
aI1068
aI1068
aI1068
aI1068
aI1068
aI1068
aI1068
aI1068
aI1068
aI1068
aI1068
aI1068
aI1068
aI1068
aI1068
aI1068
aI1068
aI1068
aI1068
aI1068
aI1068
aI1068
aI1068
aI1068
aI1068
aI1068
aI1068
aI1068
aI1068
aI1068
aI1068
aI1068
aI1068
aI1068
aI1068
aI1068
aI1068
aI1068
aI1068
aI1068
aI1068
aI1068
aI1068
aI1068
aI1068
aI1068
aI1068
aI1068
aI1068
aI1068
aI1068
aI1068
aI1068
aI1068
aI1068
aI1068
aI1068
aI1068
aI1068
aI1068
aI1068
aI1068
aI1068
aI1068
aI1068
aI1068
aI1068
aI1068
aI1068
aI1068
aI1068
aI1068
aI1068
aI1068
aI1068
aI1068
aI1068
aI1068
aI1068
aI1068
aI1068
aI1068
aI1068
aI1068
aI1068
aI1068
aI1068
aI1068
aI1068
aI1068
aI1068
aI1068
aI1068
aI1068
aI1068
aI1068
aI1068
aI1068
aI1068
aI1068
aI1068
aI1068
aI1080
aI1088
aI1096
aI1096
aI1096
aI1096
aI1096
aI1096
aI1092
aI1092
aI1092
aI1092
aI1088
aI1084
aI1080
a.(lp0
I1200
aI1200
aI1200
aI1200
aI1200
aI1200
aI1200
aI1200
aI1200
aI1200
aI1200
aI1200
aI1200
aI1200
aI1200
aI1200
aI1200
aI1200
aI1200
aI1200
aI1200
aI1200
aI1200
aI1200
aI1200
aI1200
aI1200
aI1200
aI1200
aI1200
aI1200
aI1200
aI1200
aI1200
aI1200
aI1200
aI1200
aI1200
aI1200
aI1200
aI1200
aI1200
aI1200
aI1200
aI1200
aI1200
aI1200
aI1200
aI1200
aI1200
aI1200
aI1200
aI1200
aI1200
aI1200
aI1200
aI1200
aI1200
aI1200
aI1200
aI1200
aI1200
aI1200
aI1200
aI1200
aI1200
aI1200
aI1200
aI1200
aI1200
aI1200
aI1200
aI1200
aI1200
aI1200
aI1200
aI1200
aI1200
aI1200
aI1200
aI1200
aI1200
aI1200
aI1200
aI1200
aI1200
aI1200
aI1200
aI1200
aI1200
aI1200
aI1200
aI1200
aI1200
aI1200
aI1200
aI1200
aI1200
aI1200
aI1200
aI1200
aI1200
aI1200
aI1200
aI1200
aI1200
aI1200
aI1200
aI1200
aI1200
aI1200
aI1200
aI1200
aI1200
aI1200
aI1200
aI1200
aI1200
aI1200
aI1200
aI1200
aI1200
aI1200
aI1200
aI1200
aI1200
aI1200
aI1200
aI1200
aI1200
aI1200
aI1200
aI1200
aI1200
aI1200
aI1200
aI1200
aI1200
aI1200
aI1200
aI1200
aI1200
aI1200
aI1200
aI1200
aI1200
aI1200
aI1200
aI1200
aI1200
aI1200
aI1200
aI1200
aI1200
aI1200
aI1200
aI1200
aI1200
aI1200
aI1200
aI1200
aI1200
aI1200
aI1200
aI1200
aI1200
aI1200
aI1200
aI1200
aI1200
aI1200
aI1200
aI1200
aI1200
aI1200
aI1200
aI1200
aI1200
aI1200
aI1200
aI1200
aI1200
aI1200
aI1200
aI1200
aI1200
aI1200
aI1200
aI1200
aI1200
aI1200
aI1200
aI1200
aI1200
aI1200
aI1200
aI1200
aI1200
aI1200
aI1200
aI1200
aI1200
aI1200
aI1200
aI1200
aI1200
aI1200
aI1200
aI1200
aI1200
aI1200
aI1200
aI1200
aI1200
aI1200
aI1200
aI1200
aI1200
aI1200
aI1200
aI1200
aI1200
aI1200
aI1200
aI1200
aI1200
aI1200
aI1200
aI1200
aI1200
aI1200
aI1200
aI1200
aI1200
aI1200
aI1200
aI1200
aI1200
aI1200
aI1200
aI1200
aI1200
aI1200
aI1200
aI1200
aI1200
aI1200
aI1200
aI1200
aI1200
aI1200
aI1200
aI1200
aI1200
aI1200
aI1200
aI1200
aI1200
aI1200
aI1200
aI1200
aI1200
aI1200
aI1200
aI1200
aI1200
aI1200
aI1200
aI1200
aI1200
aI1200
aI1200
aI1200
aI1200
aI1200
aI1200
aI1200
aI1200
aI1200
aI1200
aI1200
aI1200
aI1200
aI1200
aI1200
aI1200
aI1200
aI1200
aI1200
aI1200
aI1200
aI1200
aI1200
aI1200
aI1200
aI1200
aI1200
aI1200
aI1200
aI1200
aI1200
aI1200
aI1200
aI1200
aI1200
aI1200
aI1200
aI1200
aI1200
aI1200
aI1200
aI1200
aI1200
aI1200
aI1200
aI1200
aI1200
aI1200
aI1200
aI1200
aI1200
aI1200
aI1200
aI1200
aI1200
aI1200
aI1200
aI1200
aI1200
aI1200
aI1200
aI1200
aI1200
aI1200
aI1200
aI1200
aI1200
aI1200
aI1200
aI1200
aI1200
aI1200
aI1200
aI1200
aI1200
aI1200
aI1200
aI1200
aI1200
aI1200
aI1200
aI1200
aI1200
aI1200
aI1200
aI1200
aI1200
aI1200
aI1200
aI1200
aI1200
aI1200
aI1200
aI1200
aI1200
aI1200
aI1200
aI1200
aI1200
aI1200
aI1200
aI1200
aI1200
aI1200
aI1200
aI1200
aI1200
aI1200
aI1200
aI1200
aI1200
aI1200
aI1200
aI1200
aI1200
aI1200
aI1200
aI1200
aI1200
aI1200
aI1200
aI1200
aI1200
aI1200
aI1200
aI1200
aI1200
aI1200
aI1200
aI1200
aI1200
aI1200
aI1200
aI1200
aI1200
aI1200
aI1200
aI1200
aI1200
aI1200
aI1200
aI1200
aI1200
aI1200
aI1200
aI1200
aI1200
aI1200
aI1200
aI1200
aI1200
aI1200
aI1200
aI1200
aI1200
aI1200
aI1200
aI1200
aI1200
aI1200
aI1200
aI1200
aI1200
aI1200
aI1200
aI1200
aI1200
aI1200
aI1200
aI1200
aI1200
aI1200
aI1200
aI1200
aI1200
aI1200
aI1200
aI1200
aI1200
aI1200
aI1200
aI1200
aI1200
aI1200
aI1200
aI1200
aI1200
aI1200
aI1200
aI1200
aI1200
aI1200
aI1200
aI1200
aI1200
aI1200
aI1200
aI1200
aI1200
aI1200
aI1200
aI1200
aI1200
aI1200
aI1200
aI1200
aI1200
aI1200
aI1200
aI1200
aI1200
aI1200
aI1200
aI1200
aI1200
a.