(lp0
I1949
aI1950
aI1951
aI1952
aI1953
aI1954
aI1955
aI1956
aI1957
aI1958
aI1959
aI1960
aI1961
aI1962
aI1963
aI1964
aI1965
aI1966
aI1967
aI1968
aI1969
aI1970
aI1971
aI1972
aI1973
aI1974
aI1975
aI1976
aI1977
aI1978
aI1979
aI1980
aI1981
aI1982
aI1983
aI1984
aI1985
aI1986
aI1987
aI1988
aI1989
aI1990
aI1991
aI1992
aI1993
aI1994
aI1995
aI1996
aI1997
aI1998
aI1999
aI2000
aI2001
aI2002
aI2003
aI2004
aI2005
aI2006
aI2007
aI2008
aI2009
aI2010
aI2011
aI2012
aI2013
aI2014
aI2015
aI2016
aI2017
aI2018
aI2019
aI2020
aI2021
aI2022
aI2023
aI2024
aI2025
aI2026
aI2027
aI2028
aI2029
aI2030
aI2031
aI2032
aI2033
aI2034
aI2035
aI2036
aI2037
aI2038
aI2039
aI2040
aI2041
aI2042
aI2043
aI2044
aI2045
aI2046
aI2047
aI2048
aI2049
aI2050
aI2051
aI2052
aI2053
aI2054
aI2055
aI2056
aI2057
aI2058
aI2059
aI2060
aI2061
aI2062
aI2063
aI2064
aI2065
aI2066
aI2067
aI2068
aI2069
aI2070
aI2071
aI2072
aI2073
aI2074
aI2075
aI2076
aI2077
aI2078
aI2079
aI2080
aI2081
aI2082
aI2083
aI2084
aI2085
aI2086
aI2087
aI2088
aI2089
aI2090
aI2091
aI2092
aI2093
aI2094
aI2095
aI2096
aI2097
aI2098
aI2099
aI2100
aI2101
aI2102
aI2103
aI2104
aI2105
aI2106
aI2107
aI2108
aI2109
aI2110
aI2111
aI2112
aI2113
aI2114
aI2115
aI2116
aI2117
aI2118
aI2119
aI2120
aI2121
aI2122
aI2123
aI2124
aI2125
aI2126
aI2127
aI2128
aI2129
aI2130
aI2131
aI2132
aI2133
aI2134
aI2135
aI2136
aI2137
aI2138
aI2139
aI2140
aI2141
aI2142
aI2143
aI2144
aI2145
aI2146
aI2147
aI2148
aI2149
aI2150
aI2151
aI2152
aI2153
aI2154
aI2155
aI2156
aI2157
aI2158
aI2159
aI2160
aI2161
aI2162
aI2163
aI2164
aI2165
aI2166
aI2167
aI2168
aI2169
aI2170
aI2171
aI2172
aI2173
aI2174
aI2175
aI2176
aI2177
aI2178
aI2179
aI2180
aI2181
aI2182
aI2183
aI2184
aI2185
aI2186
aI2187
aI2188
aI2189
aI2190
aI2191
aI2192
aI2193
aI2194
aI2195
aI2196
aI2197
aI2198
aI2199
aI2200
aI2201
aI2202
aI2203
aI2204
aI2205
aI2206
aI2207
aI2208
aI2209
aI2210
aI2211
aI2212
aI2213
aI2214
aI2215
aI2216
aI2217
aI2218
aI2219
aI2220
aI2221
aI2222
aI2223
aI2224
aI2225
aI2226
aI2227
aI2228
aI2229
aI2230
aI2231
aI2232
aI2233
aI2234
aI2235
aI2236
aI2237
aI2238
aI2239
aI2240
aI2241
aI2242
aI2243
aI2244
aI2245
aI2246
aI2247
aI2248
aI2249
aI2250
aI2251
aI2252
aI2253
aI2254
aI2255
aI2256
aI2257
aI2258
aI2259
aI2260
aI2261
aI2262
aI2263
aI2264
aI2265
aI2266
aI2267
aI2268
aI2269
aI2270
aI2271
aI2272
aI2273
aI2274
aI2275
aI2276
aI2277
aI2278
aI2279
aI2280
aI2281
aI2282
aI2283
aI2284
aI2285
aI2286
aI2287
aI2288
aI2289
aI2290
aI2291
aI2292
aI2293
aI2294
aI2295
aI2296
aI2297
aI2298
aI2299
aI2300
aI2301
aI2302
aI2303
aI2304
aI2305
aI2306
aI2307
aI2308
aI2309
aI2310
aI2311
aI2312
aI2313
aI2314
aI2315
aI2316
aI2317
aI2318
aI2319
aI2320
aI2321
aI2322
aI2323
aI2324
aI2325
aI2326
aI2327
aI2328
aI2329
aI2330
aI2331
aI2332
aI2333
aI2334
aI2335
aI2336
aI2337
a.(lp0
I2084
aI2084
aI2084
aI2084
aI2084
aI2092
aI2100
aI2100
aI2100
aI2116
aI2116
aI2144
aI2144
aI2144
aI2160
aI2160
aI2160
aI2160
aI2160
aI2192
aI2192
aI2192
aI2196
aI2216
aI2216
aI2216
aI2232
aI2244
aI2260
aI2264
aI2264
aI2264
aI2264
aI2264
aI2264
aI2264
aI2264
aI2268
aI2272
aI2276
aI2284
aI2284
aI2284
aI2284
aI2284
aI2280
aI2268
aI2264
aI2260
aI2260
aI2260
aI2260
aI2260
aI2260
aI2288
aI2308
aI2308
aI2308
aI2308
aI2308
aI2300
aI2292
aI2284
aI2284
aI2284
aI2284
aI2296
aI2304
aI2304
aI2304
aI2304
aI2308
aI2316
aI2316
aI2316
aI2316
aI2316
aI2316
aI2316
aI2316
aI2316
aI2316
aI2316
aI2316
aI2316
aI2312
aI2312
aI2312
aI2312
aI2312
aI2308
aI2300
aI2300
aI2300
aI2300
aI2300
aI2300
aI2300
aI2292
aI2292
aI2292
aI2292
aI2292
aI2292
aI2292
aI2264
aI2236
aI2236
aI2236
aI2236
aI2236
aI2236
aI2236
aI2236
aI2272
aI2288
aI2288
aI2304
aI2308
aI2308
aI2284
aI2276
aI2268
aI2264
aI2256
aI2252
aI2252
aI2248
aI2244
aI2252
aI2268
aI2268
aI2276
aI2280
aI2280
aI2284
aI2296
aI2308
aI2308
aI2316
aI2316
aI2316
aI2316
aI2316
aI2316
aI2316
aI2316
aI2316
aI2312
aI2312
aI2312
aI2312
aI2312
aI2312
aI2312
aI2312
aI2312
aI2312
aI2316
aI2316
aI2316
aI2316
aI2316
aI2316
aI2316
aI2320
aI2320
aI2320
aI2320
aI2320
aI2312
aI2308
aI2300
aI2300
aI2300
aI2308
aI2308
aI2308
aI2308
aI2308
aI2312
aI2316
aI2316
aI2316
aI2316
aI2316
aI2324
aI2328
aI2328
aI2332
aI2332
aI2332
aI2332
aI2340
aI2348
aI2352
aI2352
aI2352
aI2352
aI2352
aI2352
aI2352
aI2352
aI2352
aI2352
aI2360
aI2364
aI2364
aI2364
aI2368
aI2368
aI2368
aI2364
aI2360
aI2360
aI2360
aI2360
aI2360
aI2360
aI2360
aI2360
aI2360
aI2360
aI2360
aI2360
aI2360
aI2360
aI2368
aI2368
aI2368
aI2368
aI2368
aI2368
aI2368
aI2368
aI2368
aI2368
aI2376
aI2376
aI2376
aI2376
aI2376
aI2384
aI2408
aI2420
aI2424
aI2436
aI2436
aI2436
aI2448
aI2456
aI2456
aI2456
aI2468
aI2492
aI2492
aI2492
aI2492
aI2492
aI2492
aI2492
aI2520
aI2540
aI2544
aI2544
aI2544
aI2544
aI2544
aI2536
aI2532
aI2532
aI2524
aI2524
aI2508
aI2508
aI2508
aI2508
aI2520
aI2536
aI2540
aI2540
aI2540
aI2540
aI2540
aI2536
aI2532
aI2532
aI2532
aI2532
aI2532
aI2532
aI2532
aI2540
aI2548
aI2552
aI2556
aI2564
aI2572
aI2580
aI2592
aI2600
aI2604
aI2604
aI2604
aI2592
aI2556
aI2532
aI2524
aI2516
aI2516
aI2516
aI2516
aI2516
aI2516
aI2516
aI2548
aI2568
aI2568
aI2568
aI2572
aI2576
aI2576
aI2576
aI2588
aI2600
aI2600
aI2608
aI2608
aI2608
aI2608
aI2608
aI2608
aI2608
aI2616
aI2624
aI2628
aI2628
aI2628
aI2628
aI2632
aI2632
aI2624
aI2624
aI2624
aI2624
aI2624
aI2624
aI2624
aI2624
aI2624
aI2624
aI2624
aI2624
aI2624
aI2624
aI2624
aI2628
aI2628
aI2632
aI2636
aI2640
aI2640
aI2640
aI2644
aI2648
aI2648
aI2648
aI2652
aI2652
aI2652
aI2652
aI2652
aI2652
aI2652
aI2652
aI2652
aI2652
aI2652
aI2652
aI2652
aI2652
aI2656
aI2656
aI2656
aI2660
aI2664
aI2668
aI2668
aI2668
a.(lp0
I1152
aI1152
aI1152
aI1152
aI1152
aI1168
aI1176
aI1188
aI1188
aI1176
aI1176
aI1184
aI1184
aI1184
aI1160
aI1156
aI1156
aI1156
aI1156
aI1176
aI1176
aI1176
aI1176
aI1176
aI1176
aI1176
aI1156
aI1144
aI1136
aI1128
aI1128
aI1128
aI1128
aI1128
aI1128
aI1128
aI1128
aI1112
aI1104
aI1096
aI1088
aI1088
aI1088
aI1076
aI1060
aI1040
aI1020
aI1008
aI992
aI992
aI992
aI992
aI992
aI992
aI1012
aI1024
aI1024
aI1024
aI1024
aI1024
aI1028
aI1028
aI1028
aI1028
aI1028
aI1028
aI1036
aI1044
aI1044
aI1044
aI1044
aI1044
aI1044
aI1044
aI1044
aI1044
aI1044
aI1044
aI1044
aI1044
aI1044
aI1044
aI1044
aI1044
aI1044
aI1060
aI1076
aI1084
aI1084
aI1112
aI1124
aI1136
aI1136
aI1136
aI1136
aI1136
aI1136
aI1136
aI1120
aI1120
aI1120
aI1120
aI1120
aI1120
aI1120
aI1112
aI1104
aI1104
aI1104
aI1104
aI1112
aI1112
aI1112
aI1112
aI1168
aI1188
aI1188
aI1212
aI1216
aI1216
aI1220
aI1220
aI1220
aI1220
aI1220
aI1220
aI1220
aI1224
aI1232
aI1244
aI1264
aI1268
aI1272
aI1276
aI1276
aI1276
aI1284
aI1292
aI1296
aI1320
aI1324
aI1324
aI1324
aI1328
aI1328
aI1328
aI1332
aI1340
aI1348
aI1360
aI1364
aI1368
aI1380
aI1388
aI1396
aI1404
aI1404
aI1408
aI1412
aI1412
aI1420
aI1420
aI1420
aI1420
aI1420
aI1428
aI1436
aI1448
aI1448
aI1452
aI1468
aI1480
aI1492
aI1500
aI1512
aI1520
aI1528
aI1528
aI1528
aI1528
aI1528
aI1536
aI1544
aI1544
aI1544
aI1544
aI1544
aI1544
aI1544
aI1544
aI1544
aI1548
aI1548
aI1560
aI1580
aI1588
aI1588
aI1588
aI1588
aI1588
aI1588
aI1588
aI1588
aI1588
aI1588
aI1568
aI1556
aI1556
aI1556
aI1568
aI1588
aI1596
aI1612
aI1624
aI1644
aI1644
aI1644
aI1644
aI1644
aI1644
aI1644
aI1644
aI1644
aI1644
aI1644
aI1644
aI1648
aI1660
aI1660
aI1660
aI1660
aI1660
aI1660
aI1660
aI1660
aI1660
aI1660
aI1684
aI1684
aI1684
aI1684
aI1684
aI1696
aI1708
aI1716
aI1720
aI1728
aI1728
aI1728
aI1736
aI1736
aI1740
aI1740
aI1740
aI1744
aI1748
aI1748
aI1748
aI1748
aI1748
aI1748
aI1748
aI1744
aI1744
aI1744
aI1744
aI1744
aI1760
aI1776
aI1788
aI1792
aI1792
aI1792
aI1796
aI1796
aI1796
aI1796
aI1788
aI1780
aI1776
aI1768
aI1768
aI1768
aI1760
aI1752
aI1752
aI1752
aI1752
aI1752
aI1752
aI1752
aI1740
aI1716
aI1700
aI1692
aI1676
aI1664
aI1644
aI1632
aI1624
aI1616
aI1612
aI1608
aI1600
aI1592
aI1576
aI1568
aI1564
aI1564
aI1564
aI1592
aI1628
aI1632
aI1632
aI1632
aI1628
aI1628
aI1632
aI1632
aI1680
aI1684
aI1684
aI1684
aI1664
aI1640
aI1640
aI1628
aI1628
aI1628
aI1628
aI1628
aI1628
aI1624
aI1612
aI1604
aI1596
aI1596
aI1596
aI1596
aI1584
aI1584
aI1584
aI1572
aI1568
aI1560
aI1560
aI1560
aI1560
aI1560
aI1560
aI1560
aI1560
aI1560
aI1560
aI1560
aI1552
aI1552
aI1544
aI1540
aI1528
aI1520
aI1512
aI1500
aI1492
aI1472
aI1468
aI1464
aI1460
aI1456
aI1452
aI1444
aI1440
aI1436
aI1436
aI1436
aI1436
aI1436
aI1436
aI1432
aI1428
aI1428
aI1428
aI1424
aI1424
aI1424
aI1420
aI1416
aI1416
aI1416
a.(lp0
I300
aI300
aI300
aI300
aI300
aI300
aI300
aI300
aI300
aI300
aI300
aI300
aI300
aI300
aI300
aI300
aI300
aI300
aI300
aI300
aI300
aI300
aI300
aI300
aI300
aI300
aI300
aI300
aI300
aI300
aI300
aI300
aI300
aI300
aI300
aI300
aI300
aI300
aI300
aI300
aI300
aI300
aI300
aI300
aI300
aI300
aI300
aI300
aI300
aI300
aI300
aI300
aI300
aI300
aI300
aI300
aI300
aI300
aI300
aI300
aI300
aI300
aI300
aI300
aI300
aI300
aI300
aI300
aI300
aI300
aI300
aI300
aI300
aI300
aI300
aI300
aI300
aI300
aI300
aI300
aI300
aI300
aI300
aI300
aI300
aI300
aI300
aI300
aI300
aI300
aI300
aI300
aI300
aI300
aI300
aI300
aI300
aI300
aI300
aI300
aI300
aI300
aI300
aI300
aI300
aI300
aI300
aI300
aI300
aI300
aI300
aI300
aI300
aI300
aI300
aI300
aI300
aI300
aI300
aI300
aI300
aI300
aI300
aI300
aI300
aI300
aI300
aI300
aI300
aI300
aI300
aI300
aI300
aI300
aI300
aI300
aI300
aI300
aI300
aI300
aI300
aI300
aI300
aI300
aI300
aI300
aI300
aI300
aI300
aI300
aI300
aI300
aI300
aI300
aI300
aI300
aI300
aI300
aI300
aI300
aI300
aI300
aI300
aI300
aI300
aI300
aI300
aI300
aI300
aI300
aI300
aI300
aI300
aI300
aI300
aI300
aI300
aI300
aI300
aI300
aI300
aI300
aI300
aI300
aI300
aI300
aI300
aI300
aI300
aI300
aI300
aI300
aI300
aI300
aI300
aI300
aI300
aI300
aI300
aI300
aI300
aI300
aI300
aI300
aI300
aI300
aI300
aI300
aI300
aI300
aI300
aI300
aI300
aI300
aI300
aI300
aI300
aI300
aI300
aI300
aI300
aI300
aI300
aI300
aI300
aI300
aI300
aI300
aI300
aI300
aI300
aI300
aI300
aI300
aI300
aI300
aI300
aI300
aI300
aI300
aI300
aI300
aI300
aI300
aI300
aI300
aI300
aI300
aI300
aI300
aI300
aI300
aI300
aI300
aI300
aI300
aI300
aI300
aI300
aI300
aI300
aI300
aI300
aI300
aI300
aI300
aI300
aI300
aI300
aI300
aI300
aI300
aI300
aI300
aI300
aI300
aI300
aI300
aI300
aI300
aI300
aI300
aI300
aI300
aI300
aI300
aI300
aI300
aI300
aI300
aI300
aI300
aI300
aI300
aI300
aI300
aI300
aI300
aI300
aI300
aI300
aI300
aI300
aI300
aI300
aI300
aI300
aI300
aI300
aI300
aI300
aI300
aI300
aI300
aI300
aI300
aI300
aI300
aI300
aI300
aI300
aI300
aI300
aI300
aI300
aI300
aI300
aI300
aI300
aI300
aI300
aI300
aI300
aI300
aI300
aI300
aI300
aI300
aI300
aI300
aI300
aI300
aI300
aI300
aI300
aI300
aI300
aI300
aI300
aI300
aI300
aI300
aI300
aI300
aI300
aI300
aI300
aI300
aI300
aI300
aI300
aI300
aI300
aI300
aI300
aI300
aI300
aI300
aI300
aI300
aI300
aI300
aI300
aI300
aI300
aI300
aI300
aI300
aI300
aI300
aI300
aI300
aI300
aI300
aI300
aI300
aI300
aI300
aI300
a.