(lp0
I1311
aI1312
aI1313
aI1314
aI1315
aI1316
aI1317
aI1318
aI1319
aI1320
aI1321
aI1322
aI1323
aI1324
aI1325
aI1326
aI1327
aI1328
aI1329
aI1330
aI1331
aI1332
aI1333
aI1334
aI1335
aI1336
aI1337
aI1338
aI1339
aI1340
aI1341
aI1342
aI1343
aI1344
aI1345
aI1346
aI1347
aI1348
aI1349
aI1350
aI1351
aI1352
aI1353
aI1354
aI1355
aI1356
aI1357
aI1358
aI1359
aI1360
aI1361
aI1362
aI1363
aI1364
aI1365
aI1366
aI1367
aI1368
aI1369
aI1370
aI1371
aI1372
aI1373
aI1374
aI1375
aI1376
aI1377
aI1378
aI1379
aI1380
aI1381
aI1382
aI1383
aI1384
aI1385
aI1386
aI1387
aI1388
aI1389
aI1390
aI1391
aI1392
aI1393
aI1394
aI1395
aI1396
aI1397
aI1398
aI1399
aI1400
aI1401
aI1402
aI1403
aI1404
aI1405
aI1406
aI1407
aI1408
aI1409
aI1410
aI1411
aI1412
aI1413
aI1414
aI1415
aI1416
aI1417
aI1418
aI1419
aI1420
aI1421
aI1422
aI1423
aI1424
aI1425
aI1426
aI1427
aI1428
aI1429
aI1430
aI1431
aI1432
aI1433
aI1434
aI1435
aI1436
aI1437
aI1438
aI1439
aI1440
aI1441
aI1442
aI1443
aI1444
aI1445
aI1446
aI1447
aI1448
aI1449
aI1450
aI1451
aI1452
aI1453
aI1454
aI1455
aI1456
aI1457
aI1458
aI1459
a.(lp0
I2107
aI2107
aI2107
aI2107
aI2107
aI2107
aI2107
aI2107
aI2107
aI2107
aI2107
aI2107
aI2107
aI2107
aI2107
aI2107
aI2107
aI2107
aI2107
aI2107
aI2107
aI2107
aI2107
aI2107
aI2107
aI2107
aI2107
aI2107
aI2107
aI2107
aI2107
aI2107
aI2107
aI2082
aI2073
aI2073
aI2069
aI2069
aI2065
aI2060
aI2056
aI2056
aI2056
aI2056
aI2056
aI2056
aI2056
aI2056
aI2056
aI2056
aI2056
aI2056
aI2056
aI2056
aI2056
aI2056
aI2056
aI2056
aI2056
aI2056
aI2056
aI2056
aI2056
aI2056
aI2056
aI2056
aI2056
aI2056
aI2056
aI2056
aI2056
aI2056
aI2056
aI2056
aI2056
aI2056
aI2056
aI2056
aI2056
aI2065
aI2065
aI2073
aI2073
aI2082
aI2107
aI2112
aI2116
aI2120
aI2124
aI2129
aI2133
aI2124
aI2107
aI2082
aI2035
aI2018
aI2018
aI2009
aI2009
aI2018
aI2026
aI2043
aI2073
aI2107
aI2133
aI2133
aI2141
aI2146
aI2133
aI2124
aI2103
aI2082
aI2077
aI2073
aI2073
aI2082
aI2090
aI2099
aI2112
aI2120
aI2120
aI2120
aI2073
aI2056
aI2043
aI2035
aI2035
aI2065
aI2107
aI2146
aI2167
aI2188
aI2188
aI2154
aI2099
aI2060
aI2060
aI2073
aI2103
aI2124
aI2133
aI2150
aI2150
aI2116
aI2073
aI2052
aI2035
aI2030
aI2030
a.(lp0
I772
aI764
aI764
aI764
aI764
aI764
aI764
aI764
aI764
aI764
aI764
aI764
aI764
aI764
aI764
aI764
aI764
aI764
aI764
aI764
aI764
aI764
aI764
aI764
aI764
aI764
aI764
aI764
aI764
aI764
aI764
aI764
aI764
aI764
aI764
aI764
aI772
aI772
aI772
aI772
aI772
aI772
aI772
aI772
aI772
aI772
aI772
aI772
aI772
aI772
aI772
aI772
aI772
aI772
aI772
aI772
aI772
aI772
aI772
aI772
aI772
aI772
aI772
aI772
aI772
aI772
aI772
aI772
aI772
aI772
aI772
aI772
aI772
aI772
aI772
aI772
aI772
aI764
aI756
aI752
aI744
aI740
aI736
aI728
aI724
aI720
aI716
aI708
aI696
aI688
aI680
aI672
aI672
aI668
aI664
aI664
aI672
aI680
aI704
aI720
aI740
aI756
aI764
aI764
aI764
aI756
aI736
aI716
aI688
aI680
aI680
aI740
aI764
aI768
aI756
aI716
aI696
aI676
aI660
aI648
aI644
aI644
aI688
aI708
aI728
aI744
aI744
aI736
aI708
aI696
aI672
aI652
aI652
aI652
aI628
aI612
aI612
aI628
aI664
aI688
aI704
aI728
aI732
aI712
aI692
aI692
aI672
aI660
aI660
a.(lp0
I300
aI300
aI300
aI300
aI300
aI300
aI300
aI300
aI300
aI300
aI300
aI300
aI300
aI300
aI300
aI300
aI300
aI300
aI300
aI300
aI300
aI300
aI300
aI300
aI300
aI300
aI300
aI300
aI300
aI300
aI300
aI300
aI300
aI300
aI300
aI300
aI300
aI300
aI300
aI300
aI300
aI300
aI300
aI300
aI300
aI300
aI300
aI300
aI300
aI300
aI300
aI300
aI300
aI300
aI300
aI300
aI300
aI300
aI300
aI300
aI300
aI300
aI300
aI300
aI300
aI300
aI300
aI300
aI300
aI300
aI300
aI300
aI300
aI300
aI300
aI300
aI300
aI300
aI300
aI300
aI300
aI300
aI300
aI300
aI300
aI300
aI300
aI300
aI300
aI300
aI300
aI300
aI300
aI300
aI300
aI300
aI300
aI300
aI300
aI300
aI300
aI300
aI300
aI300
aI300
aI300
aI300
aI300
aI300
aI300
aI300
aI300
aI300
aI300
aI300
aI300
aI300
aI300
aI300
aI300
aI300
aI300
aI300
aI300
aI300
aI300
aI300
aI300
aI300
aI300
aI300
aI300
aI300
aI300
aI300
aI300
aI300
aI300
aI300
aI300
aI300
aI300
aI300
aI300
aI300
aI300
aI300
aI300
aI300
a.