(lp0
I50
aI51
aI52
aI53
aI54
aI55
aI56
aI57
aI58
aI59
aI60
aI61
aI62
aI63
aI64
aI65
aI66
aI67
aI68
aI69
aI70
aI71
aI72
aI73
aI74
aI75
aI76
aI77
aI78
aI79
aI80
aI81
aI82
aI83
aI84
aI85
aI86
aI87
aI88
aI89
aI90
aI91
aI92
aI93
aI94
aI95
aI96
aI97
aI98
aI99
aI100
aI101
aI102
aI103
aI104
aI105
aI106
aI107
aI108
aI109
aI110
aI111
aI112
aI113
aI114
aI115
aI116
aI117
aI118
aI119
aI120
aI121
aI122
aI123
aI124
aI125
aI126
aI127
aI128
aI129
aI130
aI131
aI132
aI133
aI134
aI135
aI136
aI137
aI138
aI139
aI140
aI141
aI142
aI143
aI144
aI145
aI146
aI147
aI148
aI149
aI150
aI151
aI152
aI153
aI154
aI155
aI156
aI157
aI158
aI159
aI160
aI161
aI162
aI163
aI164
aI165
aI166
aI167
aI168
aI169
aI170
aI171
aI172
aI173
aI174
aI175
aI176
aI177
a.(lp0
I1700
aI1700
aI1708
aI1708
aI1712
aI1712
aI1712
aI1708
aI1704
aI1704
aI1704
aI1704
aI1704
aI1704
aI1712
aI1712
aI1712
aI1712
aI1720
aI1724
aI1728
aI1728
aI1728
aI1728
aI1728
aI1728
aI1728
aI1728
aI1728
aI1728
aI1728
aI1728
aI1728
aI1728
aI1728
aI1732
aI1748
aI1752
aI1752
aI1752
aI1752
aI1752
aI1752
aI1752
aI1752
aI1752
aI1752
aI1752
aI1752
aI1752
aI1752
aI1752
aI1752
aI1752
aI1752
aI1752
aI1752
aI1752
aI1752
aI1752
aI1756
aI1760
aI1768
aI1776
aI1784
aI1796
aI1808
aI1820
aI1824
aI1824
aI1828
aI1832
aI1832
aI1820
aI1808
aI1800
aI1792
aI1784
aI1772
aI1764
aI1760
aI1752
aI1744
aI1740
aI1740
aI1740
aI1740
aI1740
aI1740
aI1740
aI1740
aI1760
aI1776
aI1784
aI1792
aI1800
aI1812
aI1828
aI1828
aI1832
aI1832
aI1832
aI1832
aI1832
aI1832
aI1832
aI1844
aI1856
aI1868
aI1872
aI1876
aI1876
aI1876
aI1876
aI1892
aI1896
aI1900
aI1912
aI1912
aI1920
aI1920
aI1920
aI1928
aI1928
aI1928
aI1920
aI1920
aI1920
a.(lp0
I1480
aI1476
aI1476
aI1484
aI1492
aI1500
aI1504
aI1524
aI1544
aI1560
aI1572
aI1576
aI1584
aI1588
aI1592
aI1592
aI1592
aI1592
aI1596
aI1608
aI1620
aI1624
aI1628
aI1628
aI1628
aI1628
aI1628
aI1628
aI1628
aI1628
aI1628
aI1628
aI1628
aI1628
aI1628
aI1628
aI1620
aI1616
aI1616
aI1616
aI1616
aI1616
aI1616
aI1616
aI1616
aI1616
aI1616
aI1616
aI1616
aI1616
aI1616
aI1616
aI1616
aI1616
aI1616
aI1616
aI1616
aI1616
aI1616
aI1616
aI1608
aI1608
aI1600
aI1592
aI1588
aI1580
aI1572
aI1568
aI1560
aI1560
aI1552
aI1544
aI1536
aI1524
aI1512
aI1504
aI1500
aI1500
aI1496
aI1496
aI1496
aI1500
aI1508
aI1520
aI1540
aI1560
aI1568
aI1568
aI1568
aI1568
aI1568
aI1560
aI1556
aI1552
aI1552
aI1552
aI1552
aI1556
aI1556
aI1556
aI1556
aI1556
aI1556
aI1556
aI1556
aI1556
aI1552
aI1548
aI1548
aI1548
aI1548
aI1548
aI1548
aI1548
aI1540
aI1536
aI1528
aI1520
aI1520
aI1520
aI1520
aI1520
aI1512
aI1508
aI1512
aI1520
aI1544
aI1552
a.(lp0
I300
aI300
aI300
aI300
aI300
aI300
aI300
aI300
aI300
aI300
aI300
aI300
aI300
aI300
aI300
aI300
aI300
aI300
aI300
aI300
aI300
aI300
aI300
aI300
aI300
aI300
aI300
aI300
aI300
aI300
aI300
aI300
aI300
aI300
aI300
aI300
aI300
aI300
aI300
aI300
aI300
aI300
aI300
aI300
aI300
aI300
aI300
aI300
aI300
aI300
aI300
aI300
aI300
aI300
aI300
aI300
aI300
aI300
aI300
aI300
aI300
aI300
aI300
aI300
aI300
aI300
aI300
aI300
aI300
aI300
aI300
aI300
aI300
aI300
aI300
aI300
aI300
aI300
aI300
aI300
aI300
aI300
aI300
aI300
aI300
aI300
aI300
aI300
aI300
aI300
aI300
aI300
aI300
aI300
aI300
aI300
aI300
aI300
aI300
aI300
aI300
aI300
aI300
aI300
aI300
aI300
aI300
aI300
aI300
aI300
aI300
aI300
aI300
aI300
aI300
aI300
aI300
aI300
aI300
aI300
aI300
aI300
aI300
aI300
aI300
aI300
aI300
aI300
a.