(lp0
I329
aI330
aI331
aI332
aI333
aI334
aI335
aI336
aI337
aI338
aI339
aI340
aI341
aI342
aI343
aI344
aI345
aI346
aI347
aI348
aI349
aI350
aI351
aI352
aI353
aI354
aI355
aI356
aI357
aI358
aI359
aI360
aI361
aI362
aI363
aI364
aI365
aI366
aI367
aI368
aI369
aI370
aI371
aI372
aI373
aI374
aI375
aI376
aI377
aI378
aI379
aI380
aI381
aI382
aI383
aI384
aI385
aI386
aI387
aI388
aI389
aI390
aI391
aI392
aI393
aI394
aI395
aI396
aI397
aI398
aI399
aI400
aI401
aI402
aI403
aI404
aI405
aI406
aI407
aI408
aI409
aI410
aI411
aI412
aI413
aI414
aI415
aI416
aI417
aI418
aI419
aI420
aI421
aI422
aI423
aI424
aI425
aI426
aI427
aI428
aI429
aI430
aI431
aI432
aI433
aI434
aI435
aI436
aI437
aI438
aI439
aI440
aI441
aI442
aI443
aI444
aI445
aI446
aI447
aI448
aI449
aI450
aI451
aI452
aI453
aI454
aI455
aI456
aI457
aI458
aI459
aI460
aI461
aI462
aI463
aI464
aI465
aI466
aI467
aI468
aI469
aI470
aI471
aI472
aI473
aI474
aI475
aI476
aI477
aI478
aI479
aI480
aI481
aI482
aI483
aI484
aI485
aI486
aI487
aI488
aI489
aI490
aI491
aI492
aI493
aI494
aI495
aI496
aI497
aI498
aI499
aI500
aI501
aI502
aI503
aI504
aI505
aI506
aI507
aI508
aI509
aI510
aI511
aI512
aI513
aI514
aI515
aI516
aI517
aI518
aI519
aI520
aI521
aI522
aI523
aI524
aI525
aI526
aI527
aI528
aI529
aI530
aI531
aI532
aI533
aI534
aI535
aI536
aI537
aI538
aI539
aI540
aI541
aI542
aI543
aI544
aI545
aI546
aI547
aI548
aI549
aI550
aI551
aI552
aI553
aI554
aI555
aI556
aI557
aI558
aI559
aI560
aI561
aI562
aI563
aI564
aI565
aI566
aI567
aI568
aI569
aI570
aI571
aI572
aI573
aI574
aI575
aI576
aI577
aI578
aI579
aI580
aI581
aI582
aI583
aI584
aI585
aI586
aI587
aI588
aI589
aI590
aI591
aI592
aI593
aI594
aI595
aI596
aI597
aI598
aI599
aI600
aI601
aI602
aI603
aI604
aI605
aI606
aI607
aI608
aI609
aI610
aI611
aI612
aI613
aI614
aI615
aI616
aI617
aI618
aI619
aI620
aI621
aI622
aI623
aI624
aI625
aI626
aI627
aI628
aI629
aI630
aI631
aI632
aI633
aI634
aI635
aI636
aI637
aI638
aI639
aI640
aI641
aI642
aI643
aI644
aI645
aI646
aI647
aI648
aI649
aI650
aI651
aI652
aI653
aI654
aI655
aI656
aI657
aI658
aI659
aI660
aI661
aI662
aI663
aI664
aI665
aI666
aI667
aI668
aI669
aI670
aI671
aI672
aI673
aI674
aI675
aI676
aI677
aI678
aI679
aI680
aI681
aI682
aI683
aI684
aI685
aI686
aI687
aI688
aI689
aI690
aI691
aI692
aI693
aI694
aI695
aI696
aI697
aI698
aI699
aI700
aI701
aI702
aI703
aI704
aI705
aI706
aI707
aI708
aI709
aI710
aI711
aI712
aI713
aI714
aI715
aI716
aI717
aI718
aI719
aI720
aI721
aI722
aI723
aI724
aI725
aI726
aI727
aI728
aI729
aI730
aI731
aI732
aI733
aI734
aI735
aI736
aI737
aI738
aI739
aI740
aI741
aI742
aI743
aI744
aI745
aI746
aI747
aI748
aI749
aI750
aI751
aI752
aI753
aI754
aI755
aI756
aI757
aI758
aI759
aI760
aI761
aI762
aI763
aI764
aI765
aI766
aI767
aI768
aI769
aI770
aI771
aI772
aI773
aI774
aI775
aI776
aI777
aI778
aI779
aI780
aI781
aI782
aI783
aI784
aI785
aI786
aI787
aI788
aI789
aI790
aI791
aI792
aI793
aI794
aI795
aI796
aI797
aI798
aI799
aI800
aI801
aI802
aI803
aI804
aI805
aI806
aI807
aI808
aI809
aI810
aI811
aI812
aI813
aI814
aI815
aI816
aI817
aI818
aI819
aI820
aI821
aI822
aI823
aI824
aI825
aI826
aI827
aI828
aI829
aI830
aI831
aI832
aI833
aI834
aI835
aI836
aI837
aI838
aI839
aI840
aI841
aI842
aI843
aI844
aI845
aI846
aI847
aI848
aI849
aI850
aI851
aI852
aI853
aI854
aI855
aI856
aI857
aI858
aI859
aI860
aI861
aI862
aI863
aI864
aI865
aI866
aI867
aI868
aI869
aI870
aI871
aI872
aI873
aI874
aI875
aI876
aI877
aI878
aI879
aI880
aI881
aI882
aI883
aI884
aI885
aI886
aI887
aI888
aI889
aI890
aI891
aI892
aI893
a.(lp0
I2384
aI2384
aI2372
aI2368
aI2364
aI2364
aI2364
aI2364
aI2364
aI2364
aI2364
aI2364
aI2364
aI2364
aI2364
aI2360
aI2360
aI2360
aI2360
aI2360
aI2360
aI2360
aI2360
aI2360
aI2360
aI2360
aI2360
aI2360
aI2360
aI2360
aI2372
aI2376
aI2376
aI2376
aI2376
aI2376
aI2376
aI2384
aI2400
aI2408
aI2408
aI2408
aI2408
aI2408
aI2408
aI2408
aI2408
aI2408
aI2408
aI2408
aI2408
aI2408
aI2408
aI2408
aI2408
aI2404
aI2404
aI2404
aI2404
aI2404
aI2404
aI2404
aI2376
aI2372
aI2372
aI2372
aI2352
aI2340
aI2340
aI2340
aI2340
aI2340
aI2340
aI2336
aI2328
aI2328
aI2328
aI2328
aI2332
aI2336
aI2328
aI2300
aI2300
aI2300
aI2296
aI2292
aI2284
aI2280
aI2280
aI2280
aI2296
aI2300
aI2284
aI2284
aI2284
aI2284
aI2284
aI2280
aI2300
aI2300
aI2300
aI2280
aI2276
aI2276
aI2276
aI2276
aI2268
aI2268
aI2276
aI2284
aI2284
aI2284
aI2292
aI2284
aI2284
aI2296
aI2300
aI2312
aI2328
aI2328
aI2332
aI2360
aI2372
aI2372
aI2332
aI2324
aI2324
aI2324
aI2340
aI2340
aI2332
aI2332
aI2356
aI2364
aI2364
aI2332
aI2324
aI2324
aI2332
aI2344
aI2352
aI2356
aI2356
aI2364
aI2364
aI2368
aI2368
aI2368
aI2384
aI2384
aI2388
aI2392
aI2396
aI2396
aI2396
aI2396
aI2396
aI2396
aI2396
aI2400
aI2408
aI2416
aI2416
aI2420
aI2424
aI2424
aI2424
aI2424
aI2424
aI2424
aI2424
aI2428
aI2432
aI2432
aI2432
aI2440
aI2440
aI2440
aI2448
aI2440
aI2436
aI2424
aI2424
aI2424
aI2424
aI2448
aI2456
aI2460
aI2468
aI2472
aI2436
aI2428
aI2428
aI2428
aI2432
aI2444
aI2448
aI2448
aI2448
aI2432
aI2428
aI2448
aI2452
aI2452
aI2444
aI2444
aI2444
aI2444
aI2444
aI2440
aI2440
aI2436
aI2436
aI2420
aI2408
aI2424
aI2436
aI2440
aI2448
aI2448
aI2448
aI2448
aI2428
aI2416
aI2412
aI2412
aI2412
aI2424
aI2440
aI2440
aI2440
aI2440
aI2440
aI2440
aI2440
aI2440
aI2440
aI2440
aI2440
aI2440
aI2440
aI2440
aI2440
aI2440
aI2440
aI2448
aI2452
aI2452
aI2452
aI2452
aI2452
aI2452
aI2452
aI2452
aI2452
aI2452
aI2452
aI2452
aI2452
aI2452
aI2452
aI2452
aI2452
aI2496
aI2500
aI2500
aI2504
aI2508
aI2524
aI2524
aI2528
aI2528
aI2528
aI2528
aI2528
aI2528
aI2528
aI2528
aI2524
aI2512
aI2504
aI2504
aI2504
aI2504
aI2504
aI2504
aI2504
aI2504
aI2504
aI2516
aI2528
aI2540
aI2548
aI2556
aI2564
aI2568
aI2568
aI2572
aI2576
aI2576
aI2576
aI2576
aI2568
aI2560
aI2556
aI2556
aI2556
aI2556
aI2572
aI2580
aI2584
aI2592
aI2592
aI2592
aI2596
aI2604
aI2604
aI2604
aI2604
aI2592
aI2576
aI2572
aI2568
aI2584
aI2596
aI2616
aI2632
aI2632
aI2632
aI2624
aI2628
aI2628
aI2628
aI2628
aI2632
aI2648
aI2652
aI2660
aI2664
aI2648
aI2648
aI2648
aI2648
aI2648
aI2652
aI2632
aI2616
aI2612
aI2612
aI2608
aI2608
aI2612
aI2632
aI2644
aI2644
aI2644
aI2644
aI2644
aI2644
aI2644
aI2664
aI2668
aI2668
aI2668
aI2652
aI2628
aI2628
aI2624
aI2624
aI2624
aI2632
aI2640
aI2648
aI2656
aI2656
aI2632
aI2624
aI2620
aI2616
aI2616
aI2632
aI2640
aI2644
aI2644
aI2644
aI2628
aI2620
aI2616
aI2608
aI2604
aI2604
aI2604
aI2604
aI2604
aI2604
aI2604
aI2616
aI2624
aI2648
aI2648
aI2648
aI2648
aI2648
aI2632
aI2616
aI2608
aI2600
aI2600
aI2600
aI2600
aI2600
aI2600
aI2600
aI2600
aI2600
aI2600
aI2600
aI2624
aI2632
aI2632
aI2620
aI2620
aI2620
aI2620
aI2620
aI2620
aI2620
aI2620
aI2620
aI2608
aI2608
aI2608
aI2608
aI2608
aI2608
aI2608
aI2608
aI2608
aI2608
aI2608
aI2608
aI2608
aI2608
aI2608
aI2608
aI2608
aI2608
aI2608
aI2608
aI2608
aI2608
aI2608
aI2608
aI2608
aI2608
aI2608
aI2608
aI2608
aI2608
aI2608
aI2608
aI2608
aI2608
aI2608
aI2608
aI2608
aI2608
aI2608
aI2608
aI2608
aI2608
aI2616
aI2624
aI2632
aI2640
aI2640
aI2640
aI2640
aI2616
aI2604
aI2604
aI2604
aI2600
aI2600
aI2592
aI2592
aI2592
aI2592
aI2592
aI2584
aI2568
aI2568
aI2568
aI2576
aI2580
aI2584
aI2592
aI2600
aI2608
aI2620
aI2640
aI2640
aI2640
aI2640
aI2640
aI2640
aI2640
aI2640
aI2628
aI2624
aI2624
aI2624
aI2624
aI2616
aI2616
aI2616
aI2616
aI2616
aI2616
aI2616
aI2620
aI2624
aI2640
aI2644
aI2648
aI2648
aI2648
aI2648
aI2648
aI2648
aI2648
aI2648
aI2648
aI2648
aI2648
aI2648
aI2648
aI2648
aI2648
aI2652
aI2652
aI2656
aI2656
aI2656
aI2656
aI2656
aI2656
aI2656
aI2656
aI2656
aI2656
aI2664
aI2664
aI2664
aI2664
aI2656
aI2648
aI2644
aI2640
aI2652
aI2664
aI2668
aI2656
aI2648
aI2648
a.(lp0
I1192
aI1192
aI1184
aI1180
aI1176
aI1176
aI1176
aI1176
aI1176
aI1176
aI1176
aI1176
aI1176
aI1176
aI1176
aI1176
aI1176
aI1180
aI1180
aI1180
aI1180
aI1180
aI1180
aI1180
aI1180
aI1180
aI1180
aI1180
aI1180
aI1180
aI1184
aI1188
aI1188
aI1188
aI1188
aI1188
aI1188
aI1188
aI1180
aI1176
aI1172
aI1172
aI1168
aI1168
aI1168
aI1168
aI1168
aI1168
aI1168
aI1168
aI1168
aI1168
aI1168
aI1168
aI1160
aI1156
aI1152
aI1152
aI1152
aI1152
aI1152
aI1152
aI1140
aI1140
aI1140
aI1140
aI1132
aI1132
aI1132
aI1132
aI1132
aI1120
aI1120
aI1120
aI1120
aI1120
aI1120
aI1120
aI1120
aI1120
aI1124
aI1128
aI1124
aI1124
aI1120
aI1112
aI1100
aI1096
aI1096
aI1096
aI1100
aI1104
aI1096
aI1096
aI1096
aI1096
aI1096
aI1096
aI1112
aI1112
aI1112
aI1096
aI1096
aI1096
aI1096
aI1096
aI1088
aI1080
aI1080
aI1112
aI1116
aI1116
aI1096
aI1080
aI1072
aI1052
aI1044
aI1044
aI1040
aI1040
aI1040
aI1040
aI1036
aI1036
aI1020
aI1020
aI1020
aI1020
aI1036
aI1036
aI1024
aI1020
aI1012
aI1004
aI1004
aI1004
aI996
aI996
aI1004
aI1004
aI1012
aI1012
aI1012
aI1012
aI1012
aI1012
aI1012
aI1012
aI1004
aI1004
aI1004
aI1004
aI1004
aI1004
aI1008
aI1008
aI1008
aI1008
aI1008
aI1004
aI996
aI996
aI996
aI988
aI984
aI980
aI980
aI976
aI976
aI976
aI976
aI980
aI980
aI980
aI984
aI980
aI980
aI976
aI972
aI952
aI952
aI944
aI944
aI944
aI944
aI940
aI936
aI936
aI952
aI952
aI892
aI880
aI880
aI880
aI912
aI928
aI932
aI932
aI920
aI912
aI904
aI896
aI896
aI896
aI912
aI912
aI912
aI912
aI912
aI912
aI912
aI916
aI896
aI880
aI872
aI864
aI856
aI856
aI852
aI852
aI852
aI852
aI844
aI840
aI840
aI840
aI840
aI832
aI824
aI824
aI824
aI824
aI824
aI824
aI824
aI824
aI824
aI824
aI824
aI824
aI824
aI824
aI824
aI824
aI824
aI812
aI792
aI788
aI788
aI780
aI776
aI776
aI772
aI772
aI772
aI772
aI772
aI772
aI772
aI772
aI772
aI772
aI772
aI772
aI780
aI780
aI780
aI780
aI780
aI780
aI780
aI780
aI780
aI780
aI768
aI764
aI756
aI748
aI740
aI728
aI712
aI712
aI712
aI712
aI712
aI712
aI712
aI712
aI712
aI712
aI712
aI712
aI708
aI704
aI704
aI700
aI700
aI696
aI696
aI704
aI724
aI724
aI728
aI732
aI724
aI712
aI712
aI712
aI712
aI716
aI716
aI728
aI744
aI744
aI744
aI748
aI752
aI752
aI756
aI756
aI752
aI756
aI756
aI760
aI756
aI752
aI756
aI756
aI756
aI788
aI796
aI796
aI796
aI796
aI796
aI776
aI776
aI780
aI796
aI812
aI816
aI820
aI820
aI820
aI816
aI816
aI820
aI820
aI820
aI824
aI836
aI836
aI844
aI844
aI844
aI844
aI844
aI844
aI844
aI852
aI852
aI844
aI844
aI844
aI844
aI852
aI852
aI856
aI872
aI896
aI888
aI872
aI864
aI864
aI864
aI864
aI860
aI860
aI856
aI836
aI828
aI820
aI820
aI820
aI820
aI820
aI828
aI828
aI832
aI836
aI836
aI836
aI836
aI836
aI836
aI828
aI824
aI816
aI812
aI812
aI812
aI780
aI756
aI748
aI744
aI740
aI736
aI736
aI736
aI736
aI736
aI736
aI736
aI736
aI736
aI736
aI736
aI720
aI712
aI712
aI684
aI684
aI684
aI684
aI684
aI684
aI684
aI684
aI684
aI668
aI668
aI668
aI668
aI668
aI668
aI668
aI668
aI668
aI668
aI668
aI668
aI668
aI668
aI668
aI668
aI668
aI668
aI668
aI668
aI668
aI668
aI668
aI668
aI672
aI672
aI672
aI672
aI672
aI672
aI672
aI672
aI672
aI672
aI676
aI680
aI680
aI688
aI696
aI708
aI716
aI720
aI728
aI744
aI760
aI772
aI776
aI776
aI776
aI744
aI732
aI732
aI732
aI744
aI756
aI764
aI764
aI764
aI764
aI764
aI772
aI780
aI780
aI780
aI784
aI788
aI796
aI800
aI800
aI804
aI820
aI844
aI844
aI844
aI852
aI864
aI880
aI884
aI888
aI892
aI892
aI892
aI892
aI892
aI896
aI904
aI916
aI916
aI916
aI916
aI924
aI928
aI940
aI948
aI952
aI952
aI952
aI952
aI952
aI952
aI952
aI952
aI952
aI952
aI952
aI952
aI952
aI952
aI952
aI952
aI952
aI952
aI948
aI948
aI948
aI948
aI948
aI948
aI948
aI948
aI948
aI944
aI936
aI932
aI932
aI932
aI932
aI940
aI944
aI944
aI916
aI900
aI896
aI896
aI904
aI904
a.