(lp0
I4723
aI4724
aI4725
aI4726
aI4727
aI4728
aI4729
aI4730
aI4731
aI4732
aI4733
aI4734
aI4735
aI4736
aI4737
aI4738
aI4739
aI4740
aI4741
aI4742
aI4743
aI4744
aI4745
aI4746
aI4747
aI4748
aI4749
aI4750
aI4751
aI4752
aI4753
aI4754
aI4755
aI4756
aI4757
aI4758
aI4759
aI4760
aI4761
aI4762
aI4763
aI4764
aI4765
aI4766
aI4767
aI4768
aI4769
aI4770
aI4771
aI4772
aI4773
aI4774
aI4775
aI4776
aI4777
aI4778
aI4779
aI4780
aI4781
aI4782
aI4783
aI4784
aI4785
aI4786
aI4787
aI4788
aI4789
aI4790
aI4791
aI4792
aI4793
aI4794
aI4795
aI4796
aI4797
aI4798
aI4799
aI4800
aI4801
aI4802
aI4803
aI4804
aI4805
aI4806
aI4819
aI4820
aI4821
aI4822
aI4823
aI4824
aI4825
aI4826
aI4827
aI4828
aI4829
aI4830
aI4831
aI4832
aI4833
aI4834
aI4835
aI4836
aI4837
aI4838
aI4839
aI4840
aI4841
aI4842
aI4843
aI4844
aI4845
aI4846
aI4847
aI4848
aI4849
aI4850
aI4851
aI4852
aI4853
aI4854
aI4855
aI4856
aI4857
aI4858
aI4859
aI4860
aI4861
aI4862
aI4863
aI4864
aI4865
aI4866
aI4884
aI4885
aI4886
aI4887
aI4888
aI4889
aI4890
aI4891
aI4892
aI4893
aI4894
aI4895
aI4896
aI4897
aI4898
aI4899
aI4900
aI4901
aI4902
aI4903
aI4904
aI4905
aI4906
aI4907
aI4908
aI4909
aI4910
aI4911
aI4912
aI4913
aI4914
aI4915
aI4916
aI4917
aI4918
aI4919
aI4920
aI4921
aI4922
aI4923
aI4924
aI4925
aI4926
aI4927
aI4928
aI4929
aI4930
aI4931
aI4932
aI4933
aI4934
aI4935
aI4936
aI4937
aI4938
aI4939
aI4940
aI4941
aI4942
aI4943
aI4944
aI4945
aI4946
aI4947
aI4948
aI4949
aI4950
aI4951
aI4952
aI4953
aI4954
aI4955
aI4956
aI4957
aI4958
aI4959
aI4960
aI4961
aI4962
aI4963
aI4964
aI4965
aI4966
aI4967
aI4968
aI4969
aI4970
aI4971
aI4972
aI4973
aI4974
aI4975
aI4976
aI4977
aI4978
aI4979
aI4980
aI4981
aI4982
aI4983
aI4984
aI4985
aI4986
aI4987
aI4988
aI4989
aI4990
aI4991
aI4992
aI4993
aI4994
aI4995
aI4996
aI4997
aI4998
aI4999
aI5000
aI5001
aI5002
aI5003
aI5004
aI5005
aI5006
aI5007
aI5008
aI5009
aI5010
aI5011
aI5012
aI5013
aI5014
aI5015
aI5016
aI5017
aI5018
aI5019
aI5020
aI5021
aI5022
aI5023
aI5024
aI5025
aI5026
aI5027
aI5028
aI5029
aI5030
aI5031
aI5032
aI5033
aI5034
aI5035
aI5036
aI5037
aI5038
aI5039
aI5040
aI5041
aI5042
aI5043
aI5044
aI5045
aI5046
aI5047
aI5048
aI5049
aI5050
aI5051
aI5052
aI5053
aI5054
aI5055
aI5056
aI5057
aI5058
aI5059
aI5060
aI5061
aI5062
aI5063
aI5064
aI5065
aI5066
aI5067
aI5068
aI5069
aI5070
aI5071
aI5072
aI5073
aI5074
aI5075
aI5076
aI5077
aI5078
aI5079
aI5080
aI5081
aI5082
aI5083
aI5084
aI5085
aI5086
aI5087
aI5088
aI5089
aI5090
aI5091
aI5092
aI5093
aI5094
aI5095
aI5096
aI5097
aI5098
aI5099
aI5100
aI5101
aI5102
aI5103
aI5104
aI5105
aI5106
aI5107
a.(lp0
I2016
aI2016
aI2020
aI2024
aI2024
aI2020
aI2020
aI2020
aI2008
aI1992
aI1980
aI1952
aI1952
aI1944
aI1944
aI1944
aI1972
aI1976
aI1976
aI1984
aI1984
aI1984
aI2000
aI2004
aI2004
aI2004
aI2004
aI2004
aI2004
aI2004
aI1936
aI1892
aI1880
aI1860
aI1860
aI1860
aI1860
aI1860
aI1860
aI1860
aI1860
aI1860
aI1860
aI1860
aI1852
aI1860
aI1860
aI1860
aI1860
aI1860
aI1860
aI1860
aI1860
aI1848
aI1796
aI1784
aI1776
aI1768
aI1760
aI1748
aI1728
aI1728
aI1720
aI1732
aI1728
aI1708
aI1684
aI1600
aI1588
aI1588
aI1596
aI1584
aI1584
aI1592
aI1600
aI1672
aI1660
aI1644
aI1636
aI1608
aI1584
aI1568
aI1544
aI1540
aI1584
aI1584
aI1584
aI1584
aI1584
aI1584
aI1584
aI1584
aI1584
aI1584
aI1584
aI1584
aI1584
aI1584
aI1584
aI1584
aI1584
aI1584
aI1584
aI1584
aI1584
aI1584
aI1584
aI1584
aI1584
aI1584
aI1584
aI1584
aI1584
aI1584
aI1584
aI1584
aI1572
aI1568
aI1568
aI1568
aI1560
aI1560
aI1556
aI1556
aI1556
aI1552
aI1552
aI1552
aI1552
aI1552
aI1552
aI1552
aI1564
aI1568
aI1584
aI1584
aI1584
aI1584
aI1584
aI1584
aI1584
aI1584
aI1584
aI1584
aI1584
aI1584
aI1584
aI1584
aI1584
aI1584
aI1584
aI1584
aI1584
aI1584
aI1584
aI1584
aI1584
aI1584
aI1584
aI1584
aI1584
aI1584
aI1584
aI1584
aI1584
aI1584
aI1584
aI1584
aI1584
aI1584
aI1584
aI1584
aI1592
aI1592
aI1592
aI1592
aI1592
aI1592
aI1588
aI1588
aI1592
aI1592
aI1592
aI1596
aI1604
aI1620
aI1628
aI1644
aI1648
aI1660
aI1624
aI1612
aI1612
aI1612
aI1612
aI1612
aI1596
aI1604
aI1604
aI1612
aI1628
aI1644
aI1652
aI1652
aI1660
aI1660
aI1660
aI1660
aI1660
aI1660
aI1660
aI1660
aI1660
aI1668
aI1668
aI1668
aI1668
aI1668
aI1668
aI1668
aI1668
aI1668
aI1668
aI1668
aI1668
aI1668
aI1668
aI1668
aI1668
aI1668
aI1668
aI1668
aI1668
aI1668
aI1668
aI1668
aI1668
aI1668
aI1668
aI1668
aI1668
aI1668
aI1668
aI1668
aI1668
aI1668
aI1668
aI1668
aI1668
aI1668
aI1668
aI1668
aI1668
aI1668
aI1676
aI1684
aI1684
aI1784
aI1792
aI1792
aI1816
aI1836
aI1900
aI1920
aI1920
aI1932
aI1892
aI1848
aI1796
aI1736
aI1696
aI1692
aI1692
aI1692
aI1692
aI1692
aI1692
aI1692
aI1692
aI1692
aI1692
aI1692
aI1680
aI1628
aI1620
aI1592
aI1584
aI1580
aI1580
aI1580
aI1580
aI1580
aI1580
aI1580
aI1580
aI1580
aI1580
aI1580
aI1580
aI1580
aI1580
aI1580
aI1580
aI1580
aI1580
aI1580
aI1580
aI1580
aI1580
aI1580
aI1588
aI1596
aI1612
aI1612
aI1612
aI1612
aI1612
aI1612
aI1612
aI1612
aI1612
aI1612
aI1612
aI1612
aI1612
aI1612
aI1612
aI1612
aI1612
aI1612
aI1612
aI1612
aI1612
aI1612
aI1612
aI1612
aI1612
aI1612
aI1612
aI1612
aI1612
aI1612
aI1612
aI1612
aI1612
aI1612
aI1612
aI1612
aI1612
aI1612
aI1612
aI1616
aI1624
aI1632
aI1632
aI1632
a.(lp0
I936
aI952
aI956
aI984
aI1012
aI1036
aI1048
aI1064
aI1076
aI1080
aI1092
aI1096
aI1096
aI1096
aI1096
aI1096
aI1096
aI1088
aI1076
aI1076
aI1076
aI1076
aI1076
aI1076
aI1076
aI1076
aI1076
aI1076
aI1076
aI1076
aI1088
aI1088
aI1088
aI1088
aI1088
aI1088
aI1088
aI1088
aI1088
aI1088
aI1088
aI1088
aI1088
aI1088
aI1092
aI1096
aI1096
aI1096
aI1096
aI1096
aI1096
aI1096
aI1096
aI1104
aI1120
aI1128
aI1144
aI1160
aI1172
aI1184
aI1188
aI1188
aI1188
aI1192
aI1196
aI1196
aI1196
aI1196
aI1196
aI1196
aI1192
aI1172
aI1168
aI1168
aI1160
aI1136
aI1104
aI1088
aI1068
aI1036
aI996
aI952
aI912
aI904
aI904
aI924
aI944
aI948
aI956
aI956
aI956
aI956
aI956
aI956
aI956
aI956
aI956
aI956
aI956
aI956
aI956
aI956
aI956
aI956
aI956
aI956
aI956
aI956
aI956
aI956
aI956
aI956
aI956
aI956
aI956
aI956
aI948
aI944
aI944
aI944
aI928
aI924
aI920
aI912
aI912
aI912
aI908
aI908
aI904
aI904
aI904
aI904
aI904
aI912
aI920
aI920
aI920
aI920
aI920
aI920
aI920
aI920
aI920
aI920
aI920
aI920
aI920
aI920
aI920
aI920
aI920
aI920
aI920
aI920
aI920
aI920
aI920
aI920
aI920
aI920
aI920
aI920
aI920
aI920
aI920
aI920
aI920
aI920
aI920
aI920
aI920
aI920
aI936
aI956
aI960
aI960
aI968
aI976
aI988
aI1004
aI1012
aI1032
aI1040
aI1052
aI1068
aI1096
aI1112
aI1132
aI1144
aI1176
aI1176
aI1176
aI1176
aI1176
aI1176
aI1176
aI1184
aI1188
aI1192
aI1200
aI1216
aI1228
aI1236
aI1240
aI1244
aI1244
aI1244
aI1244
aI1244
aI1244
aI1244
aI1244
aI1244
aI1232
aI1228
aI1228
aI1228
aI1228
aI1228
aI1228
aI1228
aI1228
aI1228
aI1228
aI1228
aI1228
aI1228
aI1228
aI1228
aI1228
aI1228
aI1228
aI1228
aI1228
aI1228
aI1228
aI1228
aI1228
aI1228
aI1228
aI1228
aI1228
aI1228
aI1228
aI1228
aI1228
aI1228
aI1228
aI1228
aI1228
aI1228
aI1228
aI1228
aI1228
aI1228
aI1228
aI1228
aI1228
aI1220
aI1220
aI1220
aI1220
aI1204
aI1188
aI1188
aI1188
aI1188
aI1188
aI1176
aI1160
aI1160
aI1160
aI1160
aI1160
aI1160
aI1160
aI1160
aI1160
aI1160
aI1160
aI1160
aI1160
aI1160
aI1160
aI1160
aI1140
aI1132
aI1132
aI1132
aI1132
aI1132
aI1132
aI1132
aI1132
aI1132
aI1132
aI1132
aI1132
aI1132
aI1132
aI1132
aI1132
aI1132
aI1132
aI1132
aI1132
aI1132
aI1132
aI1132
aI1132
aI1132
aI1124
aI1112
aI1112
aI1112
aI1112
aI1112
aI1112
aI1112
aI1112
aI1112
aI1112
aI1112
aI1112
aI1112
aI1112
aI1112
aI1112
aI1112
aI1112
aI1112
aI1112
aI1112
aI1112
aI1112
aI1112
aI1112
aI1112
aI1112
aI1112
aI1112
aI1112
aI1112
aI1112
aI1112
aI1112
aI1112
aI1112
aI1112
aI1112
aI1112
aI1112
aI1112
aI1108
aI1108
aI1108
a.(lp0
I1200
aI1200
aI1200
aI1200
aI1200
aI1200
aI1200
aI1200
aI1200
aI1200
aI1200
aI1200
aI1200
aI1200
aI1200
aI1200
aI1200
aI1200
aI1200
aI1200
aI1200
aI1200
aI1200
aI1200
aI1200
aI1200
aI1200
aI1200
aI1200
aI1200
aI1200
aI1200
aI1200
aI1200
aI1200
aI1200
aI1200
aI1200
aI1200
aI1200
aI1200
aI1200
aI1200
aI1200
aI1200
aI1200
aI1200
aI1200
aI1200
aI1200
aI1200
aI1200
aI1200
aI1200
aI1200
aI1200
aI1200
aI1200
aI1200
aI1200
aI1200
aI1200
aI1200
aI1200
aI1200
aI1200
aI1200
aI1200
aI1200
aI1200
aI1200
aI1200
aI1200
aI1200
aI1200
aI1200
aI1200
aI1200
aI1200
aI1200
aI1200
aI1200
aI1200
aI1200
aI1200
aI1200
aI1200
aI1200
aI1200
aI1200
aI1200
aI1200
aI1200
aI1200
aI1200
aI1200
aI1200
aI1200
aI1200
aI1200
aI1200
aI1200
aI1200
aI1200
aI1200
aI1200
aI1200
aI1200
aI1200
aI1200
aI1200
aI1200
aI1200
aI1200
aI1200
aI1200
aI1200
aI1200
aI1200
aI1200
aI1200
aI1200
aI1200
aI1200
aI1200
aI1200
aI1200
aI1200
aI1200
aI1200
aI1200
aI1200
aI1200
aI1200
aI1200
aI1200
aI1200
aI1200
aI1200
aI1200
aI1200
aI1200
aI1200
aI1200
aI1200
aI1200
aI1200
aI1200
aI1200
aI1200
aI1200
aI1200
aI1200
aI1200
aI1200
aI1200
aI1200
aI1200
aI1200
aI1200
aI1200
aI1200
aI1200
aI1200
aI1200
aI1200
aI1200
aI1200
aI1200
aI1200
aI1200
aI1200
aI1200
aI900
aI900
aI900
aI900
aI900
aI900
aI900
aI900
aI900
aI900
aI900
aI900
aI900
aI900
aI900
aI900
aI900
aI900
aI900
aI900
aI900
aI900
aI900
aI900
aI900
aI900
aI900
aI900
aI900
aI900
aI900
aI900
aI900
aI900
aI900
aI800
aI800
aI800
aI800
aI800
aI800
aI800
aI800
aI800
aI800
aI800
aI800
aI800
aI800
aI800
aI800
aI800
aI800
aI800
aI800
aI800
aI800
aI800
aI800
aI800
aI800
aI800
aI800
aI800
aI800
aI800
aI800
aI700
aI700
aI700
aI700
aI700
aI700
aI700
aI700
aI700
aI700
aI700
aI700
aI700
aI700
aI700
aI700
aI700
aI700
aI700
aI700
aI700
aI700
aI700
aI700
aI700
aI700
aI700
aI700
aI700
aI700
aI700
aI700
aI700
aI700
aI700
aI700
aI700
aI700
aI700
aI700
aI700
aI700
aI700
aI700
aI700
aI700
aI700
aI600
aI600
aI600
aI600
aI600
aI600
aI600
aI600
aI600
aI600
aI500
aI500
aI500
aI500
aI500
aI500
aI500
aI500
aI500
aI500
aI500
aI500
aI500
aI500
aI500
aI500
aI500
aI500
aI500
aI500
aI500
aI500
aI500
aI500
aI500
aI500
aI500
aI500
aI500
aI500
aI500
aI500
aI500
aI500
aI500
aI500
aI500
aI500
aI500
aI500
aI500
aI500
aI500
aI500
aI500
aI500
aI500
aI500
aI500
aI500
aI400
aI400
aI400
aI400
aI400
aI400
aI400
aI400
aI400
a.