(lp0
I3041
aI3042
aI3043
aI3044
aI3045
aI3046
aI3047
aI3048
aI3049
aI3050
aI3051
aI3052
aI3053
aI3054
aI3055
aI3056
aI3057
aI3058
aI3059
aI3060
aI3061
aI3062
aI3063
aI3064
aI3065
aI3066
aI3067
aI3068
aI3069
aI3070
aI3071
aI3072
aI3073
aI3074
aI3075
aI3076
aI3077
aI3078
aI3079
aI3080
aI3081
aI3082
aI3083
aI3084
aI3085
aI3086
aI3087
aI3088
aI3089
aI3090
aI3091
aI3092
aI3093
aI3094
aI3095
aI3096
aI3097
aI3098
aI3099
aI3100
aI3101
aI3102
aI3103
aI3104
aI3105
aI3106
aI3107
aI3108
aI3109
aI3110
aI3111
aI3112
aI3113
aI3114
aI3115
aI3116
aI3117
aI3118
aI3119
aI3120
aI3121
aI3122
aI3123
aI3124
aI3125
aI3126
aI3127
aI3128
aI3129
aI3130
aI3131
aI3132
aI3133
aI3134
aI3135
aI3136
aI3137
aI3138
aI3139
aI3140
aI3141
aI3142
aI3143
aI3144
aI3145
aI3146
aI3147
aI3148
aI3149
aI3150
aI3151
aI3152
aI3153
aI3154
aI3155
aI3156
aI3157
aI3158
aI3159
aI3160
aI3161
aI3162
aI3163
aI3164
aI3165
aI3166
aI3167
aI3168
aI3169
aI3170
aI3171
aI3172
aI3173
aI3174
aI3175
aI3176
aI3177
aI3178
aI3179
aI3180
aI3181
aI3182
aI3183
aI3184
aI3185
aI3186
aI3187
aI3188
aI3189
aI3190
aI3191
aI3192
aI3193
aI3194
aI3195
aI3196
aI3197
aI3198
aI3199
aI3200
aI3201
aI3202
aI3203
aI3204
aI3205
aI3206
aI3207
aI3208
aI3209
aI3210
aI3211
aI3212
aI3213
aI3214
aI3215
aI3216
aI3217
aI3218
aI3219
aI3220
aI3221
aI3222
aI3223
aI3224
aI3225
aI3226
aI3227
aI3228
aI3229
aI3230
aI3231
aI3232
aI3233
aI3234
aI3235
aI3236
aI3237
aI3238
aI3239
aI3240
aI3241
aI3242
aI3243
aI3244
aI3245
aI3246
aI3247
aI3248
aI3249
aI3250
aI3251
aI3252
aI3253
aI3254
aI3255
aI3256
aI3257
aI3258
aI3259
aI3260
aI3261
aI3262
aI3263
aI3264
aI3265
aI3266
aI3267
aI3268
aI3269
aI3270
aI3271
aI3272
aI3273
aI3274
aI3275
aI3276
aI3277
aI3278
aI3279
aI3280
aI3281
aI3282
aI3283
aI3284
aI3285
aI3286
aI3287
aI3288
aI3289
aI3290
aI3291
aI3292
aI3293
aI3294
aI3295
aI3296
aI3297
aI3298
aI3299
aI3300
aI3301
aI3302
aI3303
aI3304
aI3305
aI3306
aI3307
aI3308
aI3309
aI3310
aI3311
aI3312
aI3313
aI3314
aI3315
aI3316
aI3317
aI3318
aI3319
aI3320
aI3321
aI3322
aI3323
aI3324
aI3325
aI3326
aI3327
aI3328
aI3329
aI3330
aI3331
aI3332
aI3333
aI3334
aI3335
aI3336
aI3337
aI3338
aI3339
aI3340
aI3341
aI3342
aI3343
aI3344
aI3345
aI3346
aI3347
aI3348
aI3349
aI3350
aI3351
aI3352
aI3353
aI3354
aI3355
aI3356
aI3357
aI3358
aI3359
aI3360
aI3361
aI3362
aI3363
aI3364
aI3365
aI3366
aI3367
aI3368
aI3369
aI3370
aI3371
aI3372
aI3373
aI3374
aI3375
aI3376
aI3377
aI3378
aI3379
aI3380
aI3381
aI3382
aI3383
aI3384
aI3385
aI3386
aI3387
aI3388
aI3389
aI3390
aI3391
aI3392
aI3393
aI3394
aI3395
aI3396
aI3397
aI3398
aI3399
aI3400
aI3401
aI3402
aI3403
aI3404
aI3405
aI3406
aI3407
aI3408
aI3409
aI3410
aI3411
aI3412
aI3413
aI3414
aI3415
aI3416
aI3417
aI3418
aI3419
aI3420
aI3421
aI3422
aI3423
aI3424
aI3425
aI3426
aI3427
aI3428
aI3429
aI3430
aI3431
aI3432
aI3433
aI3434
aI3435
aI3436
aI3437
aI3438
aI3439
aI3440
aI3441
aI3442
aI3443
aI3444
aI3445
aI3446
aI3447
aI3448
aI3449
aI3450
aI3451
aI3452
aI3453
aI3454
aI3455
aI3456
aI3457
aI3458
aI3459
aI3460
aI3461
aI3462
aI3463
aI3464
aI3465
aI3466
aI3467
aI3468
aI3469
aI3470
aI3471
aI3472
aI3473
aI3474
aI3475
aI3476
aI3477
aI3478
aI3479
aI3480
aI3481
aI3482
aI3483
aI3484
aI3485
aI3486
aI3487
aI3488
aI3489
aI3490
aI3491
aI3492
aI3493
aI3494
aI3495
aI3496
aI3497
aI3498
aI3499
aI3500
aI3501
aI3502
aI3503
aI3504
aI3505
aI3506
aI3507
aI3508
aI3509
aI3510
aI3511
aI3512
aI3513
aI3514
aI3515
aI3516
aI3517
aI3518
aI3519
aI3520
aI3521
aI3522
aI3523
aI3524
aI3525
aI3526
aI3527
aI3528
aI3529
aI3530
aI3531
aI3532
aI3533
aI3534
aI3535
aI3536
aI3537
aI3538
aI3539
aI3540
aI3541
aI3542
aI3543
aI3544
aI3545
aI3546
aI3547
aI3548
aI3549
aI3550
aI3551
aI3552
aI3553
aI3554
aI3555
aI3556
aI3557
aI3558
aI3559
aI3560
aI3561
aI3562
aI3563
aI3564
aI3565
aI3566
aI3567
aI3568
aI3569
aI3570
aI3571
aI3572
aI3573
aI3574
aI3575
aI3576
aI3577
aI3578
aI3579
aI3580
aI3581
aI3582
aI3583
aI3584
aI3585
aI3586
aI3587
aI3588
aI3589
aI3590
aI3591
aI3592
aI3593
aI3594
aI3595
aI3596
aI3597
aI3598
aI3599
aI3600
aI3601
aI3602
aI3603
aI3604
aI3605
aI3606
aI3607
aI3608
aI3609
aI3610
aI3611
aI3612
aI3613
aI3614
aI3615
aI3616
aI3617
aI3618
aI3619
aI3620
aI3621
aI3622
aI3623
aI3624
aI3625
aI3626
aI3627
aI3628
aI3629
aI3630
aI3631
aI3632
aI3633
aI3634
aI3635
aI3636
aI3637
aI3638
aI3639
aI3640
aI3641
aI3642
aI3643
aI3644
aI3645
aI3646
aI3647
aI3648
aI3649
aI3650
aI3651
aI3652
aI3653
aI3654
aI3655
aI3656
aI3657
aI3658
aI3659
aI3660
aI3661
aI3662
aI3663
aI3664
aI3665
aI3666
aI3667
aI3668
aI3669
aI3670
aI3671
aI3672
aI3673
aI3674
aI3675
aI3676
aI3677
aI3678
aI3679
aI3680
aI3681
aI3682
aI3683
aI3684
aI3685
aI3686
aI3687
aI3688
aI3689
aI3690
aI3691
aI3692
aI3693
aI3694
aI3695
aI3696
aI3697
aI3698
aI3699
aI3700
aI3701
aI3702
aI3703
aI3704
aI3705
aI3706
aI3707
aI3708
aI3709
aI3710
aI3711
aI3712
aI3713
aI3714
aI3715
aI3716
aI3717
aI3718
aI3719
aI3720
aI3721
aI3722
aI3723
aI3724
aI3725
aI3726
aI3727
aI3728
aI3729
aI3730
aI3731
aI3732
aI3733
aI3734
aI3735
aI3736
aI3737
aI3738
aI3739
aI3740
aI3741
aI3742
aI3743
aI3744
aI3745
aI3746
aI3747
aI3748
aI3749
aI3750
aI3751
aI3752
aI3753
aI3754
aI3755
aI3756
aI3757
aI3758
aI3759
aI3760
aI3761
aI3762
aI3763
aI3764
aI3765
aI3766
aI3767
aI3768
aI3769
aI3770
aI3771
aI3772
aI3773
aI3774
aI3775
aI3776
aI3777
aI3778
aI3779
aI3780
aI3781
aI3782
aI3783
aI3784
aI3785
aI3786
aI3787
aI3788
aI3789
aI3790
aI3791
aI3792
aI3793
aI3794
aI3795
aI3796
aI3797
aI3798
aI3799
aI3800
aI3801
aI3802
aI3803
aI3804
aI3805
aI3806
aI3807
aI3808
aI3809
aI3810
aI3811
aI3812
aI3813
aI3814
aI3815
aI3816
aI3817
aI3818
aI3819
aI3820
aI3821
aI3822
aI3823
aI3824
aI3825
aI3826
aI3827
aI3828
aI3829
aI3830
aI3831
aI3832
aI3833
aI3834
aI3835
aI3836
aI3837
aI3838
aI3839
aI3840
aI3841
aI3842
aI3843
aI3844
aI3845
aI3846
aI3847
aI3848
aI3849
aI3850
aI3851
aI3852
aI3853
aI3854
aI3855
aI3856
aI3857
aI3858
aI3859
aI3860
aI3861
aI3862
aI3863
aI3864
aI3865
aI3866
aI3867
aI3868
aI3869
aI3870
aI3871
aI3872
aI3873
aI3874
aI3875
aI3876
aI3877
aI3878
aI3879
aI3880
aI3881
aI3882
aI3883
aI3884
aI3885
aI3886
aI3887
aI3888
aI3889
aI3890
aI3891
aI3892
aI3893
aI3894
aI3895
aI3896
aI3897
aI3898
aI3899
aI3900
aI3901
aI3902
aI3903
aI3904
aI3905
aI3906
aI3907
aI3908
aI3909
aI3910
aI3911
aI3912
aI3913
aI3914
aI3915
aI3916
aI3917
aI3918
aI3919
aI3920
aI3921
aI3922
aI3923
aI3924
aI3925
aI3926
aI3927
aI3928
aI3929
aI3930
aI3931
aI3932
aI3933
aI3934
aI3935
aI3936
aI3937
aI3938
aI3939
aI3940
aI3941
aI3942
aI3943
aI3944
aI3945
aI3946
aI3947
aI3948
aI3949
aI3950
aI3951
aI3952
aI3953
aI3954
aI3955
aI3956
aI3957
aI3958
aI3959
aI3960
aI3961
aI3962
aI3963
aI3964
aI3965
aI3966
aI3967
aI3968
aI3969
aI3970
aI3971
aI3972
aI3973
aI3974
aI3975
aI3976
aI3977
aI3978
aI3979
aI3980
aI3981
aI3982
aI3983
aI3984
aI3985
aI3986
aI3987
aI3988
aI3989
aI3990
aI3991
aI3992
aI3993
aI3994
aI3995
aI3996
aI3997
aI3998
aI3999
aI4000
aI4001
aI4002
aI4003
aI4004
aI4005
aI4006
aI4007
aI4008
aI4009
aI4010
aI4011
aI4012
aI4013
aI4014
aI4015
aI4016
aI4017
aI4018
aI4019
aI4020
aI4021
aI4022
aI4023
aI4024
aI4025
aI4026
aI4027
aI4028
aI4029
aI4030
aI4031
aI4032
aI4033
aI4034
aI4035
aI4036
aI4037
aI4038
aI4039
aI4040
aI4041
aI4042
aI4043
aI4044
aI4045
aI4046
aI4047
aI4048
aI4049
aI4050
aI4051
aI4052
aI4053
aI4054
aI4055
aI4056
aI4057
aI4058
aI4059
aI4060
aI4061
aI4062
aI4063
aI4064
aI4065
aI4066
aI4067
aI4068
aI4069
aI4070
aI4071
aI4072
aI4073
aI4074
aI4075
aI4076
aI4077
aI4078
aI4079
aI4080
aI4081
aI4082
aI4083
aI4084
aI4085
aI4086
aI4087
aI4088
aI4089
aI4090
aI4091
aI4092
aI4093
aI4094
aI4095
aI4096
aI4097
aI4098
aI4099
aI4100
aI4101
aI4102
aI4103
aI4104
aI4105
aI4106
aI4107
aI4108
aI4109
aI4110
aI4111
aI4112
aI4113
aI4114
aI4115
aI4116
aI4117
aI4118
aI4119
aI4120
aI4121
aI4122
aI4123
aI4124
aI4125
aI4126
aI4127
aI4128
aI4129
aI4130
aI4131
aI4132
aI4133
aI4134
aI4135
aI4136
aI4137
aI4138
aI4139
aI4140
aI4141
aI4142
aI4143
aI4144
aI4145
aI4146
aI4147
aI4148
aI4149
aI4150
aI4151
aI4152
aI4153
aI4154
aI4155
aI4156
aI4157
aI4158
aI4159
aI4160
aI4161
aI4162
aI4163
aI4164
aI4165
aI4166
aI4167
aI4168
aI4169
aI4170
aI4171
aI4172
aI4173
aI4174
aI4175
aI4176
aI4177
aI4178
aI4179
aI4180
aI4181
aI4182
aI4183
aI4184
aI4185
aI4186
aI4187
aI4188
aI4189
aI4190
aI4191
aI4192
aI4193
aI4194
aI4195
aI4196
aI4197
aI4198
aI4199
aI4200
aI4201
aI4202
aI4203
aI4204
aI4205
aI4206
aI4207
aI4208
aI4209
aI4210
aI4211
aI4212
aI4213
aI4214
aI4215
aI4216
aI4217
aI4218
aI4219
aI4220
aI4221
aI4222
aI4223
aI4224
aI4225
aI4226
aI4227
aI4228
aI4229
aI4230
aI4231
aI4232
aI4233
aI4234
aI4235
aI4236
aI4237
aI4238
aI4239
aI4240
aI4241
aI4242
aI4243
aI4244
aI4245
aI4246
aI4247
aI4248
aI4249
aI4250
aI4251
aI4252
aI4253
aI4254
aI4255
aI4256
aI4257
aI4258
aI4259
aI4260
aI4261
aI4262
aI4263
aI4264
aI4265
aI4266
aI4267
aI4268
aI4269
aI4270
aI4271
aI4272
aI4273
aI4274
aI4275
aI4276
aI4277
aI4278
aI4279
aI4280
aI4281
aI4282
aI4283
aI4284
aI4285
aI4286
aI4287
aI4288
aI4289
aI4290
aI4291
aI4292
aI4293
aI4294
aI4295
aI4296
aI4297
aI4298
aI4299
aI4300
aI4301
aI4302
aI4303
aI4304
aI4305
aI4306
aI4307
aI4308
aI4309
aI4310
aI4311
aI4312
aI4313
aI4314
aI4315
aI4316
aI4317
aI4318
aI4319
aI4320
aI4321
aI4322
aI4323
aI4324
aI4325
aI4326
aI4327
aI4328
aI4329
aI4330
aI4331
aI4332
aI4333
aI4334
aI4335
aI4336
aI4337
aI4338
aI4339
aI4340
aI4341
aI4342
aI4343
aI4344
aI4345
aI4346
aI4347
aI4348
aI4349
aI4350
aI4351
aI4352
aI4353
aI4354
aI4355
aI4356
aI4357
aI4358
aI4359
aI4360
aI4361
aI4362
aI4363
aI4364
aI4365
aI4366
aI4367
aI4368
aI4369
aI4370
aI4371
aI4372
aI4373
aI4374
aI4375
aI4376
aI4377
aI4378
aI4379
aI4380
aI4381
aI4382
aI4383
aI4384
aI4385
aI4386
aI4387
aI4388
aI4389
aI4390
aI4391
aI4392
aI4393
aI4394
aI4395
aI4396
aI4397
aI4398
aI4399
aI4400
aI4401
aI4402
aI4403
aI4404
aI4405
aI4406
aI4407
aI4408
aI4409
aI4410
aI4411
aI4412
aI4413
aI4414
aI4415
aI4416
aI4417
aI4418
aI4419
aI4420
aI4421
aI4422
aI4423
aI4424
aI4425
aI4426
aI4427
aI4428
aI4429
aI4430
aI4431
aI4432
aI4433
aI4434
aI4435
aI4436
aI4437
aI4438
aI4439
aI4440
aI4441
aI4442
aI4443
aI4444
aI4445
aI4446
aI4447
aI4448
aI4449
aI4450
aI4451
aI4452
aI4453
aI4454
aI4455
aI4456
aI4457
aI4458
aI4459
aI4460
aI4461
aI4462
aI4463
aI4464
aI4465
aI4466
aI4467
aI4468
aI4469
aI4470
aI4471
aI4472
aI4473
aI4474
aI4475
aI4476
aI4477
aI4478
aI4479
aI4480
aI4481
aI4482
aI4483
aI4484
aI4485
aI4486
aI4487
aI4488
aI4489
aI4490
aI4491
aI4492
aI4493
aI4494
aI4495
aI4496
aI4497
aI4498
aI4499
aI4500
aI4501
aI4502
aI4503
aI4504
aI4505
aI4506
aI4507
aI4508
aI4509
aI4510
aI4511
aI4512
aI4513
aI4514
aI4515
aI4516
aI4517
aI4518
aI4519
aI4520
aI4521
aI4522
aI4523
aI4524
aI4525
aI4526
aI4527
aI4528
aI4529
aI4530
aI4531
aI4532
aI4533
aI4534
aI4535
aI4536
aI4537
aI4538
aI4539
aI4540
aI4541
aI4542
aI4543
aI4544
aI4545
aI4546
aI4547
aI4548
aI4549
aI4550
aI4551
aI4552
aI4553
aI4554
aI4555
aI4556
aI4557
aI4558
aI4559
aI4560
aI4561
aI4562
aI4563
aI4564
aI4565
aI4566
aI4567
aI4568
aI4569
aI4570
aI4571
aI4572
aI4573
aI4574
aI4575
aI4576
aI4577
aI4578
aI4579
aI4580
aI4581
aI4582
aI4583
aI4584
aI4585
aI4586
aI4587
aI4588
aI4589
aI4590
aI4591
aI4592
aI4593
aI4594
aI4595
aI4596
aI4597
aI4598
aI4599
aI4600
aI4601
aI4602
aI4603
aI4604
aI4605
aI4606
aI4607
aI4608
aI4609
aI4610
aI4611
aI4612
aI4613
aI4614
aI4615
aI4616
aI4617
aI4618
aI4619
aI4620
aI4621
aI4622
aI4623
aI4624
aI4625
aI4626
aI4627
aI4628
aI4629
aI4630
aI4631
aI4632
aI4633
aI4634
aI4635
aI4636
aI4637
aI4638
aI4639
aI4640
aI4641
aI4642
aI4643
aI4644
aI4645
aI4646
aI4647
aI4648
aI4649
aI4650
aI4651
aI4652
aI4653
aI4654
aI4655
aI4656
aI4657
aI4658
aI4659
aI4660
aI4661
aI4662
aI4663
aI4664
aI4665
aI4666
aI4667
aI4668
aI4669
aI4670
aI4671
aI4672
aI4673
aI4674
aI4675
aI4676
aI4677
aI4678
aI4679
aI4680
aI4681
aI4682
aI4683
aI4684
aI4685
aI4686
aI4687
aI4688
aI4689
aI4690
aI4691
aI4692
aI4693
aI4694
aI4695
aI4696
aI4697
aI4698
aI4699
aI4700
aI4701
aI4702
aI4703
aI4704
aI4705
aI4706
aI4707
aI4708
aI4709
aI4710
aI4711
aI4712
aI4713
aI4714
aI4715
aI4716
aI4717
aI4718
aI4719
aI4720
aI4721
aI4722
aI4723
aI4724
aI4725
aI4726
aI4727
aI4728
aI4729
aI4730
aI4731
aI4732
aI4733
aI4734
aI4735
aI4736
aI4737
aI4738
aI4739
aI4740
aI4741
aI4742
aI4743
aI4744
aI4745
aI4746
aI4747
aI4748
aI4749
aI4750
aI4751
aI4752
aI4753
aI4754
aI4755
aI4756
aI4757
aI4758
aI4759
aI4760
aI4761
aI4762
aI4763
aI4764
aI4765
aI4766
aI4767
aI4768
aI4769
aI4770
aI4771
aI4772
aI4773
aI4774
aI4775
aI4776
aI4777
aI4778
aI4779
aI4780
aI4781
aI4782
aI4783
aI4784
aI4785
aI4786
aI4787
aI4788
aI4789
aI4790
aI4791
aI4792
aI4793
aI4794
aI4795
aI4796
aI4797
aI4798
aI4799
aI4800
aI4801
aI4802
aI4803
aI4804
aI4805
aI4806
aI4807
aI4808
aI4809
aI4810
aI4811
aI4812
aI4813
aI4814
aI4815
aI4816
aI4817
aI4818
aI4819
aI4820
aI4821
aI4822
aI4823
aI4824
aI4825
aI4826
aI4827
aI4828
aI4829
aI4830
aI4831
aI4832
aI4833
aI4834
aI4835
aI4836
aI4837
aI4838
aI4839
aI4840
aI4841
aI4842
aI4843
aI4844
aI4845
aI4846
aI4847
aI4848
aI4849
aI4850
aI4851
aI4852
aI4853
aI4854
aI4855
aI4856
aI4857
aI4858
aI4859
aI4860
aI4861
aI4862
aI4863
aI4864
aI4865
aI4866
aI4867
aI4868
aI4869
aI4870
aI4871
aI4872
aI4873
aI4874
aI4875
aI4876
aI4877
aI4878
aI4879
aI4880
aI4881
aI4882
aI4883
aI4884
aI4885
aI4886
aI4887
aI4888
aI4889
aI4890
aI4891
aI4892
aI4893
aI4894
aI4895
aI4896
aI4897
aI4898
aI4899
aI4900
aI4901
aI4902
aI4903
aI4904
aI4905
aI4906
aI4907
aI4908
aI4909
aI4910
aI4911
aI4912
aI4913
aI4914
aI4915
aI4916
aI4917
aI4918
aI4919
aI4920
aI4921
aI4922
aI4923
aI4924
aI4925
aI4926
aI4927
aI4928
aI4929
aI4930
aI4931
aI4932
aI4933
aI4934
aI4935
aI4936
aI4937
aI4938
aI4939
aI4940
aI4941
aI4942
aI4943
aI4944
aI4945
aI4946
aI4947
aI4948
aI4949
aI4950
aI4951
aI4952
aI4953
aI4954
aI4955
aI4956
aI4957
aI4958
aI4959
aI4960
aI4961
aI4962
aI4963
aI4964
aI4965
aI4966
aI4967
aI4968
aI4969
aI4970
aI4971
aI4972
aI4973
aI4974
aI4975
aI4976
aI4977
aI4978
aI4979
aI4980
aI4981
aI4982
aI4983
aI4984
aI4985
aI4986
aI4987
aI4988
aI4989
aI4990
aI4991
aI4992
aI4993
aI4994
aI4995
aI4996
aI4997
aI4998
aI4999
aI5000
aI5001
aI5002
aI5003
aI5004
aI5005
aI5006
aI5007
aI5008
aI5009
aI5010
aI5011
aI5012
aI5013
aI5014
aI5015
aI5016
aI5017
aI5018
aI5019
aI5020
aI5021
aI5022
aI5023
aI5024
aI5025
aI5026
aI5027
aI5028
aI5029
aI5030
aI5031
aI5032
aI5033
aI5034
aI5035
aI5036
aI5037
aI5038
aI5039
aI5040
aI5041
aI5042
aI5043
aI5044
aI5045
aI5046
aI5047
aI5048
aI5049
aI5050
aI5051
aI5052
aI5053
aI5054
aI5055
aI5056
aI5057
aI5058
aI5059
aI5060
aI5061
aI5062
aI5063
aI5064
aI5065
aI5066
aI5067
aI5068
aI5069
aI5070
aI5071
aI5072
aI5073
aI5074
aI5075
aI5076
aI5077
aI5078
aI5079
aI5080
aI5081
aI5082
aI5083
aI5084
aI5085
aI5086
aI5087
aI5088
aI5089
aI5090
aI5091
aI5092
aI5093
aI5094
aI5095
aI5096
aI5097
aI5098
aI5099
aI5100
aI5101
aI5102
aI5103
aI5104
aI5105
aI5106
aI5107
aI5108
aI5109
aI5110
aI5111
aI5112
aI5113
aI5114
aI5115
aI5116
aI5117
aI5118
aI5119
aI5120
aI5121
aI5122
aI5123
aI5124
aI5125
aI5126
aI5127
aI5128
aI5129
aI5130
aI5131
aI5132
aI5133
aI5134
aI5135
aI5136
aI5137
aI5138
aI5139
aI5140
aI5141
aI5142
aI5143
aI5144
aI5145
aI5146
aI5147
aI5148
aI5149
aI5150
aI5151
aI5152
aI5153
aI5154
aI5155
aI5156
aI5157
aI5158
aI5159
aI5160
aI5161
aI5162
aI5163
aI5164
aI5165
aI5166
aI5167
aI5168
aI5169
aI5170
aI5171
aI5172
aI5173
aI5174
aI5175
aI5176
aI5177
aI5178
aI5179
aI5180
aI5181
aI5182
aI5183
aI5184
aI5185
aI5186
aI5187
aI5188
aI5189
aI5190
aI5191
aI5192
aI5193
aI5194
aI5195
aI5196
aI5197
aI5198
aI5199
aI5200
aI5201
aI5202
aI5203
aI5204
aI5205
aI5206
aI5207
aI5208
aI5209
aI5210
aI5211
aI5212
aI5213
aI5214
aI5215
aI5216
aI5217
aI5218
aI5219
aI5220
aI5221
aI5222
aI5223
aI5224
aI5225
aI5226
aI5227
aI5228
aI5229
aI5230
aI5231
aI5232
aI5233
aI5234
aI5235
aI5236
aI5237
aI5238
aI5239
aI5240
aI5241
aI5242
aI5243
aI5244
aI5245
aI5246
aI5247
aI5248
aI5249
aI5250
aI5251
aI5252
aI5253
aI5254
aI5255
aI5256
aI5257
aI5258
aI5259
aI5260
aI5261
aI5262
aI5263
aI5264
aI5265
aI5266
aI5267
aI5268
aI5269
aI5270
aI5271
aI5272
aI5273
aI5274
aI5275
aI5276
aI5277
aI5278
aI5279
aI5280
aI5281
aI5282
aI5283
aI5284
aI5285
aI5286
aI5287
aI5288
aI5289
aI5290
aI5291
aI5292
aI5293
aI5294
aI5295
aI5296
aI5297
aI5298
aI5299
aI5300
aI5301
aI5302
aI5303
aI5304
aI5305
aI5306
aI5307
aI5308
aI5309
aI5310
aI5311
aI5312
aI5313
aI5314
aI5315
aI5316
aI5317
aI5318
aI5319
aI5320
aI5321
aI5322
aI5323
aI5324
aI5325
aI5326
aI5327
aI5328
aI5329
aI5330
aI5331
aI5332
aI5333
aI5334
aI5335
aI5336
aI5337
aI5338
aI5339
aI5340
aI5341
aI5342
aI5343
aI5344
aI5345
aI5346
aI5347
aI5348
aI5349
aI5350
aI5351
aI5352
aI5353
aI5354
aI5355
aI5356
aI5357
aI5358
aI5359
aI5360
aI5361
aI5362
aI5363
aI5364
aI5365
aI5366
aI5367
aI5368
aI5369
aI5370
aI5371
aI5372
aI5373
aI5374
aI5375
aI5376
aI5377
aI5378
aI5379
aI5380
aI5381
aI5382
aI5383
aI5384
aI5385
aI5386
aI5387
aI5388
aI5389
aI5390
aI5391
aI5392
aI5393
aI5394
aI5395
aI5396
aI5397
aI5398
aI5399
aI5400
aI5401
aI5402
aI5403
aI5404
aI5405
aI5406
aI5407
aI5408
aI5409
aI5410
aI5411
aI5412
aI5413
aI5414
aI5415
aI5416
aI5417
aI5418
aI5419
aI5420
aI5421
aI5422
aI5423
aI5424
aI5425
aI5426
aI5427
aI5428
aI5429
aI5430
aI5431
aI5432
aI5433
aI5434
aI5435
aI5436
aI5437
aI5438
aI5439
aI5440
aI5441
aI5442
aI5443
aI5444
aI5445
aI5446
aI5447
aI5448
aI5449
aI5450
aI5451
aI5452
aI5453
aI5454
aI5455
aI5456
aI5457
aI5458
aI5459
aI5460
aI5461
aI5462
aI5463
aI5464
aI5465
aI5466
aI5467
aI5468
aI5469
aI5470
aI5471
aI5472
aI5473
aI5474
aI5475
aI5476
aI5477
aI5478
aI5479
aI5480
aI5481
aI5482
aI5483
aI5484
aI5485
aI5486
aI5487
aI5488
aI5489
aI5490
aI5491
aI5492
aI5493
aI5494
aI5495
aI5496
aI5497
aI5498
aI5499
aI5500
aI5501
aI5502
aI5503
aI5504
aI5505
aI5506
aI5507
aI5508
aI5509
aI5510
aI5511
aI5512
aI5513
aI5514
aI5515
aI5516
aI5517
aI5518
aI5519
aI5520
aI5521
aI5522
aI5523
aI5524
aI5525
aI5526
aI5527
aI5528
aI5529
aI5530
aI5531
aI5532
aI5533
aI5534
aI5535
aI5536
aI5537
aI5538
aI5539
aI5540
aI5541
aI5542
aI5543
aI5544
aI5545
aI5546
aI5547
aI5548
aI5549
aI5550
aI5551
aI5552
aI5553
aI5554
aI5555
aI5556
aI5557
aI5558
aI5559
aI5560
aI5561
aI5562
aI5563
aI5564
aI5565
aI5566
aI5567
aI5568
aI5569
aI5570
aI5571
aI5572
aI5573
aI5574
aI5575
aI5576
aI5577
aI5578
aI5579
aI5580
aI5581
aI5582
aI5583
aI5584
aI5585
aI5586
aI5587
aI5588
aI5589
aI5590
aI5591
aI5592
aI5593
aI5594
aI5595
aI5596
aI5597
aI5598
aI5599
aI5600
aI5601
aI5602
aI5603
aI5604
aI5605
aI5606
aI5607
aI5608
aI5609
aI5610
aI5611
aI5612
aI5613
aI5614
aI5615
aI5616
aI5617
aI5618
aI5619
aI5620
aI5621
aI5622
aI5623
aI5624
aI5625
aI5626
aI5627
aI5628
aI5629
aI5630
aI5631
aI5632
aI5633
aI5634
aI5635
aI5636
aI5637
aI5638
aI5639
aI5640
aI5641
aI5642
aI5643
aI5644
aI5645
aI5646
aI5647
aI5648
aI5649
aI5650
aI5651
aI5652
aI5653
aI5654
aI5655
aI5656
aI5657
aI5658
aI5659
aI5660
aI5661
aI5662
aI5663
aI5664
aI5665
aI5666
aI5667
aI5668
aI5669
aI5670
aI5671
aI5672
aI5673
aI5674
aI5675
aI5676
aI5677
aI5678
aI5679
aI5680
aI5681
aI5682
aI5683
aI5684
aI5685
aI5686
aI5687
aI5688
aI5689
aI5690
aI5691
aI5692
aI5693
aI5694
aI5695
aI5696
aI5697
aI5698
aI5699
aI5700
aI5701
aI5702
aI5703
aI5704
aI5705
aI5706
aI5707
aI5708
aI5709
aI5710
aI5711
aI5712
aI5713
aI5714
aI5715
aI5716
aI5717
aI5718
aI5719
aI5720
aI5721
aI5722
aI5723
aI5724
aI5725
aI5726
aI5727
aI5728
aI5729
aI5730
aI5731
aI5732
aI5733
aI5734
aI5735
aI5736
aI5737
aI5738
aI5739
aI5740
aI5741
aI5742
aI5743
aI5744
aI5745
aI5746
aI5747
aI5748
aI5749
aI5750
aI5751
aI5752
aI5753
aI5754
aI5755
aI5756
aI5757
aI5758
aI5759
aI5760
aI5761
aI5762
aI5763
aI5764
aI5765
aI5766
aI5767
aI5768
aI5769
aI5770
aI5771
aI5772
aI5773
aI5774
aI5775
aI5776
aI5777
aI5778
aI5779
aI5780
aI5781
aI5782
aI5783
aI5784
aI5785
aI5786
aI5787
aI5788
aI5789
aI5790
aI5791
aI5792
aI5793
aI5794
aI5795
aI5796
aI5797
aI5798
aI5799
aI5800
aI5801
aI5802
aI5803
aI5804
aI5805
aI5806
aI5807
aI5808
aI5809
aI5810
aI5811
aI5812
aI5813
aI5814
aI5815
aI5816
aI5817
aI5818
aI5819
aI5820
aI5821
aI5822
aI5823
aI5824
aI5825
aI5826
aI5827
aI5828
aI5829
aI5830
aI5831
aI5832
aI5833
aI5834
aI5835
aI5836
aI5837
aI5838
aI5839
aI5840
aI5841
aI5842
aI5843
aI5844
aI5845
aI5846
aI5847
aI5848
aI5849
aI5850
aI5851
aI5852
aI5853
aI5854
aI5855
aI5856
aI5857
aI5858
aI5859
aI5860
aI5861
aI5862
aI5863
aI5864
aI5865
aI5866
aI5867
aI5868
aI5869
aI5870
aI5871
aI5872
aI5873
aI5874
aI5875
aI5876
aI5877
aI5878
aI5879
aI5880
aI5881
aI5882
aI5883
aI5884
aI5885
aI5886
aI5887
aI5888
aI5889
aI5890
aI5891
aI5892
aI5893
aI5894
aI5895
aI5896
aI5897
aI5898
aI5899
aI5900
aI5901
aI5902
aI5903
aI5904
aI5905
aI5906
aI5907
aI5908
aI5909
aI5910
aI5911
aI5912
aI5913
aI5914
aI5915
aI5916
aI5917
aI5918
aI5919
aI5920
aI5921
aI5922
aI5923
aI5924
aI5925
aI5926
aI5927
aI5928
aI5929
aI5930
aI5931
aI5932
aI5933
aI5934
aI5935
aI5936
aI5937
aI5938
aI5939
aI5940
aI5941
aI5942
aI5943
aI5944
aI5945
aI5946
aI5947
aI5948
aI5949
aI5950
aI5951
aI5952
aI5953
aI5954
aI5955
aI5956
aI5957
aI5958
aI5959
aI5960
aI5961
aI5962
aI5963
aI5964
aI5965
aI5966
aI5967
aI5968
aI5969
aI5970
aI5971
aI5972
aI5973
aI5974
aI5975
aI5976
aI5977
aI5978
aI5979
aI5980
aI5981
aI5982
aI5983
aI5984
aI5985
aI5986
aI5987
aI5988
aI5989
aI5990
aI5991
aI5992
aI5993
aI5994
aI5995
aI5996
aI5997
aI5998
aI5999
aI6000
aI6001
aI6002
aI6003
aI6004
aI6005
aI6006
aI6007
aI6008
aI6009
aI6010
aI6011
aI6012
aI6013
aI6014
aI6015
aI6016
aI6017
aI6018
aI6019
aI6020
aI6021
aI6022
aI6023
aI6024
aI6025
aI6026
aI6027
aI6028
aI6029
aI6030
aI6031
aI6032
aI6033
aI6034
aI6035
aI6036
aI6037
aI6038
aI6039
aI6040
aI6041
aI6042
aI6043
aI6044
aI6045
aI6046
aI6047
aI6048
aI6049
aI6050
aI6051
aI6052
aI6053
aI6054
aI6055
aI6056
aI6057
aI6058
aI6059
aI6060
aI6061
aI6062
aI6063
aI6064
aI6065
aI6066
aI6067
aI6068
aI6069
aI6070
aI6071
aI6072
aI6073
aI6074
aI6075
aI6076
aI6077
aI6078
aI6079
aI6080
aI6081
aI6082
aI6083
aI6084
aI6085
aI6086
aI6087
aI6088
aI6089
aI6090
aI6091
aI6092
aI6093
aI6094
aI6095
aI6096
aI6097
aI6098
aI6099
aI6100
aI6101
aI6102
aI6103
aI6104
aI6105
aI6106
aI6107
aI6108
aI6109
aI6110
aI6111
aI6112
aI6113
aI6114
aI6115
aI6116
aI6117
aI6118
aI6119
aI6120
aI6121
aI6122
aI6123
aI6124
aI6125
aI6126
aI6127
aI6128
aI6129
aI6130
aI6131
aI6132
aI6133
aI6134
aI6135
aI6136
aI6137
aI6138
aI6139
aI6140
aI6141
aI6142
aI6143
aI6144
aI6145
aI6146
aI6147
aI6148
aI6149
aI6150
aI6151
aI6152
aI6153
aI6154
aI6155
aI6156
aI6157
aI6158
aI6159
aI6160
aI6161
aI6162
aI6163
aI6164
aI6165
aI6166
aI6167
aI6168
aI6169
aI6170
aI6171
aI6172
aI6173
aI6174
aI6175
aI6176
aI6177
aI6178
aI6179
aI6180
aI6181
aI6182
aI6183
aI6184
aI6185
aI6186
aI6187
aI6188
aI6189
aI6190
aI6191
aI6192
aI6193
aI6194
aI6195
aI6196
aI6197
aI6198
aI6199
aI6200
aI6201
aI6202
aI6203
aI6204
aI6205
aI6206
aI6207
aI6208
aI6209
aI6210
aI6211
aI6212
aI6213
aI6214
aI6215
aI6216
aI6217
aI6218
aI6219
aI6220
aI6221
aI6222
aI6223
aI6224
aI6225
aI6226
aI6227
aI6228
aI6229
aI6230
aI6231
aI6232
aI6233
aI6234
aI6235
aI6236
aI6237
aI6238
aI6239
aI6240
aI6241
aI6242
aI6243
aI6244
aI6245
aI6246
aI6247
aI6248
aI6249
aI6250
aI6251
aI6252
aI6253
aI6254
aI6255
aI6256
aI6257
aI6258
aI6259
aI6260
aI6261
aI6262
aI6263
aI6264
aI6265
aI6266
aI6267
aI6268
aI6269
aI6270
aI6271
aI6272
aI6273
aI6274
aI6275
aI6276
aI6277
aI6278
aI6279
aI6280
aI6281
aI6282
aI6283
aI6284
aI6285
aI6286
aI6287
aI6288
aI6289
aI6290
aI6291
aI6292
aI6293
aI6294
aI6295
aI6296
aI6297
aI6298
aI6299
aI6300
aI6301
aI6302
aI6303
aI6304
aI6305
aI6306
aI6307
aI6308
aI6309
aI6310
aI6311
aI6312
aI6313
aI6314
aI6315
aI6316
aI6317
aI6318
aI6319
aI6320
aI6321
aI6322
aI6323
aI6324
aI6325
aI6326
aI6327
aI6328
aI6329
aI6330
aI6331
aI6332
aI6333
aI6334
aI6335
aI6336
aI6337
aI6338
aI6339
aI6340
aI6341
aI6342
aI6343
aI6344
aI6345
aI6346
aI6347
aI6348
aI6349
aI6350
aI6351
aI6352
aI6353
aI6354
aI6355
aI6356
aI6357
aI6358
aI6359
aI6360
aI6361
aI6362
aI6363
aI6364
aI6365
aI6366
aI6367
aI6368
aI6369
aI6370
aI6371
aI6372
aI6373
aI6374
aI6375
aI6376
aI6377
aI6378
aI6379
aI6380
aI6381
aI6382
aI6383
aI6384
aI6385
aI6386
aI6387
aI6388
aI6389
aI6390
aI6391
aI6392
aI6393
aI6394
aI6395
aI6396
aI6397
aI6398
aI6399
aI6400
aI6401
aI6402
aI6403
aI6404
aI6405
aI6406
aI6407
aI6408
aI6409
aI6410
aI6411
aI6412
aI6413
aI6414
aI6415
aI6416
aI6417
aI6418
aI6419
aI6420
aI6421
aI6422
aI6423
aI6424
aI6425
aI6426
aI6427
aI6428
aI6429
aI6430
aI6431
aI6432
aI6433
aI6434
aI6435
aI6436
aI6437
aI6438
aI6439
aI6440
aI6441
aI6442
aI6443
aI6444
aI6445
aI6446
aI6447
aI6448
aI6449
aI6450
aI6451
aI6452
aI6453
aI6454
aI6455
aI6456
aI6457
aI6458
aI6459
aI6460
aI6461
aI6462
aI6463
aI6464
aI6465
aI6466
aI6467
aI6468
aI6469
aI6470
aI6471
aI6472
aI6473
aI6474
aI6475
aI6476
aI6477
aI6478
aI6479
aI6480
aI6481
aI6482
aI6483
aI6484
aI6485
aI6486
aI6487
aI6488
aI6489
aI6490
aI6491
aI6492
aI6493
aI6494
aI6495
aI6496
aI6497
aI6498
aI6499
aI6500
aI6501
aI6502
aI6503
aI6504
aI6505
aI6506
aI6507
aI6508
aI6509
aI6510
aI6511
aI6512
aI6513
aI6514
aI6515
aI6516
aI6517
aI6518
aI6519
aI6520
aI6521
aI6522
aI6523
aI6524
aI6525
aI6526
aI6527
aI6528
aI6529
aI6530
aI6531
aI6532
aI6533
aI6534
aI6535
aI6536
aI6537
aI6538
aI6539
aI6540
aI6541
aI6542
aI6543
aI6544
aI6545
aI6546
aI6547
aI6548
aI6549
aI6550
aI6551
aI6552
aI6553
aI6554
aI6555
aI6556
aI6557
aI6558
aI6559
aI6560
aI6561
aI6562
aI6563
aI6564
aI6565
aI6566
aI6567
aI6568
aI6569
aI6570
aI6571
aI6572
aI6573
aI6574
aI6575
aI6576
aI6577
aI6578
aI6579
aI6580
aI6581
aI6582
aI6583
aI6584
aI6585
aI6586
aI6587
aI6588
aI6589
aI6590
aI6591
aI6592
aI6593
aI6594
aI6595
aI6596
aI6597
aI6598
aI6599
aI6600
aI6601
aI6602
aI6603
aI6604
aI6605
aI6606
aI6607
aI6608
aI6609
aI6610
aI6611
aI6612
aI6613
aI6614
aI6615
aI6616
aI6617
aI6618
aI6619
aI6620
aI6621
aI6622
aI6623
aI6624
aI6625
aI6626
aI6627
aI6628
aI6629
aI6630
aI6631
aI6632
aI6633
aI6634
aI6635
aI6636
aI6637
aI6638
aI6639
aI6640
aI6641
aI6642
aI6643
aI6644
aI6645
aI6646
aI6647
aI6648
aI6649
aI6650
aI6651
aI6652
aI6653
aI6654
aI6655
aI6656
aI6657
aI6658
aI6659
aI6660
aI6661
aI6662
aI6663
aI6664
aI6665
aI6666
aI6667
aI6668
aI6669
aI6670
aI6671
aI6672
aI6673
aI6674
aI6675
aI6676
aI6677
aI6678
aI6679
aI6680
aI6681
aI6682
aI6683
aI6684
aI6685
aI6686
aI6687
aI6688
aI6689
aI6690
aI6691
aI6692
aI6693
aI6694
aI6695
aI6696
aI6697
aI6698
aI6699
aI6700
aI6701
aI6702
aI6703
aI6704
aI6705
aI6706
aI6707
aI6708
aI6709
aI6710
aI6711
aI6712
aI6713
aI6714
aI6715
aI6716
aI6717
aI6718
aI6719
aI6720
aI6721
aI6722
aI6723
aI6724
aI6725
aI6726
aI6727
aI6728
aI6729
aI6730
aI6731
aI6732
aI6733
aI6734
aI6735
aI6736
aI6737
aI6738
aI6739
aI6740
aI6741
aI6742
aI6743
aI6744
aI6745
aI6746
aI6747
aI6748
aI6749
aI6750
aI6751
aI6752
aI6753
aI6754
aI6755
aI6756
aI6757
aI6758
aI6759
aI6760
aI6761
aI6762
aI6763
aI6764
aI6765
aI6766
aI6767
aI6768
aI6769
aI6770
aI6771
aI6772
aI6773
aI6774
aI6775
aI6776
aI6777
aI6778
aI6779
aI6780
aI6781
aI6782
aI6783
aI6784
aI6785
aI6786
aI6787
aI6788
aI6789
aI6790
aI6791
aI6792
aI6793
aI6794
aI6795
aI6796
aI6797
aI6798
aI6799
aI6800
aI6801
aI6802
aI6803
aI6804
aI6805
aI6806
aI6807
aI6808
aI6809
aI6810
aI6811
aI6812
aI6813
aI6814
aI6815
aI6816
aI6817
aI6818
aI6819
aI6820
aI6821
aI6822
aI6823
aI6824
aI6825
aI6826
aI6827
aI6828
aI6829
aI6830
aI6831
aI6832
aI6833
aI6834
aI6835
aI6836
aI6837
aI6838
aI6839
aI6840
aI6841
aI6842
aI6843
aI6844
aI6845
aI6846
aI6847
aI6848
aI6849
aI6850
aI6851
aI6852
aI6853
aI6854
aI6855
aI6856
aI6857
aI6858
aI6859
aI6860
aI6861
aI6862
aI6863
aI6864
aI6865
aI6866
aI6867
aI6868
aI6869
aI6870
aI6871
aI6872
aI6873
aI6874
aI6875
aI6876
aI6877
aI6878
aI6879
aI6880
aI6881
aI6882
aI6883
aI6884
aI6885
aI6886
aI6887
aI6888
aI6889
aI6890
aI6891
aI6892
aI6893
aI6894
aI6895
aI6896
aI6897
aI6898
aI6899
aI6900
aI6901
aI6902
aI6903
aI6904
aI6905
aI6906
aI6907
aI6908
aI6909
aI6910
aI6911
aI6912
aI6913
aI6914
aI6915
aI6916
aI6917
aI6918
aI6919
aI6920
aI6921
aI6922
aI6923
aI6924
aI6925
aI6926
aI6927
aI6928
aI6929
aI6930
aI6931
aI6932
aI6933
aI6934
aI6935
aI6936
aI6937
aI6938
aI6939
aI6940
aI6941
aI6942
aI6943
aI6944
aI6945
aI6946
aI6947
aI6948
aI6949
aI6950
aI6951
aI6952
aI6953
aI6954
aI6955
aI6956
aI6957
aI6958
aI6959
aI6960
aI6961
aI6962
aI6963
aI6964
aI6965
aI6966
aI6967
aI6968
aI6969
aI6970
aI6971
aI6972
aI6973
aI6974
aI6975
aI6976
aI6977
aI6978
aI6979
aI6980
aI6981
aI6982
aI6983
aI6984
aI6985
aI6986
aI6987
aI6988
aI6989
aI6990
aI6991
aI6992
aI6993
aI6994
aI6995
aI6996
aI6997
aI6998
aI6999
aI7000
aI7001
aI7002
aI7003
aI7004
aI7005
aI7006
aI7007
aI7008
aI7009
aI7010
aI7011
aI7012
aI7013
aI7014
aI7015
aI7016
aI7017
aI7018
aI7019
aI7020
aI7021
aI7022
aI7023
aI7024
aI7025
aI7026
aI7027
aI7028
aI7029
aI7030
aI7031
aI7032
aI7033
aI7034
aI7035
aI7036
aI7037
aI7038
aI7039
aI7040
aI7041
aI7042
aI7043
a.(lp0
I1436
aI1436
aI1432
aI1420
aI1420
aI1416
aI1424
aI1424
aI1424
aI1424
aI1440
aI1440
aI1440
aI1440
aI1440
aI1440
aI1440
aI1440
aI1412
aI1412
aI1404
aI1404
aI1404
aI1404
aI1404
aI1404
aI1404
aI1412
aI1424
aI1428
aI1428
aI1428
aI1428
aI1428
aI1428
aI1428
aI1428
aI1428
aI1428
aI1432
aI1432
aI1432
aI1432
aI1432
aI1432
aI1432
aI1432
aI1432
aI1432
aI1432
aI1432
aI1432
aI1432
aI1432
aI1432
aI1432
aI1432
aI1432
aI1432
aI1432
aI1432
aI1432
aI1432
aI1432
aI1444
aI1460
aI1472
aI1472
aI1472
aI1472
aI1472
aI1472
aI1472
aI1472
aI1472
aI1472
aI1472
aI1472
aI1472
aI1472
aI1472
aI1472
aI1472
aI1472
aI1504
aI1560
aI1560
aI1560
aI1560
aI1560
aI1560
aI1544
aI1524
aI1508
aI1484
aI1468
aI1464
aI1460
aI1456
aI1448
aI1436
aI1428
aI1420
aI1416
aI1412
aI1412
aI1412
aI1412
aI1412
aI1412
aI1412
aI1412
aI1412
aI1412
aI1412
aI1412
aI1412
aI1428
aI1448
aI1452
aI1452
aI1480
aI1488
aI1508
aI1528
aI1528
aI1480
aI1436
aI1412
aI1396
aI1384
aI1352
aI1328
aI1312
aI1308
aI1300
aI1280
aI1264
aI1232
aI1212
aI1200
aI1192
aI1192
aI1196
aI1196
aI1220
aI1228
aI1236
aI1236
aI1228
aI1220
aI1212
aI1204
aI1200
aI1196
aI1196
aI1196
aI1204
aI1216
aI1216
aI1216
aI1268
aI1308
aI1348
aI1364
aI1396
aI1428
aI1436
aI1440
aI1440
aI1440
aI1440
aI1440
aI1428
aI1424
aI1420
aI1428
aI1432
aI1444
aI1444
aI1460
aI1476
aI1480
aI1480
aI1480
aI1480
aI1480
aI1480
aI1468
aI1464
aI1452
aI1452
aI1472
aI1484
aI1496
aI1496
aI1476
aI1452
aI1416
aI1396
aI1336
aI1260
aI1180
aI1176
aI1176
aI1188
aI1236
aI1292
aI1312
aI1316
aI1312
aI1348
aI1364
aI1388
aI1396
aI1396
aI1396
aI1396
aI1396
aI1396
aI1408
aI1424
aI1432
aI1440
aI1448
aI1448
aI1444
aI1436
aI1428
aI1404
aI1384
aI1352
aI1308
aI1288
aI1280
aI1280
aI1280
aI1280
aI1280
aI1280
aI1280
aI1296
aI1300
aI1304
aI1312
aI1312
aI1312
aI1312
aI1312
aI1312
aI1316
aI1316
aI1320
aI1320
aI1324
aI1328
aI1328
aI1328
aI1328
aI1328
aI1328
aI1328
aI1324
aI1316
aI1312
aI1304
aI1300
aI1296
aI1292
aI1292
aI1288
aI1280
aI1280
aI1280
aI1280
aI1280
aI1280
aI1280
aI1292
aI1312
aI1320
aI1324
aI1324
aI1320
aI1312
aI1304
aI1304
aI1304
aI1304
aI1312
aI1316
aI1324
aI1344
aI1368
aI1372
aI1364
aI1356
aI1352
aI1344
aI1344
aI1344
aI1356
aI1360
aI1376
aI1380
aI1420
aI1440
aI1452
aI1452
aI1468
aI1476
aI1476
aI1496
aI1496
aI1496
aI1496
aI1496
aI1496
aI1496
aI1496
aI1496
aI1496
aI1520
aI1536
aI1568
aI1576
aI1604
aI1604
aI1604
aI1604
aI1612
aI1572
aI1568
aI1568
aI1568
aI1620
aI1628
aI1632
aI1680
aI1684
aI1684
aI1684
aI1684
aI1684
aI1684
aI1700
aI1728
aI1760
aI1772
aI1776
aI1776
aI1776
aI1776
aI1776
aI1792
aI1792
aI1792
aI1792
aI1808
aI1808
aI1808
aI1816
aI1820
aI1820
aI1820
aI1820
aI1820
aI1820
aI1820
aI1820
aI1820
aI1820
aI1820
aI1820
aI1820
aI1820
aI1820
aI1820
aI1820
aI1820
aI1820
aI1820
aI1820
aI1820
aI1820
aI1820
aI1820
aI1820
aI1820
aI1820
aI1820
aI1808
aI1804
aI1804
aI1804
aI1800
aI1800
aI1800
aI1800
aI1800
aI1800
aI1800
aI1800
aI1800
aI1800
aI1800
aI1800
aI1800
aI1800
aI1800
aI1800
aI1800
aI1800
aI1800
aI1800
aI1800
aI1800
aI1800
aI1800
aI1800
aI1800
aI1800
aI1800
aI1800
aI1800
aI1800
aI1800
aI1800
aI1800
aI1800
aI1800
aI1800
aI1800
aI1800
aI1800
aI1800
aI1800
aI1800
aI1800
aI1800
aI1800
aI1800
aI1804
aI1804
aI1804
aI1808
aI1808
aI1808
aI1808
aI1808
aI1808
aI1808
aI1808
aI1808
aI1808
aI1808
aI1832
aI1884
aI1920
aI1920
aI1920
aI1920
aI1920
aI1920
aI1972
aI2008
aI2020
aI2044
aI2064
aI2096
aI2140
aI2140
aI2140
aI2140
aI2140
aI2140
aI2140
aI2140
aI2140
aI2140
aI2140
aI2140
aI2140
aI2140
aI2140
aI2140
aI2140
aI2140
aI2140
aI2140
aI2140
aI2140
aI2140
aI2140
aI2140
aI2140
aI2140
aI2140
aI2140
aI2140
aI2140
aI2140
aI2140
aI2140
aI2140
aI2140
aI2140
aI2140
aI2140
aI2140
aI2140
aI2140
aI2140
aI2140
aI2140
aI2140
aI2140
aI2140
aI2140
aI2140
aI2140
aI2140
aI2140
aI2140
aI2140
aI2140
aI2140
aI2140
aI2140
aI2140
aI2140
aI2140
aI2140
aI2140
aI2140
aI2140
aI2140
aI2140
aI2140
aI2140
aI2140
aI2140
aI2140
aI2140
aI2140
aI2140
aI2140
aI2140
aI2140
aI2140
aI2140
aI2140
aI2140
aI2140
aI2140
aI2140
aI2140
aI2140
aI2140
aI2140
aI2140
aI2140
aI2140
aI2140
aI2140
aI2140
aI2140
aI2140
aI2140
aI2140
aI2140
aI2140
aI2140
aI2140
aI2140
aI2140
aI2140
aI2140
aI2140
aI2140
aI2140
aI2140
aI2132
aI2128
aI2124
aI2124
aI2124
aI2124
aI2124
aI2112
aI2096
aI2088
aI2088
aI2088
aI2088
aI2076
aI2052
aI2036
aI2024
aI2020
aI2004
aI1996
aI1988
aI1984
aI1976
aI1972
aI1972
aI1960
aI1920
aI1916
aI1908
aI1900
aI1888
aI1876
aI1828
aI1816
aI1792
aI1776
aI1764
aI1744
aI1744
aI1752
aI1764
aI1768
aI1768
aI1768
aI1764
aI1760
aI1752
aI1752
aI1752
aI1752
aI1776
aI1800
aI1820
aI1836
aI1852
aI1856
aI1856
aI1856
aI1856
aI1856
aI1856
aI1864
aI1864
aI1864
aI1888
aI1892
aI1892
aI1892
aI1892
aI1892
aI1892
aI1892
aI1892
aI1892
aI1892
aI1892
aI1892
aI1892
aI1892
aI1892
aI1892
aI1892
aI1884
aI1884
aI1884
aI1884
aI1884
aI1884
aI1884
aI1884
aI1884
aI1892
aI1896
aI1896
aI1884
aI1848
aI1844
aI1808
aI1800
aI1760
aI1760
aI1760
aI1760
aI1760
aI1760
aI1760
aI1760
aI1760
aI1760
aI1760
aI1760
aI1760
aI1760
aI1760
aI1760
aI1760
aI1760
aI1760
aI1760
aI1760
aI1760
aI1760
aI1760
aI1748
aI1748
aI1748
aI1748
aI1748
aI1748
aI1748
aI1748
aI1748
aI1748
aI1748
aI1748
aI1748
aI1748
aI1748
aI1748
aI1748
aI1748
aI1748
aI1748
aI1748
aI1748
aI1748
aI1748
aI1724
aI1700
aI1692
aI1692
aI1692
aI1692
aI1692
aI1692
aI1692
aI1692
aI1692
aI1692
aI1692
aI1692
aI1692
aI1692
aI1692
aI1692
aI1692
aI1692
aI1692
aI1692
aI1692
aI1692
aI1692
aI1692
aI1692
aI1692
aI1692
aI1692
aI1692
aI1692
aI1692
aI1692
aI1692
aI1692
aI1692
aI1692
aI1692
aI1692
aI1692
aI1692
aI1692
aI1692
aI1692
aI1692
aI1692
aI1692
aI1692
aI1692
aI1692
aI1692
aI1692
aI1692
aI1692
aI1692
aI1692
aI1692
aI1692
aI1692
aI1692
aI1692
aI1692
aI1692
aI1692
aI1692
aI1692
aI1692
aI1692
aI1692
aI1692
aI1692
aI1692
aI1692
aI1692
aI1692
aI1692
aI1692
aI1692
aI1692
aI1692
aI1692
aI1684
aI1684
aI1684
aI1696
aI1708
aI1720
aI1720
aI1720
aI1720
aI1712
aI1708
aI1708
aI1708
aI1704
aI1704
aI1704
aI1704
aI1704
aI1704
aI1704
aI1704
aI1704
aI1700
aI1700
aI1700
aI1700
aI1696
aI1692
aI1684
aI1680
aI1676
aI1676
aI1676
aI1676
aI1676
aI1688
aI1740
aI1760
aI1760
aI1768
aI1768
aI1768
aI1768
aI1768
aI1768
aI1768
aI1768
aI1768
aI1768
aI1768
aI1768
aI1768
aI1760
aI1760
aI1760
aI1760
aI1760
aI1760
aI1760
aI1760
aI1760
aI1760
aI1760
aI1760
aI1760
aI1760
aI1760
aI1760
aI1760
aI1760
aI1760
aI1760
aI1760
aI1760
aI1760
aI1760
aI1760
aI1760
aI1760
aI1760
aI1760
aI1788
aI1804
aI1808
aI1880
aI1992
aI2068
aI2068
aI2068
aI2060
aI2052
aI2044
aI2044
aI2036
aI2036
aI2036
aI2036
aI2036
aI2036
aI2036
aI2036
aI2036
aI2036
aI2036
aI2036
aI2036
aI2036
aI2036
aI2032
aI2028
aI2028
aI2028
aI2024
aI2024
aI2016
aI2012
aI2012
aI2012
aI2012
aI2012
aI2012
aI2012
aI2012
aI2012
aI2012
aI2012
aI2012
aI2012
aI2012
aI2012
aI2012
aI2012
aI2012
aI2004
aI2000
aI2000
aI2000
aI2016
aI2016
aI2008
aI2000
aI1992
aI1984
aI1976
aI1996
aI2000
aI2000
aI2000
aI2000
aI2000
aI2000
aI2000
aI2000
aI2000
aI2000
aI2004
aI2004
aI2008
aI2008
aI2008
aI2008
aI2000
aI1996
aI1996
aI1996
aI1996
aI1996
aI1996
aI1996
aI1996
aI1996
aI1996
aI1996
aI1996
aI1996
aI1996
aI1996
aI1996
aI2000
aI2000
aI2000
aI2000
aI2000
aI2000
aI2000
aI2000
aI2000
aI2000
aI2000
aI2000
aI2000
aI2000
aI2000
aI2000
aI2000
aI2000
aI2000
aI1996
aI1992
aI1992
aI1992
aI1992
aI1992
aI1992
aI1992
aI1992
aI1992
aI1992
aI1992
aI1992
aI1992
aI1996
aI2000
aI2000
aI2000
aI2004
aI2008
aI2008
aI2008
aI2008
aI2016
aI2020
aI2020
aI2028
aI2036
aI2044
aI2056
aI2064
aI2068
aI2068
aI2072
aI2072
aI2072
aI2072
aI2072
aI2072
aI2072
aI2072
aI2072
aI2072
aI2072
aI2072
aI2072
aI2076
aI2076
aI2076
aI2076
aI2076
aI2076
aI2076
aI2076
aI2076
aI2076
aI2076
aI2076
aI2092
aI2104
aI2104
aI2104
aI2104
aI2104
aI2104
aI2104
aI2104
aI2104
aI2104
aI2104
aI2104
aI2104
aI2104
aI2104
aI2116
aI2116
aI2116
aI2116
aI2116
aI2108
aI2092
aI2092
aI2076
aI2056
aI2056
aI2056
aI2056
aI2056
aI2056
aI2056
aI2056
aI2056
aI2056
aI2056
aI2056
aI2056
aI2056
aI2056
aI2056
aI2056
aI2056
aI2056
aI2056
aI2056
aI2056
aI2056
aI2056
aI2056
aI2056
aI2056
aI2056
aI2056
aI2056
aI2052
aI2052
aI2052
aI2052
aI2052
aI2060
aI2084
aI2088
aI2088
aI2088
aI2088
aI2092
aI2108
aI2116
aI2136
aI2136
aI2136
aI2136
aI2136
aI2136
aI2136
aI2132
aI2132
aI2108
aI2088
aI2084
aI2084
aI2084
aI2076
aI2072
aI2068
aI2068
aI2064
aI2056
aI2052
aI2044
aI2036
aI2028
aI2016
aI2008
aI2008
aI2004
aI2000
aI1992
aI1988
aI1964
aI1936
aI1932
aI1932
aI1932
aI1932
aI1904
aI1884
aI1860
aI1836
aI1828
aI1800
aI1784
aI1776
aI1764
aI1752
aI1744
aI1728
aI1720
aI1720
aI1720
aI1716
aI1716
aI1712
aI1700
aI1700
aI1692
aI1680
aI1672
aI1660
aI1644
aI1644
aI1644
aI1652
aI1700
aI1700
aI1712
aI1720
aI1736
aI1740
aI1740
aI1740
aI1740
aI1740
aI1740
aI1740
aI1740
aI1740
aI1728
aI1704
aI1700
aI1692
aI1692
aI1692
aI1692
aI1692
aI1692
aI1692
aI1692
aI1692
aI1692
aI1728
aI1752
aI1780
aI1808
aI1840
aI1844
aI1844
aI1836
aI1800
aI1768
aI1728
aI1692
aI1660
aI1644
aI1624
aI1620
aI1632
aI1664
aI1696
aI1708
aI1708
aI1708
aI1708
aI1708
aI1708
aI1708
aI1708
aI1708
aI1708
aI1708
aI1708
aI1708
aI1708
aI1708
aI1708
aI1708
aI1708
aI1708
aI1708
aI1708
aI1708
aI1708
aI1708
aI1708
aI1708
aI1708
aI1708
aI1708
aI1708
aI1708
aI1708
aI1708
aI1708
aI1708
aI1708
aI1708
aI1708
aI1708
aI1708
aI1708
aI1708
aI1720
aI1772
aI1788
aI1800
aI1800
aI1804
aI1808
aI1812
aI1812
aI1816
aI1816
aI1820
aI1820
aI1820
aI1820
aI1820
aI1836
aI1836
aI1848
aI1848
aI1848
aI1848
aI1848
aI1848
aI1848
aI1848
aI1848
aI1848
aI1852
aI1900
aI1928
aI1932
aI1944
aI1944
aI1960
aI1960
aI1960
aI1960
aI1960
aI1960
aI1960
aI1960
aI1960
aI1960
aI1960
aI1980
aI1984
aI2000
aI2016
aI2040
aI2044
aI2052
aI2068
aI2072
aI2072
aI2072
aI2072
aI2072
aI2072
aI2072
aI2072
aI2072
aI2072
aI2072
aI2072
aI2072
aI2072
aI2076
aI2096
aI2100
aI2104
aI2104
aI2108
aI2116
aI2124
aI2124
aI2124
aI2124
aI2136
aI2140
aI2168
aI2176
aI2176
aI2176
aI2176
aI2176
aI2176
aI2176
aI2176
aI2176
aI2176
aI2176
aI2176
aI2176
aI2176
aI2176
aI2176
aI2176
aI2176
aI2176
aI2176
aI2176
aI2176
aI2176
aI2176
aI2172
aI2168
aI2168
aI2156
aI2152
aI2148
aI2144
aI2136
aI2108
aI2104
aI2104
aI2104
aI2092
aI2092
aI2092
aI2092
aI2092
aI2092
aI2092
aI2092
aI2096
aI2096
aI2096
aI2096
aI2092
aI2088
aI2084
aI2084
aI2084
aI2080
aI2080
aI2080
aI2080
aI2080
aI2080
aI2096
aI2100
aI2088
aI2080
aI2076
aI2076
aI2076
aI2076
aI2072
aI2072
aI2088
aI2092
aI2092
aI2092
aI2092
aI2092
aI2092
aI2092
aI2084
aI2084
aI2084
aI2084
aI2084
aI2080
aI2076
aI2076
aI2072
aI2068
aI2068
aI2060
aI2060
aI2060
aI2060
aI2060
aI2060
aI2060
aI2060
aI2060
aI2060
aI2060
aI2060
aI2060
aI2084
aI2084
aI2068
aI2068
aI2068
aI2068
aI2068
aI2068
aI2068
aI2068
aI2068
aI2068
aI2068
aI2068
aI2068
aI2068
aI2068
aI2068
aI2076
aI2096
aI2100
aI2104
aI2112
aI2116
aI2124
aI2128
aI2136
aI2136
aI2136
aI2136
aI2136
aI2140
aI2144
aI2152
aI2160
aI2168
aI2184
aI2204
aI2220
aI2228
aI2240
aI2248
aI2260
aI2260
aI2264
aI2268
aI2268
aI2276
aI2280
aI2280
aI2284
aI2288
aI2292
aI2292
aI2292
aI2292
aI2292
aI2292
aI2292
aI2292
aI2292
aI2300
aI2312
aI2320
aI2320
aI2340
aI2352
aI2352
aI2360
aI2364
aI2364
aI2364
aI2364
aI2364
aI2364
aI2364
aI2364
aI2364
aI2408
aI2408
aI2408
aI2408
aI2412
aI2424
aI2440
aI2456
aI2460
aI2460
aI2460
aI2460
aI2460
aI2460
aI2460
aI2460
aI2460
aI2456
aI2448
aI2440
aI2436
aI2436
aI2436
aI2436
aI2432
aI2432
aI2432
aI2440
aI2440
aI2440
aI2440
aI2440
aI2440
aI2440
aI2440
aI2440
aI2440
aI2440
aI2440
aI2440
aI2440
aI2460
aI2460
aI2460
aI2480
aI2480
aI2492
aI2500
aI2500
aI2500
aI2500
aI2500
aI2500
aI2492
aI2492
aI2492
aI2492
aI2504
aI2516
aI2516
aI2516
aI2516
aI2508
aI2508
aI2508
aI2516
aI2516
aI2516
aI2512
aI2512
aI2512
aI2512
aI2512
aI2512
aI2512
aI2512
aI2512
aI2512
aI2512
aI2512
aI2512
aI2512
aI2512
aI2512
aI2508
aI2508
aI2492
aI2492
aI2500
aI2508
aI2512
aI2512
aI2516
aI2508
aI2484
aI2484
aI2484
aI2492
aI2492
aI2492
aI2496
aI2496
aI2492
aI2492
aI2492
aI2492
aI2492
aI2492
aI2492
aI2488
aI2492
aI2492
aI2492
aI2492
aI2492
aI2492
aI2492
aI2436
aI2380
aI2340
aI2348
aI2384
aI2412
aI2468
aI2468
aI2468
aI2428
aI2452
aI2432
aI2424
aI2408
aI2408
aI2408
aI2408
aI2408
aI2408
aI2408
aI2408
aI2408
aI2408
aI2408
aI2408
aI2408
aI2408
aI2408
aI2408
aI2408
aI2408
aI2408
aI2408
aI2408
aI2408
aI2404
aI2408
aI2416
aI2420
aI2412
aI2412
aI2412
aI2412
aI2412
aI2412
aI2496
aI2508
aI2508
aI2492
aI2484
aI2484
aI2432
aI2352
aI2300
aI2248
aI2248
aI2248
aI2264
aI2268
aI2272
aI2276
aI2284
aI2288
aI2292
aI2292
aI2300
aI2300
aI2304
aI2308
aI2308
aI2308
aI2320
aI2352
aI2356
aI2356
aI2356
aI2356
aI2356
aI2368
aI2388
aI2392
aI2396
aI2396
aI2396
aI2396
aI2396
aI2400
aI2408
aI2408
aI2432
aI2448
aI2460
aI2476
aI2484
aI2496
aI2524
aI2536
aI2536
aI2536
aI2536
aI2536
aI2536
aI2536
aI2536
aI2536
aI2536
aI2536
aI2536
aI2536
aI2536
aI2536
aI2536
aI2536
aI2548
aI2564
aI2580
aI2588
aI2588
aI2588
aI2592
aI2596
aI2596
aI2596
aI2596
aI2612
aI2624
aI2656
aI2708
aI2720
aI2732
aI2744
aI2744
aI2744
aI2740
aI2740
aI2740
aI2736
aI2732
aI2716
aI2704
aI2692
aI2656
aI2648
aI2648
aI2648
aI2648
aI2648
aI2644
aI2644
aI2616
aI2600
aI2584
aI2576
aI2568
aI2568
aI2580
aI2608
aI2640
aI2656
aI2664
aI2680
aI2692
aI2716
aI2732
aI2756
aI2760
aI2756
aI2728
aI2716
aI2704
aI2700
aI2700
aI2700
aI2700
aI2700
aI2700
aI2700
aI2708
aI2708
aI2708
aI2708
aI2712
aI2712
aI2716
aI2716
aI2716
aI2716
aI2716
aI2720
aI2720
aI2720
aI2720
aI2720
aI2720
aI2720
aI2712
aI2708
aI2708
aI2708
aI2700
aI2700
aI2700
aI2696
aI2696
aI2696
aI2696
aI2696
aI2696
aI2696
aI2696
aI2696
aI2696
aI2696
aI2696
aI2696
aI2696
aI2688
aI2668
aI2648
aI2624
aI2616
aI2616
aI2604
aI2592
aI2548
aI2492
aI2480
aI2480
aI2480
aI2480
aI2480
aI2480
aI2480
aI2476
aI2468
aI2468
aI2420
aI2416
aI2416
aI2408
aI2400
aI2392
aI2376
aI2352
aI2352
aI2384
aI2416
aI2420
aI2420
aI2420
aI2416
aI2432
aI2448
aI2468
aI2500
aI2500
aI2508
aI2516
aI2520
aI2504
aI2476
aI2468
aI2468
aI2440
aI2432
aI2432
aI2432
aI2432
aI2432
aI2428
aI2424
aI2424
aI2424
aI2424
aI2428
aI2428
aI2432
aI2432
aI2432
aI2428
aI2424
aI2416
aI2416
aI2408
aI2400
aI2392
aI2372
aI2356
aI2344
aI2344
aI2340
aI2340
aI2340
aI2340
aI2340
aI2340
aI2340
aI2340
aI2340
aI2336
aI2340
aI2344
aI2344
aI2344
aI2348
aI2364
aI2368
aI2368
aI2368
aI2368
aI2360
aI2356
aI2356
aI2352
aI2348
aI2348
aI2344
aI2340
aI2340
aI2340
aI2340
aI2340
aI2340
aI2340
aI2340
aI2340
aI2340
aI2340
aI2344
aI2352
aI2356
aI2356
aI2360
aI2360
aI2360
aI2360
aI2360
aI2360
aI2360
aI2360
aI2360
aI2360
aI2360
aI2360
aI2360
aI2360
aI2360
aI2360
aI2360
aI2360
aI2360
aI2360
aI2360
aI2360
aI2360
aI2360
aI2360
aI2360
aI2360
aI2360
aI2360
aI2360
aI2360
aI2360
aI2360
aI2360
aI2360
aI2360
aI2360
aI2356
aI2352
aI2340
aI2332
aI2316
aI2316
aI2316
aI2320
aI2324
aI2324
aI2332
aI2332
aI2332
aI2332
aI2332
aI2332
aI2332
aI2332
aI2332
aI2332
aI2332
aI2332
aI2336
aI2340
aI2352
aI2352
aI2352
aI2352
aI2352
aI2352
aI2352
aI2352
aI2352
aI2352
aI2352
aI2352
aI2352
aI2352
aI2352
aI2352
aI2352
aI2352
aI2352
aI2352
aI2352
aI2352
aI2352
aI2352
aI2348
aI2340
aI2312
aI2300
aI2276
aI2272
aI2272
aI2268
aI2268
aI2268
aI2268
aI2268
aI2268
aI2268
aI2268
aI2268
aI2268
aI2276
aI2276
aI2284
aI2288
aI2296
aI2296
aI2296
aI2296
aI2296
aI2296
aI2324
aI2324
aI2324
aI2324
aI2324
aI2324
aI2324
aI2324
aI2324
aI2324
aI2332
aI2336
aI2340
aI2348
aI2352
aI2356
aI2360
aI2364
aI2368
aI2372
aI2376
aI2376
aI2376
aI2380
aI2384
aI2384
aI2384
aI2384
aI2384
aI2384
aI2384
aI2384
aI2384
aI2384
aI2384
aI2384
aI2384
aI2384
aI2384
aI2384
aI2384
aI2384
aI2384
aI2376
aI2372
aI2368
aI2368
aI2368
aI2368
aI2368
aI2368
aI2364
aI2364
aI2360
aI2360
aI2360
aI2352
aI2348
aI2336
aI2336
aI2328
aI2324
aI2316
aI2312
aI2312
aI2312
aI2280
aI2260
aI2252
aI2252
aI2260
aI2260
aI2260
aI2260
aI2260
aI2260
aI2260
aI2260
aI2260
aI2260
aI2260
aI2260
aI2260
aI2260
aI2260
aI2260
aI2264
aI2264
aI2264
aI2264
aI2264
aI2264
aI2260
aI2260
aI2260
aI2260
aI2260
aI2252
aI2252
aI2252
aI2260
aI2260
aI2260
aI2260
aI2260
aI2260
aI2260
aI2260
aI2260
aI2260
aI2260
aI2260
aI2248
aI2240
aI2220
aI2208
aI2208
aI2208
aI2208
aI2208
aI2208
aI2204
aI2192
aI2184
aI2176
aI2168
aI2168
aI2168
aI2168
aI2168
aI2176
aI2180
aI2192
aI2200
aI2200
aI2204
aI2208
aI2208
aI2220
aI2224
aI2224
aI2224
aI2224
aI2224
aI2224
aI2224
aI2224
aI2224
aI2232
aI2260
aI2260
aI2292
aI2312
aI2312
aI2352
aI2380
aI2400
aI2412
aI2412
aI2412
aI2412
aI2416
aI2416
aI2416
aI2416
aI2416
aI2416
aI2416
aI2416
aI2416
aI2416
aI2416
aI2416
aI2416
aI2416
aI2416
aI2416
aI2416
aI2408
aI2408
aI2408
aI2408
aI2408
aI2408
aI2408
aI2408
aI2400
aI2400
aI2396
aI2392
aI2392
aI2392
aI2392
aI2392
aI2392
aI2392
aI2392
aI2392
aI2392
aI2392
aI2384
aI2384
aI2384
aI2384
aI2384
aI2384
aI2384
aI2384
aI2384
aI2384
aI2384
aI2384
aI2384
aI2384
aI2380
aI2376
aI2368
aI2368
aI2368
aI2368
aI2348
aI2344
aI2336
aI2336
aI2316
aI2292
aI2292
aI2288
aI2276
aI2268
aI2268
aI2268
aI2268
aI2268
aI2268
aI2268
aI2268
aI2324
aI2340
aI2340
aI2340
aI2340
aI2340
aI2340
aI2340
aI2340
aI2340
aI2340
aI2340
aI2340
aI2340
aI2340
aI2340
aI2340
aI2340
aI2340
aI2340
aI2340
aI2340
aI2340
aI2340
aI2340
aI2328
aI2320
aI2316
aI2308
aI2304
aI2300
aI2300
aI2300
aI2300
aI2300
aI2300
aI2300
aI2300
aI2300
aI2300
aI2300
aI2300
aI2300
aI2300
aI2300
aI2300
aI2300
aI2300
aI2300
aI2300
aI2300
aI2300
aI2300
aI2300
aI2300
aI2300
aI2300
aI2300
aI2300
aI2300
aI2300
aI2300
aI2300
aI2324
aI2340
aI2352
aI2352
aI2364
aI2376
aI2380
aI2380
aI2380
aI2380
aI2380
aI2380
aI2380
aI2380
aI2380
aI2380
aI2380
aI2380
aI2380
aI2380
aI2380
aI2380
aI2380
aI2380
aI2380
aI2380
aI2380
aI2380
aI2380
aI2380
aI2380
aI2380
aI2380
aI2380
aI2380
aI2380
aI2380
aI2380
aI2380
aI2380
aI2380
aI2380
aI2380
aI2380
aI2380
aI2380
aI2380
aI2380
aI2380
aI2380
aI2380
aI2380
aI2380
aI2380
aI2380
aI2380
aI2380
aI2380
aI2380
aI2380
aI2380
aI2380
aI2380
aI2380
aI2380
aI2380
aI2380
aI2380
aI2380
aI2380
aI2380
aI2380
aI2380
aI2380
aI2380
aI2380
aI2380
aI2380
aI2380
aI2380
aI2380
aI2380
aI2380
aI2380
aI2380
aI2380
aI2380
aI2380
aI2380
aI2380
aI2380
aI2380
aI2380
aI2380
aI2380
aI2384
aI2392
aI2412
aI2424
aI2428
aI2432
aI2432
aI2432
aI2432
aI2432
aI2432
aI2432
aI2432
aI2432
aI2432
aI2432
aI2432
aI2424
aI2424
aI2424
aI2408
aI2380
aI2376
aI2376
aI2376
aI2376
aI2372
aI2312
aI2312
aI2312
aI2312
aI2312
aI2312
aI2312
aI2316
aI2316
aI2320
aI2320
aI2320
aI2320
aI2320
aI2320
aI2320
aI2320
aI2320
aI2320
aI2320
aI2320
aI2316
aI2312
aI2312
aI2300
aI2292
aI2284
aI2284
aI2284
aI2284
aI2284
aI2284
aI2284
aI2276
aI2272
aI2264
aI2260
aI2260
aI2244
aI2232
aI2224
aI2216
aI2216
aI2216
aI2216
aI2216
aI2216
aI2220
aI2220
aI2224
aI2224
aI2224
aI2224
aI2224
aI2224
aI2224
aI2224
aI2224
aI2224
aI2224
aI2224
aI2224
aI2224
aI2224
aI2224
aI2224
aI2224
aI2224
aI2216
aI2204
aI2204
aI2204
aI2204
aI2204
aI2204
aI2216
aI2224
aI2228
aI2232
aI2232
aI2232
aI2232
aI2232
aI2232
aI2232
aI2232
aI2232
aI2232
aI2244
aI2252
aI2252
aI2260
aI2260
aI2260
aI2260
aI2260
aI2260
aI2260
aI2260
aI2260
aI2260
aI2260
aI2260
aI2264
aI2268
aI2268
aI2268
aI2268
aI2268
aI2268
aI2268
aI2268
aI2268
aI2280
aI2284
aI2292
aI2292
aI2292
aI2292
aI2300
aI2316
aI2316
aI2316
aI2316
aI2328
aI2332
aI2332
aI2336
aI2336
aI2340
aI2340
aI2340
aI2340
aI2340
aI2340
aI2340
aI2340
aI2340
aI2344
aI2344
aI2360
aI2360
aI2360
aI2360
aI2360
aI2360
aI2360
aI2360
aI2360
aI2360
aI2360
aI2360
aI2360
aI2360
aI2360
aI2372
aI2376
aI2388
aI2404
aI2404
aI2404
aI2408
aI2408
aI2408
aI2408
aI2408
aI2408
aI2408
aI2408
aI2408
aI2408
aI2408
aI2408
aI2408
aI2408
aI2408
aI2408
aI2408
aI2408
aI2408
aI2408
aI2408
aI2408
aI2408
aI2408
aI2416
aI2432
aI2444
aI2456
aI2460
aI2460
aI2464
aI2464
aI2464
aI2468
aI2468
aI2468
aI2468
aI2468
aI2468
aI2468
aI2468
aI2468
aI2468
aI2468
aI2468
aI2468
aI2468
aI2468
aI2468
aI2444
aI2392
aI2388
aI2392
aI2400
aI2400
aI2400
aI2400
aI2400
aI2400
aI2400
aI2400
aI2400
aI2400
aI2400
aI2396
aI2392
aI2392
aI2392
aI2392
aI2392
aI2404
aI2404
aI2404
aI2404
aI2404
aI2404
aI2404
aI2404
aI2404
aI2404
aI2404
aI2404
aI2404
aI2404
aI2404
aI2404
aI2404
aI2404
aI2404
aI2404
aI2404
aI2404
aI2404
aI2404
aI2404
aI2408
aI2416
aI2424
aI2424
aI2424
aI2408
aI2408
aI2408
aI2408
aI2408
aI2408
aI2408
aI2408
aI2408
aI2408
aI2408
aI2408
aI2408
aI2416
aI2420
aI2424
aI2428
aI2432
aI2432
aI2432
aI2432
aI2432
aI2432
aI2432
aI2432
aI2432
aI2432
aI2432
aI2432
aI2432
aI2432
aI2432
aI2432
aI2432
aI2432
aI2432
aI2432
aI2432
aI2432
aI2432
aI2432
aI2432
aI2432
aI2432
aI2432
aI2432
aI2432
aI2432
aI2448
aI2460
aI2468
aI2468
aI2468
aI2468
aI2468
aI2468
aI2468
aI2468
aI2468
aI2468
aI2468
aI2468
aI2468
aI2468
aI2468
aI2468
aI2468
aI2468
aI2492
aI2500
aI2500
aI2500
aI2500
aI2500
aI2500
aI2500
aI2500
aI2500
aI2500
aI2500
aI2500
aI2500
aI2500
aI2500
aI2504
aI2508
aI2508
aI2508
aI2508
aI2508
aI2508
aI2508
aI2508
aI2508
aI2508
aI2508
aI2508
aI2508
aI2508
aI2508
aI2508
aI2524
aI2532
aI2532
aI2536
aI2544
aI2552
aI2556
aI2560
aI2560
aI2560
aI2560
aI2560
aI2564
aI2576
aI2576
aI2576
aI2592
aI2620
aI2632
aI2644
aI2644
aI2644
aI2644
aI2644
aI2644
aI2644
aI2648
aI2652
aI2684
aI2728
aI2732
aI2740
aI2740
aI2740
aI2724
aI2720
aI2720
aI2720
aI2720
aI2720
aI2720
aI2732
aI2732
aI2732
aI2732
aI2732
aI2732
aI2740
aI2744
aI2744
aI2740
aI2736
aI2748
aI2776
aI2792
aI2792
aI2792
aI2792
aI2800
aI2824
aI2824
aI2824
aI2824
aI2824
aI2824
aI2824
aI2824
aI2824
aI2824
aI2824
aI2824
aI2820
aI2812
aI2812
aI2812
aI2828
aI2840
aI2840
aI2840
aI2840
aI2840
aI2836
aI2832
aI2832
aI2832
aI2832
aI2820
aI2816
aI2808
aI2804
aI2800
aI2792
aI2784
aI2764
aI2756
aI2756
aI2748
aI2740
aI2740
aI2740
aI2728
aI2716
aI2700
aI2676
aI2648
aI2636
aI2624
aI2600
aI2588
aI2580
aI2560
aI2528
aI2528
aI2528
aI2528
aI2528
aI2528
aI2512
aI2512
aI2512
aI2512
aI2512
aI2512
aI2492
aI2448
aI2444
aI2444
aI2444
aI2440
aI2440
aI2432
aI2384
aI2372
aI2364
aI2340
aI2300
aI2300
aI2296
aI2268
aI2252
aI2248
aI2240
aI2224
aI2216
aI2216
aI2216
aI2216
aI2216
aI2216
aI2216
aI2216
aI2216
aI2216
aI2208
aI2140
aI2136
aI2132
aI2132
aI2132
aI2132
aI2116
aI2100
aI2068
aI2068
aI2068
aI2068
aI2068
aI2056
aI2052
aI2052
aI2052
aI2052
aI2052
aI2052
aI2052
aI2052
aI2052
aI2052
aI2052
aI2052
aI2052
aI2052
aI2052
aI2052
aI2052
aI2048
aI2040
aI2056
aI2060
aI2060
aI2060
aI2044
aI2008
aI1980
aI1980
aI1980
aI1980
aI1980
aI1980
aI1980
aI1980
aI1980
aI1980
aI1980
aI1980
aI1980
aI1980
aI1980
aI1980
aI1980
aI1980
aI1980
aI1980
aI1984
aI1984
aI1984
aI1992
aI1992
aI1992
aI1992
aI1992
aI1992
aI1992
aI1992
aI1992
aI1992
aI1992
aI1992
aI1992
aI1988
aI1984
aI1984
aI1984
aI1984
aI1984
aI1984
aI1984
aI1984
aI1984
aI1984
aI1984
aI1984
aI1984
aI1992
aI2000
aI2000
aI2000
aI2000
aI2000
aI2000
aI2016
aI2020
aI2020
aI2020
aI2020
aI2020
aI2020
aI2020
aI2020
aI2020
aI2020
aI2020
aI2020
aI2020
aI2020
aI2024
aI2028
aI2044
aI2060
aI2084
aI2092
aI2092
aI2092
aI2092
aI2092
aI2092
aI2092
aI2092
aI2092
aI2092
aI2092
aI2092
aI2100
aI2100
aI2100
aI2100
aI2100
aI2100
aI2100
aI2112
aI2112
aI2112
aI2120
aI2128
aI2136
aI2136
aI2136
aI2136
aI2136
aI2144
aI2164
aI2184
aI2184
aI2184
aI2184
aI2196
aI2212
aI2216
aI2224
aI2228
aI2228
aI2228
aI2228
aI2228
aI2240
aI2240
aI2240
aI2232
aI2232
aI2232
aI2232
aI2228
aI2228
aI2228
aI2228
aI2228
aI2228
aI2228
aI2228
aI2228
aI2228
aI2228
aI2228
aI2228
aI2228
aI2236
aI2236
aI2236
aI2248
aI2276
aI2276
aI2276
aI2276
aI2276
aI2284
aI2300
aI2328
aI2332
aI2332
aI2332
aI2340
aI2344
aI2344
aI2348
aI2348
aI2348
aI2348
aI2348
aI2348
aI2348
aI2348
aI2348
aI2348
aI2348
aI2348
aI2348
aI2364
aI2376
aI2380
aI2380
aI2380
aI2380
aI2380
aI2392
aI2396
aI2396
aI2388
aI2372
aI2360
aI2360
aI2360
aI2360
aI2360
aI2360
aI2376
aI2392
aI2400
aI2416
aI2416
aI2416
aI2420
aI2428
aI2428
aI2432
aI2432
aI2436
aI2440
aI2440
aI2440
aI2428
aI2424
aI2416
aI2400
aI2392
aI2392
aI2392
aI2392
aI2392
aI2392
aI2392
aI2392
aI2392
aI2392
aI2392
aI2392
aI2408
aI2408
aI2408
aI2408
aI2408
aI2408
aI2408
aI2408
aI2408
aI2408
aI2408
aI2408
aI2408
aI2408
aI2408
aI2408
aI2408
aI2408
aI2408
aI2408
aI2408
aI2408
aI2408
aI2408
aI2408
aI2408
aI2408
aI2408
aI2408
aI2408
aI2412
aI2416
aI2416
aI2420
aI2424
aI2424
aI2432
aI2452
aI2464
aI2476
aI2476
aI2476
aI2476
aI2476
aI2476
aI2476
aI2476
aI2476
aI2476
aI2476
aI2476
aI2476
aI2476
aI2476
aI2476
aI2476
aI2476
aI2476
aI2476
aI2476
aI2476
aI2484
aI2484
aI2484
aI2484
aI2484
aI2484
aI2484
aI2484
aI2484
aI2484
aI2484
aI2484
aI2484
aI2484
aI2484
aI2484
aI2464
aI2456
aI2452
aI2452
aI2460
aI2460
aI2456
aI2452
aI2452
aI2452
aI2452
aI2452
aI2452
aI2452
aI2452
aI2448
aI2444
aI2444
aI2444
aI2444
aI2444
aI2444
aI2440
aI2440
aI2440
aI2440
aI2440
aI2440
aI2440
aI2440
aI2440
aI2440
aI2440
aI2440
aI2440
aI2440
aI2440
aI2440
aI2440
aI2440
aI2440
aI2432
aI2432
aI2432
aI2432
aI2432
aI2432
aI2448
aI2460
aI2460
aI2460
aI2460
aI2460
aI2460
aI2460
aI2460
aI2460
aI2460
aI2460
aI2460
aI2460
aI2460
aI2460
aI2460
aI2460
aI2460
aI2460
aI2460
aI2460
aI2460
aI2460
aI2456
aI2456
aI2456
aI2456
aI2456
aI2456
aI2456
aI2452
aI2448
aI2440
aI2436
aI2436
aI2432
aI2432
aI2432
aI2440
aI2440
aI2440
aI2440
aI2440
aI2440
aI2440
aI2440
aI2440
aI2440
aI2440
aI2440
aI2440
aI2440
aI2440
aI2440
aI2440
aI2440
aI2440
aI2440
aI2440
aI2440
aI2440
aI2440
aI2440
aI2440
aI2440
aI2440
aI2440
aI2440
aI2444
aI2448
aI2460
aI2472
aI2472
aI2472
aI2472
aI2472
aI2472
aI2476
aI2476
aI2476
aI2476
aI2476
aI2476
aI2476
aI2476
aI2476
aI2484
aI2484
aI2484
aI2484
aI2484
aI2484
aI2484
aI2484
aI2484
aI2484
aI2484
aI2484
aI2476
aI2476
aI2476
aI2476
aI2476
aI2476
aI2476
aI2476
aI2476
aI2476
aI2476
aI2476
aI2476
aI2476
aI2476
aI2476
aI2476
aI2476
aI2472
aI2468
aI2468
aI2468
aI2468
aI2468
aI2468
aI2468
aI2468
aI2480
aI2492
aI2492
aI2492
aI2484
aI2484
aI2484
aI2484
aI2484
aI2480
aI2476
aI2472
aI2452
aI2444
aI2440
aI2440
aI2440
aI2440
aI2440
aI2440
aI2440
aI2440
aI2440
aI2440
aI2440
aI2440
aI2440
aI2440
aI2432
aI2416
aI2408
aI2400
aI2384
aI2364
aI2356
aI2356
aI2356
aI2360
aI2372
aI2376
aI2380
aI2380
aI2384
aI2400
aI2400
aI2400
aI2400
aI2400
aI2400
aI2400
aI2400
aI2400
aI2400
aI2400
aI2400
aI2400
aI2400
aI2400
aI2400
aI2400
aI2400
aI2400
aI2400
aI2412
aI2420
aI2424
aI2424
aI2424
aI2424
aI2424
aI2424
aI2424
aI2424
aI2424
aI2424
aI2420
aI2420
aI2420
aI2420
aI2420
aI2420
aI2420
aI2420
aI2420
aI2416
aI2408
aI2404
aI2400
aI2400
aI2400
aI2396
aI2392
aI2388
aI2384
aI2384
aI2384
aI2384
aI2380
aI2376
aI2372
aI2368
aI2368
aI2368
aI2368
aI2368
aI2368
aI2368
aI2368
aI2368
aI2368
aI2360
aI2356
aI2352
aI2352
aI2352
aI2352
aI2352
aI2352
aI2352
aI2352
aI2352
aI2352
aI2352
aI2352
aI2352
aI2352
aI2352
aI2352
aI2352
aI2352
aI2352
aI2352
aI2352
aI2352
aI2352
aI2352
aI2352
aI2352
aI2352
aI2352
aI2352
aI2352
aI2352
aI2352
aI2340
aI2332
aI2332
aI2332
aI2332
aI2332
aI2332
aI2332
aI2332
aI2332
aI2332
aI2332
aI2332
aI2332
aI2332
aI2332
aI2332
aI2332
aI2332
aI2332
aI2332
aI2332
aI2332
aI2332
aI2332
aI2332
aI2332
aI2332
aI2332
aI2332
aI2332
aI2332
aI2332
aI2332
aI2332
aI2332
aI2332
aI2332
aI2332
aI2332
aI2332
aI2332
aI2332
aI2332
aI2332
aI2332
aI2332
aI2332
aI2332
aI2332
aI2332
aI2332
aI2332
aI2332
aI2332
aI2332
aI2332
aI2332
aI2332
aI2332
aI2332
aI2332
aI2332
aI2332
aI2332
aI2332
aI2340
aI2344
aI2368
aI2384
aI2396
aI2412
aI2428
aI2448
aI2480
aI2480
aI2480
aI2564
aI2600
aI2632
aI2660
aI2668
aI2668
aI2668
aI2668
aI2668
aI2668
aI2668
aI2668
aI2668
aI2668
aI2668
aI2668
aI2668
aI2668
aI2668
aI2668
aI2668
aI2668
aI2668
aI2668
aI2668
aI2668
aI2668
aI2668
aI2668
aI2668
aI2668
aI2668
aI2668
aI2668
aI2668
aI2668
aI2668
aI2668
aI2668
aI2668
aI2668
aI2668
aI2668
aI2668
aI2668
aI2668
aI2668
aI2660
aI2660
aI2660
aI2660
aI2656
aI2656
aI2652
aI2648
aI2640
aI2640
aI2640
aI2640
aI2636
aI2636
aI2632
aI2632
aI2632
aI2624
aI2620
aI2620
aI2620
aI2620
aI2620
aI2620
aI2620
aI2620
aI2620
aI2620
aI2620
aI2620
aI2620
aI2620
aI2620
aI2620
aI2624
aI2628
aI2628
aI2628
aI2616
aI2616
aI2616
aI2616
aI2612
aI2608
aI2608
aI2608
aI2608
aI2608
aI2608
aI2608
aI2608
aI2600
aI2596
aI2596
aI2596
aI2596
aI2596
aI2552
aI2552
aI2552
aI2552
aI2536
aI2524
aI2520
aI2520
aI2520
aI2512
aI2508
aI2496
aI2492
aI2492
aI2492
aI2492
aI2492
aI2492
aI2464
aI2440
aI2432
aI2424
aI2408
aI2380
aI2364
aI2336
aI2332
aI2324
aI2312
aI2276
aI2268
aI2244
aI2236
aI2232
aI2232
aI2232
aI2228
aI2212
aI2208
aI2208
aI2208
aI2176
aI2148
aI2148
aI2148
aI2148
aI2148
aI2148
aI2148
aI2164
aI2184
aI2188
aI2188
aI2188
aI2192
aI2196
aI2196
aI2196
aI2196
aI2196
aI2196
aI2200
aI2208
aI2208
aI2200
aI2200
aI2200
aI2200
aI2200
aI2196
aI2196
aI2196
aI2196
aI2196
aI2196
aI2196
aI2196
aI2200
aI2200
aI2200
aI2208
aI2208
aI2212
aI2220
aI2228
aI2232
aI2244
aI2244
aI2244
aI2244
aI2244
aI2244
aI2248
aI2252
aI2252
aI2260
aI2264
aI2264
aI2264
aI2272
aI2276
aI2280
aI2300
aI2300
aI2300
aI2300
aI2324
aI2324
aI2324
aI2368
aI2372
aI2384
aI2408
aI2408
aI2408
aI2408
aI2408
aI2408
aI2408
aI2408
a.(lp0
I936
aI936
aI936
aI940
aI944
aI944
aI968
aI972
aI972
aI972
aI972
aI972
aI972
aI972
aI972
aI972
aI972
aI972
aI972
aI972
aI988
aI988
aI988
aI988
aI988
aI988
aI988
aI980
aI960
aI948
aI948
aI944
aI936
aI936
aI936
aI936
aI936
aI936
aI932
aI932
aI932
aI932
aI932
aI932
aI932
aI932
aI932
aI932
aI932
aI932
aI932
aI932
aI932
aI932
aI932
aI932
aI932
aI932
aI932
aI932
aI932
aI932
aI932
aI932
aI932
aI932
aI932
aI932
aI932
aI932
aI932
aI932
aI932
aI932
aI932
aI932
aI932
aI932
aI932
aI932
aI932
aI932
aI932
aI932
aI924
aI912
aI908
aI908
aI904
aI904
aI904
aI904
aI912
aI928
aI944
aI972
aI996
aI1012
aI1020
aI1020
aI1028
aI1032
aI1032
aI1036
aI1036
aI1036
aI1036
aI1036
aI1036
aI1036
aI1036
aI1036
aI1036
aI1036
aI1036
aI1040
aI1052
aI1080
aI1104
aI1112
aI1120
aI1136
aI1136
aI1132
aI1132
aI1132
aI1120
aI1100
aI1092
aI1088
aI1084
aI1076
aI1076
aI1088
aI1088
aI1088
aI1080
aI1076
aI1076
aI1076
aI1080
aI1088
aI1088
aI1088
aI1088
aI1052
aI1020
aI984
aI972
aI944
aI920
aI888
aI852
aI836
aI828
aI820
aI792
aI772
aI748
aI748
aI748
aI780
aI800
aI836
aI844
aI864
aI884
aI888
aI908
aI936
aI936
aI936
aI932
aI904
aI884
aI852
aI828
aI812
aI788
aI780
aI764
aI748
aI728
aI724
aI724
aI724
aI724
aI756
aI812
aI864
aI896
aI928
aI964
aI992
aI1012
aI1028
aI1036
aI1048
aI1016
aI1012
aI996
aI992
aI988
aI988
aI1008
aI1028
aI1008
aI988
aI944
aI888
aI840
aI796
aI780
aI748
aI724
aI724
aI724
aI724
aI724
aI724
aI736
aI748
aI756
aI788
aI804
aI820
aI836
aI844
aI836
aI816
aI780
aI772
aI772
aI772
aI772
aI776
aI776
aI776
aI776
aI776
aI776
aI776
aI776
aI768
aI764
aI756
aI756
aI756
aI756
aI756
aI756
aI756
aI764
aI772
aI772
aI776
aI776
aI776
aI776
aI776
aI776
aI776
aI776
aI772
aI760
aI748
aI736
aI732
aI728
aI728
aI712
aI704
aI704
aI704
aI704
aI704
aI704
aI704
aI712
aI744
aI772
aI784
aI796
aI812
aI824
aI840
aI860
aI876
aI896
aI932
aI944
aI960
aI988
aI1012
aI1028
aI1044
aI1052
aI1060
aI1064
aI1064
aI1072
aI1080
aI1096
aI1128
aI1136
aI1172
aI1164
aI1152
aI1152
aI1136
aI1128
aI1128
aI1104
aI1104
aI1104
aI1104
aI1104
aI1104
aI1104
aI1104
aI1104
aI1104
aI1116
aI1120
aI1124
aI1124
aI1096
aI1096
aI1096
aI1096
aI1104
aI1128
aI1128
aI1128
aI1128
aI1136
aI1140
aI1144
aI1152
aI1152
aI1152
aI1152
aI1152
aI1152
aI1152
aI1152
aI1160
aI1172
aI1176
aI1176
aI1176
aI1176
aI1176
aI1176
aI1188
aI1188
aI1188
aI1188
aI1164
aI1152
aI1140
aI1124
aI1120
aI1108
aI1108
aI1108
aI1108
aI1108
aI1108
aI1108
aI1108
aI1108
aI1108
aI1108
aI1108
aI1108
aI1108
aI1108
aI1108
aI1108
aI1108
aI1108
aI1108
aI1108
aI1108
aI1108
aI1108
aI1108
aI1108
aI1108
aI1108
aI1120
aI1120
aI1120
aI1120
aI1128
aI1128
aI1128
aI1128
aI1128
aI1128
aI1128
aI1128
aI1128
aI1128
aI1128
aI1128
aI1128
aI1128
aI1128
aI1128
aI1128
aI1128
aI1128
aI1128
aI1128
aI1128
aI1128
aI1128
aI1128
aI1128
aI1128
aI1128
aI1128
aI1128
aI1128
aI1128
aI1128
aI1128
aI1128
aI1128
aI1128
aI1128
aI1128
aI1128
aI1128
aI1128
aI1128
aI1128
aI1128
aI1128
aI1128
aI1120
aI1120
aI1120
aI1120
aI1120
aI1120
aI1120
aI1120
aI1120
aI1120
aI1120
aI1120
aI1120
aI1120
aI1112
aI1104
aI1096
aI1096
aI1096
aI1096
aI1096
aI1096
aI1104
aI1108
aI1108
aI1096
aI1088
aI1088
aI1092
aI1092
aI1092
aI1092
aI1092
aI1092
aI1092
aI1092
aI1092
aI1092
aI1092
aI1092
aI1092
aI1092
aI1092
aI1092
aI1092
aI1092
aI1092
aI1092
aI1092
aI1092
aI1092
aI1092
aI1092
aI1092
aI1092
aI1092
aI1092
aI1092
aI1092
aI1092
aI1092
aI1092
aI1092
aI1092
aI1092
aI1092
aI1092
aI1092
aI1092
aI1092
aI1092
aI1092
aI1092
aI1092
aI1092
aI1092
aI1092
aI1092
aI1092
aI1092
aI1092
aI1092
aI1092
aI1092
aI1092
aI1092
aI1092
aI1092
aI1092
aI1092
aI1092
aI1092
aI1092
aI1092
aI1092
aI1092
aI1092
aI1092
aI1092
aI1092
aI1092
aI1092
aI1092
aI1092
aI1092
aI1092
aI1092
aI1092
aI1092
aI1092
aI1092
aI1092
aI1092
aI1092
aI1092
aI1092
aI1092
aI1092
aI1092
aI1092
aI1092
aI1092
aI1092
aI1092
aI1092
aI1092
aI1092
aI1092
aI1092
aI1092
aI1092
aI1092
aI1092
aI1092
aI1092
aI1092
aI1092
aI1092
aI1092
aI1092
aI1092
aI1092
aI1092
aI1092
aI1092
aI1092
aI1092
aI1092
aI1092
aI1096
aI1096
aI1096
aI1096
aI1096
aI1096
aI1092
aI1084
aI1084
aI1084
aI1084
aI1084
aI1084
aI1084
aI1092
aI1092
aI1092
aI1080
aI1080
aI1076
aI1076
aI1076
aI1076
aI1080
aI1080
aI1080
aI1080
aI1080
aI1088
aI1092
aI1108
aI1128
aI1136
aI1148
aI1168
aI1188
aI1200
aI1208
aI1208
aI1208
aI1208
aI1208
aI1200
aI1200
aI1200
aI1208
aI1208
aI1208
aI1208
aI1208
aI1208
aI1208
aI1196
aI1196
aI1196
aI1196
aI1196
aI1196
aI1196
aI1196
aI1196
aI1196
aI1196
aI1196
aI1196
aI1196
aI1196
aI1196
aI1196
aI1196
aI1196
aI1196
aI1196
aI1192
aI1192
aI1192
aI1192
aI1192
aI1192
aI1192
aI1192
aI1192
aI1168
aI1112
aI1060
aI1004
aI944
aI936
aI908
aI908
aI892
aI892
aI892
aI892
aI892
aI892
aI892
aI892
aI892
aI892
aI892
aI892
aI892
aI892
aI892
aI892
aI892
aI892
aI892
aI892
aI892
aI892
aI892
aI892
aI920
aI920
aI920
aI920
aI920
aI920
aI920
aI924
aI924
aI924
aI924
aI924
aI924
aI924
aI924
aI924
aI924
aI924
aI924
aI924
aI924
aI924
aI924
aI924
aI936
aI948
aI952
aI952
aI952
aI952
aI952
aI952
aI952
aI952
aI952
aI952
aI952
aI952
aI952
aI952
aI952
aI952
aI952
aI952
aI952
aI952
aI952
aI952
aI952
aI952
aI952
aI952
aI952
aI952
aI952
aI952
aI952
aI952
aI952
aI952
aI952
aI952
aI952
aI952
aI952
aI952
aI952
aI952
aI952
aI952
aI952
aI952
aI952
aI952
aI952
aI952
aI952
aI952
aI952
aI952
aI952
aI952
aI952
aI952
aI952
aI952
aI952
aI952
aI952
aI952
aI952
aI952
aI952
aI952
aI952
aI952
aI952
aI952
aI952
aI952
aI952
aI952
aI952
aI952
aI952
aI960
aI988
aI1012
aI1020
aI1036
aI1044
aI1052
aI1056
aI1056
aI1056
aI1080
aI1084
aI1084
aI1084
aI1084
aI1084
aI1084
aI1084
aI1084
aI1084
aI1084
aI1084
aI1084
aI1084
aI1084
aI1084
aI1084
aI1076
aI1076
aI1068
aI1068
aI1068
aI1068
aI1068
aI1068
aI1068
aI1068
aI1064
aI1068
aI1068
aI1068
aI1068
aI1068
aI1068
aI1068
aI1068
aI1068
aI1068
aI1068
aI1068
aI1064
aI1064
aI1064
aI1064
aI1064
aI1064
aI1064
aI1064
aI1064
aI1064
aI1064
aI1064
aI1064
aI1064
aI1064
aI1064
aI1064
aI1064
aI1064
aI1064
aI1064
aI1064
aI1064
aI1064
aI1064
aI1064
aI1064
aI1064
aI1064
aI1064
aI1064
aI1060
aI1068
aI1068
aI1068
aI1076
aI1088
aI1096
aI1096
aI1096
aI1092
aI1088
aI1088
aI1088
aI1084
aI1084
aI1084
aI1084
aI1084
aI1084
aI1084
aI1084
aI1084
aI1084
aI1084
aI1084
aI1084
aI1084
aI1084
aI1080
aI1080
aI1080
aI1080
aI1080
aI1080
aI1080
aI1076
aI1076
aI1076
aI1076
aI1076
aI1076
aI1076
aI1076
aI1076
aI1076
aI1076
aI1076
aI1076
aI1076
aI1076
aI1076
aI1076
aI1076
aI1076
aI1076
aI1076
aI1096
aI1140
aI1144
aI1164
aI1212
aI1252
aI1272
aI1296
aI1332
aI1344
aI1344
aI1344
aI1344
aI1344
aI1344
aI1344
aI1344
aI1344
aI1344
aI1320
aI1312
aI1296
aI1296
aI1296
aI1296
aI1272
aI1268
aI1268
aI1268
aI1268
aI1268
aI1260
aI1248
aI1240
aI1236
aI1236
aI1236
aI1236
aI1236
aI1236
aI1228
aI1224
aI1212
aI1192
aI1188
aI1188
aI1188
aI1188
aI1188
aI1188
aI1188
aI1188
aI1188
aI1188
aI1188
aI1188
aI1188
aI1188
aI1188
aI1188
aI1176
aI1160
aI1148
aI1136
aI1136
aI1132
aI1124
aI1108
aI1100
aI1096
aI1092
aI1088
aI1084
aI1080
aI1080
aI1064
aI1060
aI1056
aI1052
aI1052
aI1052
aI1052
aI1052
aI1052
aI1044
aI1044
aI1044
aI1032
aI1024
aI1004
aI984
aI964
aI952
aI944
aI936
aI936
aI936
aI936
aI936
aI936
aI936
aI936
aI936
aI936
aI936
aI936
aI928
aI928
aI908
aI900
aI896
aI896
aI896
aI896
aI896
aI896
aI896
aI896
aI896
aI896
aI896
aI896
aI896
aI896
aI896
aI896
aI896
aI896
aI896
aI896
aI896
aI896
aI896
aI896
aI896
aI872
aI856
aI844
aI844
aI836
aI828
aI804
aI804
aI788
aI768
aI768
aI768
aI768
aI768
aI768
aI768
aI768
aI768
aI768
aI768
aI768
aI768
aI768
aI768
aI768
aI768
aI768
aI768
aI768
aI768
aI768
aI768
aI768
aI768
aI768
aI768
aI768
aI768
aI768
aI768
aI788
aI792
aI792
aI792
aI812
aI844
aI856
aI864
aI864
aI864
aI864
aI864
aI864
aI864
aI864
aI864
aI860
aI860
aI856
aI848
aI844
aI844
aI844
aI844
aI844
aI844
aI844
aI836
aI836
aI836
aI836
aI836
aI836
aI836
aI836
aI836
aI836
aI828
aI828
aI828
aI824
aI824
aI824
aI824
aI824
aI824
aI824
aI824
aI824
aI820
aI808
aI804
aI804
aI800
aI796
aI796
aI796
aI796
aI796
aI808
aI816
aI828
aI836
aI836
aI844
aI844
aI844
aI844
aI844
aI844
aI844
aI840
aI836
aI832
aI828
aI828
aI828
aI824
aI820
aI820
aI816
aI816
aI808
aI808
aI808
aI808
aI808
aI808
aI808
aI796
aI792
aI776
aI748
aI712
aI704
aI688
aI688
aI688
aI688
aI688
aI688
aI688
aI688
aI688
aI688
aI676
aI676
aI672
aI672
aI664
aI664
aI664
aI656
aI644
aI636
aI636
aI636
aI636
aI640
aI656
aI664
aI664
aI656
aI652
aI652
aI652
aI652
aI652
aI652
aI652
aI652
aI652
aI652
aI652
aI652
aI652
aI652
aI652
aI652
aI652
aI652
aI652
aI652
aI652
aI652
aI652
aI652
aI652
aI652
aI652
aI652
aI652
aI652
aI652
aI652
aI652
aI652
aI652
aI652
aI652
aI652
aI652
aI652
aI652
aI652
aI652
aI640
aI620
aI604
aI584
aI584
aI580
aI564
aI548
aI548
aI540
aI532
aI528
aI524
aI524
aI524
aI524
aI524
aI524
aI524
aI524
aI524
aI524
aI524
aI524
aI524
aI524
aI524
aI524
aI524
aI532
aI536
aI536
aI536
aI536
aI528
aI528
aI528
aI528
aI528
aI528
aI528
aI528
aI528
aI528
aI528
aI524
aI524
aI520
aI508
aI496
aI496
aI496
aI496
aI496
aI492
aI492
aI492
aI492
aI492
aI492
aI492
aI492
aI492
aI492
aI492
aI492
aI492
aI496
aI520
aI528
aI532
aI532
aI540
aI564
aI572
aI572
aI580
aI584
aI600
aI616
aI656
aI668
aI668
aI668
aI668
aI668
aI668
aI668
aI668
aI668
aI668
aI668
aI668
aI668
aI668
aI668
aI668
aI668
aI668
aI672
aI696
aI708
aI712
aI720
aI736
aI748
aI756
aI768
aI788
aI796
aI800
aI804
aI804
aI792
aI788
aI788
aI788
aI816
aI824
aI832
aI832
aI832
aI836
aI856
aI876
aI876
aI880
aI896
aI912
aI924
aI944
aI952
aI964
aI972
aI988
aI996
aI996
aI996
aI996
aI992
aI980
aI1036
aI1072
aI1092
aI1092
aI1092
aI1104
aI1108
aI1112
aI1112
aI1108
aI1104
aI1104
aI1104
aI1104
aI1104
aI1104
aI1104
aI1112
aI1112
aI1112
aI1112
aI1112
aI1112
aI1116
aI1112
aI1080
aI1068
aI1068
aI1048
aI1044
aI1044
aI1044
aI1044
aI1040
aI1036
aI1036
aI1036
aI1036
aI1036
aI1036
aI1036
aI988
aI948
aI896
aI892
aI892
aI892
aI892
aI892
aI892
aI892
aI892
aI892
aI892
aI892
aI892
aI892
aI892
aI892
aI888
aI852
aI836
aI820
aI800
aI788
aI764
aI752
aI736
aI736
aI732
aI728
aI720
aI720
aI712
aI704
aI704
aI700
aI696
aI696
aI692
aI688
aI672
aI664
aI648
aI640
aI636
aI636
aI632
aI628
aI624
aI620
aI620
aI604
aI596
aI596
aI596
aI592
aI588
aI588
aI588
aI588
aI588
aI588
aI584
aI580
aI580
aI596
aI596
aI600
aI604
aI604
aI604
aI604
aI604
aI604
aI604
aI604
aI604
aI604
aI612
aI612
aI612
aI608
aI604
aI604
aI596
aI592
aI592
aI588
aI588
aI588
aI588
aI588
aI588
aI588
aI588
aI588
aI588
aI592
aI592
aI592
aI592
aI592
aI584
aI584
aI584
aI584
aI584
aI584
aI584
aI584
aI584
aI584
aI584
aI584
aI584
aI584
aI584
aI584
aI584
aI612
aI612
aI612
aI648
aI648
aI704
aI720
aI720
aI720
aI720
aI720
aI720
aI736
aI736
aI736
aI748
aI768
aI768
aI768
aI768
aI768
aI768
aI768
aI768
aI756
aI756
aI756
aI764
aI764
aI764
aI764
aI764
aI764
aI764
aI764
aI764
aI764
aI764
aI764
aI764
aI764
aI764
aI764
aI776
aI776
aI816
aI836
aI884
aI908
aI928
aI928
aI916
aI904
aI896
aI896
aI896
aI920
aI932
aI948
aI956
aI964
aI984
aI984
aI984
aI984
aI984
aI984
aI1004
aI1060
aI1068
aI1068
aI1068
aI1068
aI1068
aI1068
aI1068
aI1080
aI1100
aI1128
aI1136
aI1160
aI1176
aI1228
aI1228
aI1228
aI1264
aI1284
aI1304
aI1304
aI1296
aI1296
aI1296
aI1296
aI1296
aI1296
aI1296
aI1296
aI1296
aI1296
aI1296
aI1296
aI1296
aI1296
aI1296
aI1296
aI1296
aI1296
aI1296
aI1296
aI1296
aI1296
aI1304
aI1348
aI1388
aI1412
aI1420
aI1420
aI1420
aI1420
aI1420
aI1420
aI1412
aI1392
aI1368
aI1344
aI1300
aI1284
aI1280
aI1264
aI1264
aI1252
aI1252
aI1252
aI1288
aI1300
aI1312
aI1328
aI1336
aI1348
aI1356
aI1364
aI1380
aI1392
aI1400
aI1404
aI1408
aI1408
aI1384
aI1324
aI1304
aI1304
aI1304
aI1304
aI1304
aI1284
aI1248
aI1232
aI1232
aI1228
aI1228
aI1228
aI1228
aI1220
aI1216
aI1212
aI1204
aI1196
aI1192
aI1184
aI1176
aI1176
aI1172
aI1172
aI1180
aI1188
aI1188
aI1188
aI1188
aI1188
aI1188
aI1188
aI1188
aI1188
aI1188
aI1188
aI1188
aI1188
aI1188
aI1188
aI1192
aI1204
aI1224
aI1232
aI1232
aI1236
aI1244
aI1248
aI1248
aI1248
aI1248
aI1264
aI1280
aI1304
aI1336
aI1344
aI1336
aI1316
aI1308
aI1304
aI1296
aI1296
aI1296
aI1284
aI1280
aI1272
aI1268
aI1268
aI1304
aI1328
aI1352
aI1372
aI1376
aI1380
aI1380
aI1380
aI1388
aI1400
aI1424
aI1440
aI1440
aI1444
aI1432
aI1420
aI1408
aI1404
aI1396
aI1384
aI1372
aI1360
aI1352
aI1348
aI1344
aI1344
aI1336
aI1328
aI1324
aI1304
aI1280
aI1252
aI1244
aI1216
aI1200
aI1176
aI1156
aI1144
aI1136
aI1128
aI1112
aI1104
aI1096
aI1096
aI1092
aI1080
aI1068
aI1056
aI1056
aI1056
aI1056
aI1056
aI1056
aI1056
aI1048
aI1044
aI1044
aI1044
aI1040
aI1036
aI1036
aI1032
aI1032
aI1032
aI1032
aI1032
aI1032
aI1032
aI1032
aI1032
aI1032
aI1032
aI1032
aI1032
aI1032
aI1004
aI996
aI996
aI988
aI988
aI968
aI948
aI928
aI912
aI900
aI896
aI896
aI896
aI896
aI896
aI896
aI896
aI904
aI904
aI904
aI896
aI896
aI896
aI896
aI904
aI924
aI940
aI952
aI972
aI984
aI996
aI1016
aI1028
aI1028
aI1020
aI988
aI980
aI980
aI984
aI984
aI984
aI980
aI968
aI936
aI884
aI872
aI872
aI892
aI924
aI928
aI936
aI944
aI948
aI960
aI976
aI996
aI1004
aI1016
aI1024
aI1024
aI1032
aI1044
aI1060
aI1068
aI1084
aI1096
aI1108
aI1120
aI1136
aI1148
aI1164
aI1180
aI1196
aI1200
aI1200
aI1208
aI1212
aI1212
aI1212
aI1212
aI1212
aI1212
aI1224
aI1232
aI1272
aI1280
aI1280
aI1280
aI1280
aI1304
aI1312
aI1312
aI1312
aI1332
aI1344
aI1348
aI1352
aI1360
aI1372
aI1376
aI1376
aI1388
aI1400
aI1404
aI1404
aI1404
aI1404
aI1404
aI1396
aI1392
aI1384
aI1384
aI1380
aI1368
aI1360
aI1360
aI1356
aI1352
aI1348
aI1344
aI1344
aI1344
aI1344
aI1344
aI1344
aI1344
aI1344
aI1344
aI1344
aI1344
aI1344
aI1344
aI1344
aI1344
aI1344
aI1344
aI1344
aI1344
aI1344
aI1344
aI1344
aI1344
aI1344
aI1344
aI1344
aI1344
aI1344
aI1344
aI1344
aI1344
aI1344
aI1344
aI1368
aI1376
aI1380
aI1392
aI1392
aI1380
aI1376
aI1368
aI1360
aI1356
aI1352
aI1352
aI1348
aI1348
aI1348
aI1348
aI1348
aI1348
aI1340
aI1332
aI1328
aI1324
aI1312
aI1296
aI1280
aI1276
aI1268
aI1256
aI1252
aI1252
aI1252
aI1252
aI1252
aI1252
aI1252
aI1252
aI1252
aI1252
aI1252
aI1252
aI1252
aI1252
aI1252
aI1252
aI1252
aI1252
aI1252
aI1252
aI1252
aI1240
aI1236
aI1196
aI1184
aI1160
aI1160
aI1152
aI1136
aI1136
aI1136
aI1136
aI1136
aI1136
aI1136
aI1136
aI1136
aI1096
aI1080
aI1064
aI1040
aI1024
aI1012
aI1008
aI1008
aI1008
aI1008
aI1008
aI1020
aI1020
aI1020
aI1020
aI1020
aI1020
aI1020
aI1020
aI1020
aI1020
aI1020
aI1016
aI1012
aI1012
aI1008
aI1008
aI1008
aI1004
aI1004
aI1000
aI996
aI996
aI996
aI988
aI984
aI980
aI976
aI968
aI952
aI952
aI944
aI944
aI944
aI944
aI944
aI944
aI944
aI944
aI944
aI944
aI944
aI944
aI944
aI936
aI928
aI928
aI928
aI928
aI924
aI924
aI920
aI916
aI916
aI916
aI916
aI916
aI912
aI904
aI904
aI904
aI912
aI916
aI924
aI928
aI928
aI928
aI944
aI956
aI960
aI964
aI984
aI988
aI996
aI996
aI996
aI996
aI996
aI996
aI996
aI996
aI996
aI996
aI996
aI996
aI996
aI1004
aI1020
aI1036
aI1044
aI1048
aI1052
aI1052
aI1060
aI1064
aI1064
aI1068
aI1068
aI1080
aI1088
aI1104
aI1108
aI1112
aI1112
aI1112
aI1112
aI1112
aI1112
aI1112
aI1112
aI1112
aI1120
aI1120
aI1128
aI1136
aI1148
aI1152
aI1152
aI1152
aI1152
aI1152
aI1152
aI1156
aI1160
aI1168
aI1172
aI1176
aI1180
aI1180
aI1180
aI1180
aI1176
aI1168
aI1160
aI1152
aI1152
aI1144
aI1132
aI1132
aI1092
aI1052
aI1052
aI1052
aI1052
aI1052
aI1052
aI1068
aI1104
aI1104
aI1104
aI1108
aI1108
aI1108
aI1100
aI1100
aI1088
aI1084
aI1080
aI1068
aI1068
aI1068
aI1064
aI1052
aI1052
aI1052
aI1052
aI1044
aI1036
aI1024
aI1012
aI1000
aI996
aI992
aI992
aI992
aI992
aI992
aI992
aI988
aI988
aI988
aI988
aI988
aI988
aI988
aI988
aI988
aI988
aI988
aI996
aI996
aI996
aI996
aI996
aI996
aI996
aI996
aI996
aI996
aI996
aI996
aI1020
aI1032
aI1032
aI1032
aI1032
aI1032
aI1032
aI1032
aI1032
aI1032
aI1032
aI1040
aI1044
aI1052
aI1060
aI1064
aI1072
aI1072
aI1072
aI1072
aI1080
aI1080
aI1080
aI1080
aI1080
aI1072
aI1072
aI1072
aI1080
aI1088
aI1092
aI1092
aI1092
aI1092
aI1092
aI1092
aI1092
aI1108
aI1108
aI1108
aI1112
aI1112
aI1112
aI1112
aI1112
aI1112
aI1112
aI1112
aI1112
aI1112
aI1112
aI1112
aI1112
aI1112
aI1112
aI1112
aI1112
aI1112
aI1112
aI1112
aI1112
aI1112
aI1120
aI1128
aI1128
aI1136
aI1136
aI1140
aI1140
aI1140
aI1140
aI1140
aI1140
aI1140
aI1140
aI1140
aI1140
aI1140
aI1140
aI1140
aI1140
aI1140
aI1140
aI1140
aI1140
aI1140
aI1140
aI1140
aI1140
aI1140
aI1140
aI1140
aI1140
aI1140
aI1140
aI1140
aI1140
aI1140
aI1140
aI1140
aI1140
aI1136
aI1128
aI1120
aI1112
aI1096
aI1088
aI1088
aI1088
aI1088
aI1088
aI1088
aI1088
aI1088
aI1088
aI1088
aI1088
aI1088
aI1088
aI1088
aI1088
aI1088
aI1088
aI1088
aI1088
aI1088
aI1088
aI1088
aI1088
aI1088
aI1088
aI1088
aI1088
aI1088
aI1088
aI1088
aI1088
aI1088
aI1088
aI1088
aI1088
aI1088
aI1088
aI1088
aI1088
aI1088
aI1088
aI1088
aI1088
aI1088
aI1088
aI1088
aI1088
aI1088
aI1088
aI1088
aI1088
aI1088
aI1088
aI1088
aI1088
aI1088
aI1088
aI1088
aI1088
aI1088
aI1088
aI1088
aI1088
aI1088
aI1088
aI1088
aI1088
aI1088
aI1088
aI1088
aI1088
aI1088
aI1088
aI1088
aI1088
aI1088
aI1088
aI1088
aI1088
aI1088
aI1088
aI1088
aI1088
aI1088
aI1088
aI1088
aI1088
aI1088
aI1080
aI1080
aI1068
aI1048
aI1036
aI1024
aI1016
aI1016
aI1016
aI1016
aI1016
aI1016
aI1016
aI1016
aI1016
aI1016
aI1016
aI1008
aI1004
aI1000
aI1000
aI992
aI980
aI980
aI980
aI980
aI980
aI980
aI1012
aI1012
aI1012
aI1012
aI1012
aI1012
aI1012
aI1004
aI1000
aI1000
aI1000
aI1000
aI1000
aI1000
aI1000
aI1000
aI1000
aI1000
aI1000
aI1000
aI1000
aI992
aI992
aI992
aI988
aI988
aI988
aI988
aI988
aI988
aI988
aI988
aI988
aI988
aI988
aI980
aI980
aI980
aI976
aI972
aI964
aI956
aI956
aI956
aI956
aI956
aI952
aI944
aI944
aI944
aI944
aI944
aI944
aI944
aI944
aI944
aI944
aI944
aI944
aI944
aI944
aI944
aI944
aI944
aI944
aI944
aI944
aI944
aI944
aI948
aI948
aI952
aI952
aI952
aI972
aI996
aI1004
aI1004
aI1012
aI1012
aI1012
aI1012
aI1012
aI1012
aI1012
aI1012
aI1012
aI1012
aI1028
aI1044
aI1044
aI1052
aI1052
aI1052
aI1060
aI1060
aI1060
aI1060
aI1060
aI1060
aI1060
aI1060
aI1060
aI1060
aI1060
aI1060
aI1060
aI1060
aI1060
aI1060
aI1060
aI1060
aI1060
aI1056
aI1052
aI1052
aI1052
aI1052
aI1052
aI1064
aI1080
aI1080
aI1080
aI1080
aI1100
aI1108
aI1112
aI1112
aI1112
aI1120
aI1120
aI1120
aI1120
aI1120
aI1120
aI1120
aI1120
aI1120
aI1120
aI1120
aI1132
aI1136
aI1144
aI1144
aI1144
aI1144
aI1144
aI1144
aI1144
aI1144
aI1144
aI1144
aI1144
aI1144
aI1144
aI1152
aI1152
aI1152
aI1152
aI1152
aI1152
aI1144
aI1144
aI1144
aI1144
aI1144
aI1144
aI1144
aI1144
aI1144
aI1136
aI1136
aI1136
aI1136
aI1128
aI1128
aI1128
aI1128
aI1128
aI1128
aI1128
aI1128
aI1128
aI1128
aI1128
aI1124
aI1124
aI1120
aI1112
aI1108
aI1104
aI1100
aI1100
aI1100
aI1096
aI1096
aI1096
aI1096
aI1096
aI1096
aI1096
aI1096
aI1096
aI1096
aI1096
aI1096
aI1096
aI1096
aI1096
aI1096
aI1096
aI1112
aI1128
aI1128
aI1128
aI1120
aI1120
aI1120
aI1112
aI1112
aI1112
aI1112
aI1112
aI1112
aI1112
aI1104
aI1096
aI1096
aI1096
aI1096
aI1096
aI1136
aI1136
aI1136
aI1136
aI1136
aI1136
aI1136
aI1136
aI1136
aI1136
aI1136
aI1136
aI1136
aI1136
aI1136
aI1136
aI1136
aI1136
aI1136
aI1136
aI1136
aI1136
aI1136
aI1136
aI1136
aI1124
aI1120
aI1088
aI1064
aI1060
aI1036
aI1028
aI1028
aI1028
aI1028
aI1028
aI1028
aI1028
aI1028
aI1028
aI1028
aI1028
aI1028
aI1020
aI1012
aI996
aI984
aI964
aI964
aI964
aI964
aI964
aI964
aI964
aI964
aI964
aI964
aI964
aI964
aI964
aI964
aI964
aI964
aI964
aI964
aI964
aI964
aI964
aI964
aI964
aI964
aI964
aI964
aI964
aI964
aI964
aI964
aI964
aI956
aI932
aI920
aI920
aI920
aI920
aI920
aI920
aI920
aI920
aI920
aI920
aI920
aI920
aI920
aI920
aI920
aI920
aI920
aI920
aI920
aI920
aI920
aI920
aI920
aI920
aI920
aI920
aI920
aI920
aI920
aI920
aI920
aI920
aI920
aI920
aI948
aI956
aI956
aI956
aI956
aI972
aI972
aI972
aI972
aI972
aI972
aI972
aI972
aI972
aI972
aI972
aI972
aI980
aI984
aI988
aI988
aI1008
aI1020
aI1028
aI1028
aI1028
aI1028
aI1028
aI1028
aI1044
aI1060
aI1064
aI1068
aI1076
aI1092
aI1104
aI1116
aI1116
aI1116
aI1116
aI1116
aI1140
aI1144
aI1152
aI1160
aI1176
aI1180
aI1180
aI1164
aI1152
aI1152
aI1132
aI1128
aI1128
aI1128
aI1128
aI1128
aI1128
aI1128
aI1128
aI1128
aI1128
aI1128
aI1136
aI1168
aI1168
aI1168
aI1176
aI1196
aI1204
aI1204
aI1180
aI1180
aI1176
aI1176
aI1196
aI1212
aI1212
aI1212
aI1212
aI1212
aI1212
aI1212
aI1212
aI1212
aI1228
aI1236
aI1236
aI1244
aI1252
aI1252
aI1244
aI1236
aI1232
aI1228
aI1228
aI1228
aI1228
aI1216
aI1216
aI1216
aI1216
aI1216
aI1224
aI1228
aI1232
aI1232
aI1236
aI1236
aI1240
aI1244
aI1248
aI1252
aI1260
aI1264
aI1264
aI1268
aI1272
aI1276
aI1284
aI1304
aI1312
aI1316
aI1316
aI1316
aI1320
aI1320
aI1328
aI1336
aI1336
aI1336
aI1336
aI1336
aI1336
aI1344
aI1344
aI1344
aI1344
aI1344
aI1344
aI1336
aI1328
aI1328
aI1328
aI1328
aI1328
aI1328
aI1336
aI1340
aI1340
aI1340
aI1340
aI1340
aI1340
aI1340
aI1340
aI1340
aI1340
aI1340
aI1344
aI1344
aI1344
aI1344
aI1344
aI1344
aI1344
aI1344
aI1344
aI1344
aI1344
aI1344
aI1324
aI1324
aI1316
aI1304
aI1296
aI1296
aI1284
aI1272
aI1268
aI1268
aI1268
aI1268
aI1268
aI1272
aI1276
aI1276
aI1276
aI1276
aI1276
aI1276
aI1276
aI1276
aI1276
aI1276
aI1276
aI1276
aI1276
aI1276
aI1276
aI1276
aI1276
aI1276
aI1260
aI1204
aI1196
aI1196
aI1192
aI1176
aI1160
aI1152
aI1152
aI1152
aI1152
aI1152
aI1152
aI1152
aI1152
aI1152
aI1152
aI1152
aI1152
aI1152
aI1152
aI1152
aI1152
aI1148
aI1144
aI1140
aI1120
aI1096
aI1088
aI1080
aI1060
aI1060
aI1052
aI1044
aI1020
aI1004
aI1004
aI1000
aI996
aI984
aI972
aI956
aI952
aI940
aI928
aI924
aI912
aI900
aI900
aI896
aI896
aI892
aI892
aI888
aI888
aI888
aI888
aI920
aI936
aI936
aI936
aI936
aI936
aI936
aI960
aI968
aI968
aI968
aI968
aI968
aI968
aI968
aI968
aI968
aI968
aI968
aI968
aI968
aI968
aI976
aI988
aI996
aI1008
aI1024
aI1028
aI1028
aI1028
aI1028
aI1028
aI1028
aI1028
aI1028
aI1028
aI1028
aI1028
aI1028
aI1040
aI1044
aI1044
aI1044
aI1044
aI1044
aI1044
aI1052
aI1052
aI1052
aI1068
aI1080
aI1092
aI1096
aI1096
aI1096
aI1096
aI1096
aI1100
aI1100
aI1096
aI1096
aI1096
aI1100
aI1100
aI1104
aI1104
aI1108
aI1108
aI1108
aI1108
aI1108
aI1120
aI1120
aI1124
aI1140
aI1176
aI1184
aI1196
aI1220
aI1244
aI1244
aI1244
aI1244
aI1244
aI1244
aI1244
aI1244
aI1244
aI1244
aI1244
aI1244
aI1244
aI1244
aI1244
aI1244
aI1244
aI1240
aI1240
aI1240
aI1240
aI1240
aI1240
aI1240
aI1236
aI1236
aI1236
aI1236
aI1232
aI1228
aI1228
aI1228
aI1228
aI1228
aI1228
aI1228
aI1228
aI1228
aI1228
aI1228
aI1228
aI1228
aI1228
aI1228
aI1232
aI1236
aI1236
aI1236
aI1236
aI1236
aI1236
aI1216
aI1196
aI1188
aI1176
aI1168
aI1160
aI1152
aI1152
aI1152
aI1152
aI1152
aI1144
aI1144
aI1136
aI1124
aI1120
aI1120
aI1120
aI1112
aI1112
aI1108
aI1100
aI1092
aI1088
aI1084
aI1068
aI1052
aI1036
aI1028
aI1020
aI1012
aI1012
aI1000
aI988
aI980
aI980
aI972
aI972
aI972
aI972
aI972
aI972
aI952
aI952
aI948
aI948
aI948
aI948
aI948
aI948
aI948
aI948
aI948
aI948
aI948
aI948
aI948
aI948
aI948
aI948
aI948
aI948
aI948
aI948
aI948
aI948
aI948
aI948
aI948
aI948
aI944
aI944
aI936
aI928
aI928
aI924
aI920
aI920
aI920
aI932
aI936
aI948
aI948
aI948
aI948
aI948
aI948
aI948
aI948
aI948
aI948
aI948
aI948
aI948
aI948
aI948
aI948
aI948
aI948
aI948
aI948
aI948
aI952
aI960
aI960
aI968
aI968
aI968
aI968
aI968
aI968
aI968
aI968
aI968
aI968
aI968
aI968
aI968
aI976
aI1004
aI1032
aI1056
aI1088
aI1112
aI1168
aI1196
aI1212
aI1212
aI1212
aI1212
aI1212
aI1212
aI1208
aI1204
aI1200
aI1192
aI1184
aI1184
aI1184
aI1184
aI1184
aI1196
aI1244
aI1248
aI1248
aI1248
aI1248
aI1248
aI1248
aI1248
aI1248
aI1248
aI1248
aI1248
aI1248
aI1248
aI1248
aI1248
aI1248
aI1248
aI1220
aI1220
aI1220
aI1220
aI1220
aI1216
aI1192
aI1184
aI1184
aI1184
aI1184
aI1184
aI1184
aI1184
aI1184
aI1184
aI1184
aI1184
aI1184
aI1184
aI1184
aI1184
aI1184
aI1184
aI1184
aI1184
aI1184
aI1184
aI1184
aI1176
aI1168
aI1168
aI1168
aI1168
aI1168
aI1168
aI1164
aI1152
aI1140
aI1124
aI1112
aI1108
aI1108
aI1100
aI1096
aI1088
aI1088
aI1088
aI1088
aI1084
aI1084
aI1084
aI1084
aI1084
aI1084
aI1084
aI1084
aI1084
aI1084
aI1084
aI1084
aI1084
aI1084
aI1084
aI1084
aI1084
aI1080
aI1080
aI1080
aI1080
aI1080
aI1080
aI1080
aI1080
aI1080
aI1068
aI1060
aI1048
aI1004
aI1004
aI1004
aI996
aI988
aI980
aI968
aI956
aI952
aI952
aI952
aI960
aI992
aI992
aI992
aI1020
aI1032
aI1032
aI1032
aI1032
aI1032
aI1032
aI1032
aI1040
aI1044
aI1044
aI1048
aI1052
aI1052
aI1052
aI1052
aI1052
aI1052
aI1052
aI1052
aI1052
aI1052
aI1052
aI1052
aI1052
aI1052
aI1052
aI1052
aI1052
aI1052
aI1068
aI1072
aI1072
aI1072
aI1072
aI1072
aI1072
aI1072
aI1072
aI1096
aI1120
aI1128
aI1132
aI1152
aI1164
aI1168
aI1172
aI1176
aI1180
aI1188
aI1192
aI1204
aI1212
aI1216
aI1216
aI1220
aI1220
aI1220
aI1220
aI1220
aI1220
aI1220
aI1220
aI1220
aI1220
aI1220
aI1220
aI1220
aI1236
aI1240
aI1248
aI1256
aI1268
aI1276
aI1276
aI1276
aI1276
aI1264
aI1260
aI1256
aI1256
aI1252
aI1252
aI1252
aI1252
aI1252
aI1252
aI1252
aI1252
aI1252
aI1252
aI1252
aI1252
aI1256
aI1256
aI1256
aI1256
aI1256
aI1256
aI1256
aI1256
aI1256
aI1248
aI1224
aI1204
aI1204
aI1204
aI1200
aI1184
aI1160
aI1144
aI1144
aI1144
aI1144
aI1144
aI1144
aI1144
aI1144
aI1144
aI1144
aI1144
aI1144
aI1144
aI1132
aI1116
aI1104
aI1096
aI1092
aI1088
aI1080
aI1076
aI1072
aI1068
aI1068
aI1064
aI1064
aI1060
aI1052
aI1044
aI1036
aI1036
aI1028
aI1028
aI1024
aI1020
aI1020
aI1020
aI1016
aI1012
aI1004
aI996
aI996
aI996
aI996
aI996
aI996
aI996
aI996
aI996
aI996
aI996
aI996
aI996
aI996
aI996
aI996
aI996
aI996
aI996
aI996
aI996
aI996
aI996
aI996
aI996
aI996
aI996
aI996
aI996
aI996
aI996
aI996
aI996
aI988
aI984
aI980
aI980
aI980
aI980
aI980
aI980
aI980
aI980
aI980
aI980
aI980
aI980
aI980
aI980
aI980
aI980
aI980
aI980
aI980
aI980
aI980
aI980
aI980
aI980
aI980
aI980
aI980
aI980
aI980
aI980
aI980
aI980
aI980
aI980
aI980
aI980
aI980
aI980
aI980
aI980
aI980
aI980
aI980
aI980
aI980
aI980
aI980
aI980
aI980
aI980
aI980
aI980
aI980
aI980
aI980
aI980
aI980
aI980
aI980
aI980
aI980
aI980
aI980
aI980
aI988
aI988
aI988
aI992
aI1004
aI1012
aI1020
aI1044
aI1080
aI1080
aI1080
aI1116
aI1132
aI1136
aI1124
aI1096
aI1092
aI1092
aI1092
aI1092
aI1092
aI1092
aI1092
aI1088
aI1088
aI1088
aI1088
aI1084
aI1072
aI1064
aI1064
aI1064
aI1064
aI1064
aI1064
aI1064
aI1064
aI1064
aI1064
aI1056
aI1056
aI1056
aI1056
aI1056
aI1056
aI1056
aI1056
aI1056
aI1056
aI1056
aI1056
aI1056
aI1056
aI1056
aI1056
aI1056
aI1056
aI1064
aI1096
aI1104
aI1112
aI1128
aI1140
aI1160
aI1180
aI1196
aI1212
aI1212
aI1212
aI1212
aI1216
aI1220
aI1228
aI1228
aI1228
aI1232
aI1236
aI1236
aI1236
aI1236
aI1236
aI1236
aI1236
aI1236
aI1236
aI1236
aI1236
aI1236
aI1232
aI1232
aI1232
aI1220
aI1212
aI1204
aI1196
aI1192
aI1160
aI1156
aI1152
aI1148
aI1136
aI1128
aI1128
aI1128
aI1128
aI1124
aI1120
aI1120
aI1120
aI1104
aI1096
aI1104
aI1104
aI1104
aI1104
aI1096
aI1096
aI1096
aI1096
aI1088
aI1072
aI1072
aI1072
aI1072
aI1080
aI1088
aI1092
aI1092
aI1092
aI1092
aI1092
aI1092
aI1092
aI1076
aI1068
aI1068
aI1068
aI1068
aI1072
aI1072
aI1068
aI1068
aI1068
aI1068
aI1060
aI1060
aI1076
aI1084
aI1084
aI1084
aI1084
aI1084
aI1096
aI1096
aI1096
aI1096
aI1096
aI1092
aI1092
aI1092
aI1092
aI1092
aI1088
aI1088
aI1084
aI1064
aI1060
aI1056
aI1056
aI1044
aI1028
aI1028
aI1028
aI1028
aI1028
aI1028
aI1028
aI1036
aI1064
aI1080
aI1080
aI1088
aI1092
aI1092
aI1100
aI1104
aI1104
aI1104
aI1104
aI1096
aI1096
aI1096
aI1096
aI1096
aI1096
aI1088
aI1080
aI1068
aI1060
aI1044
aI1036
aI1020
aI1012
aI1012
aI1012
aI1012
aI1012
aI1028
aI1044
aI1044
aI1044
aI1040
aI1040
aI1040
aI1036
aI1032
aI1052
aI1052
aI1052
aI1052
aI1052
aI1052
aI1048
aI1048
aI1056
aI1060
aI1064
aI1072
aI1072
aI1072
aI1072
aI1072
aI1072
aI1072
aI1072
a.(lp0
I300
aI600
aI600
aI600
aI600
aI600
aI600
aI600
aI600
aI600
aI600
aI600
aI600
aI600
aI600
aI600
aI600
aI600
aI600
aI600
aI600
aI600
aI600
aI600
aI600
aI600
aI600
aI600
aI600
aI600
aI600
aI600
aI600
aI600
aI600
aI600
aI600
aI600
aI600
aI600
aI600
aI600
aI600
aI600
aI600
aI600
aI600
aI600
aI600
aI600
aI600
aI600
aI600
aI600
aI600
aI600
aI600
aI600
aI600
aI600
aI600
aI600
aI600
aI600
aI600
aI600
aI600
aI600
aI600
aI600
aI600
aI600
aI600
aI600
aI600
aI600
aI600
aI600
aI600
aI600
aI600
aI600
aI600
aI600
aI600
aI600
aI600
aI600
aI600
aI600
aI600
aI600
aI600
aI600
aI600
aI600
aI600
aI600
aI600
aI600
aI600
aI600
aI600
aI600
aI600
aI600
aI600
aI600
aI600
aI600
aI600
aI600
aI600
aI600
aI600
aI600
aI600
aI600
aI600
aI600
aI600
aI600
aI600
aI600
aI600
aI600
aI600
aI600
aI600
aI600
aI600
aI600
aI600
aI600
aI600
aI600
aI600
aI600
aI600
aI600
aI600
aI600
aI600
aI600
aI600
aI600
aI600
aI600
aI600
aI600
aI600
aI600
aI600
aI600
aI600
aI600
aI600
aI600
aI600
aI600
aI600
aI600
aI600
aI600
aI600
aI600
aI600
aI600
aI600
aI600
aI600
aI600
aI600
aI600
aI600
aI600
aI600
aI600
aI600
aI600
aI600
aI600
aI600
aI600
aI600
aI600
aI600
aI600
aI600
aI600
aI600
aI600
aI600
aI600
aI600
aI600
aI600
aI600
aI600
aI600
aI600
aI600
aI600
aI600
aI600
aI600
aI600
aI600
aI600
aI600
aI600
aI600
aI600
aI600
aI600
aI600
aI600
aI600
aI600
aI600
aI600
aI600
aI600
aI600
aI600
aI600
aI600
aI600
aI600
aI600
aI600
aI600
aI600
aI600
aI600
aI600
aI600
aI600
aI600
aI600
aI600
aI600
aI600
aI600
aI600
aI600
aI600
aI600
aI600
aI600
aI600
aI600
aI600
aI600
aI600
aI600
aI600
aI600
aI600
aI600
aI600
aI600
aI600
aI600
aI600
aI600
aI600
aI600
aI600
aI600
aI600
aI600
aI600
aI600
aI600
aI600
aI600
aI600
aI600
aI600
aI600
aI600
aI600
aI600
aI600
aI600
aI600
aI600
aI600
aI600
aI600
aI600
aI600
aI600
aI600
aI600
aI600
aI600
aI600
aI600
aI600
aI600
aI600
aI600
aI600
aI600
aI600
aI600
aI600
aI600
aI600
aI600
aI600
aI600
aI600
aI600
aI600
aI600
aI600
aI600
aI600
aI600
aI600
aI600
aI600
aI600
aI600
aI600
aI600
aI600
aI600
aI600
aI600
aI600
aI600
aI600
aI600
aI600
aI600
aI600
aI600
aI600
aI600
aI600
aI600
aI600
aI600
aI600
aI600
aI600
aI600
aI600
aI600
aI600
aI600
aI600
aI600
aI600
aI600
aI600
aI600
aI600
aI600
aI600
aI600
aI600
aI600
aI600
aI600
aI600
aI600
aI600
aI600
aI600
aI600
aI600
aI600
aI600
aI600
aI600
aI600
aI600
aI600
aI600
aI600
aI600
aI600
aI600
aI600
aI600
aI600
aI600
aI600
aI600
aI600
aI600
aI600
aI600
aI600
aI600
aI600
aI600
aI600
aI600
aI600
aI600
aI600
aI600
aI600
aI600
aI600
aI600
aI600
aI600
aI600
aI600
aI600
aI600
aI600
aI600
aI600
aI600
aI600
aI600
aI600
aI600
aI600
aI600
aI600
aI600
aI600
aI600
aI600
aI600
aI600
aI600
aI600
aI600
aI600
aI600
aI600
aI600
aI600
aI600
aI600
aI600
aI600
aI600
aI600
aI600
aI600
aI600
aI600
aI600
aI600
aI600
aI600
aI600
aI600
aI600
aI600
aI600
aI600
aI600
aI600
aI600
aI600
aI600
aI600
aI600
aI600
aI600
aI600
aI600
aI600
aI600
aI600
aI600
aI600
aI600
aI600
aI600
aI600
aI600
aI600
aI600
aI600
aI600
aI600
aI600
aI600
aI600
aI600
aI600
aI600
aI600
aI600
aI600
aI600
aI600
aI600
aI600
aI600
aI600
aI600
aI600
aI600
aI600
aI600
aI600
aI600
aI600
aI600
aI600
aI600
aI600
aI600
aI600
aI600
aI600
aI600
aI600
aI600
aI600
aI600
aI600
aI600
aI600
aI600
aI600
aI600
aI600
aI600
aI600
aI600
aI600
aI600
aI600
aI600
aI600
aI600
aI600
aI600
aI600
aI600
aI600
aI600
aI600
aI600
aI600
aI600
aI600
aI600
aI600
aI600
aI600
aI600
aI600
aI600
aI600
aI600
aI600
aI600
aI600
aI600
aI600
aI600
aI600
aI600
aI600
aI600
aI600
aI600
aI600
aI600
aI600
aI600
aI600
aI600
aI600
aI600
aI600
aI600
aI600
aI600
aI600
aI600
aI600
aI600
aI600
aI600
aI600
aI600
aI600
aI600
aI600
aI600
aI600
aI600
aI600
aI600
aI600
aI600
aI600
aI600
aI600
aI600
aI600
aI600
aI600
aI600
aI600
aI600
aI600
aI600
aI600
aI600
aI600
aI600
aI600
aI600
aI600
aI600
aI600
aI600
aI600
aI600
aI600
aI600
aI600
aI600
aI600
aI600
aI600
aI600
aI600
aI600
aI600
aI600
aI600
aI600
aI600
aI600
aI600
aI600
aI600
aI600
aI600
aI600
aI600
aI600
aI600
aI600
aI600
aI600
aI600
aI600
aI600
aI600
aI600
aI600
aI600
aI600
aI600
aI600
aI600
aI600
aI600
aI600
aI600
aI600
aI600
aI600
aI600
aI600
aI600
aI600
aI600
aI600
aI600
aI600
aI600
aI600
aI600
aI600
aI600
aI600
aI600
aI600
aI600
aI600
aI600
aI600
aI600
aI600
aI600
aI600
aI600
aI600
aI600
aI600
aI600
aI600
aI600
aI600
aI600
aI600
aI600
aI600
aI600
aI600
aI600
aI600
aI600
aI600
aI600
aI600
aI600
aI600
aI600
aI600
aI600
aI600
aI600
aI600
aI600
aI600
aI600
aI600
aI600
aI600
aI600
aI600
aI600
aI600
aI600
aI600
aI600
aI600
aI600
aI600
aI600
aI600
aI600
aI600
aI600
aI600
aI600
aI600
aI600
aI600
aI600
aI600
aI600
aI600
aI600
aI600
aI600
aI600
aI600
aI600
aI600
aI600
aI600
aI600
aI600
aI600
aI600
aI600
aI600
aI600
aI600
aI600
aI600
aI600
aI600
aI600
aI600
aI600
aI600
aI600
aI600
aI600
aI600
aI600
aI600
aI600
aI600
aI600
aI600
aI600
aI600
aI600
aI600
aI600
aI600
aI600
aI600
aI600
aI600
aI600
aI600
aI600
aI600
aI600
aI600
aI600
aI600
aI600
aI600
aI600
aI600
aI600
aI600
aI600
aI600
aI600
aI600
aI600
aI600
aI600
aI600
aI600
aI600
aI600
aI600
aI600
aI600
aI600
aI600
aI600
aI600
aI600
aI600
aI600
aI600
aI600
aI600
aI600
aI600
aI600
aI600
aI600
aI600
aI600
aI600
aI600
aI600
aI600
aI600
aI600
aI600
aI600
aI600
aI600
aI600
aI600
aI600
aI600
aI600
aI600
aI600
aI600
aI600
aI600
aI600
aI600
aI600
aI600
aI600
aI600
aI600
aI600
aI600
aI600
aI600
aI600
aI600
aI600
aI600
aI600
aI600
aI600
aI600
aI600
aI600
aI600
aI600
aI600
aI600
aI600
aI600
aI600
aI600
aI600
aI600
aI600
aI600
aI600
aI600
aI600
aI600
aI600
aI600
aI600
aI600
aI600
aI600
aI600
aI600
aI600
aI600
aI600
aI600
aI600
aI600
aI600
aI600
aI600
aI600
aI600
aI600
aI600
aI600
aI600
aI600
aI600
aI600
aI600
aI600
aI600
aI600
aI600
aI600
aI600
aI600
aI600
aI600
aI600
aI600
aI600
aI600
aI600
aI600
aI600
aI600
aI600
aI600
aI600
aI600
aI600
aI600
aI600
aI600
aI600
aI600
aI600
aI600
aI600
aI600
aI600
aI600
aI600
aI600
aI600
aI600
aI600
aI600
aI600
aI600
aI600
aI600
aI600
aI600
aI600
aI600
aI600
aI600
aI600
aI600
aI600
aI600
aI600
aI600
aI600
aI600
aI600
aI600
aI600
aI600
aI600
aI600
aI600
aI600
aI600
aI600
aI600
aI600
aI600
aI600
aI600
aI600
aI600
aI600
aI600
aI600
aI600
aI600
aI600
aI600
aI600
aI600
aI600
aI600
aI600
aI600
aI600
aI600
aI600
aI600
aI600
aI600
aI600
aI600
aI600
aI600
aI600
aI600
aI600
aI600
aI600
aI600
aI600
aI600
aI600
aI600
aI600
aI600
aI600
aI600
aI600
aI600
aI600
aI600
aI600
aI600
aI600
aI600
aI600
aI600
aI600
aI600
aI600
aI600
aI600
aI600
aI600
aI600
aI600
aI600
aI600
aI600
aI600
aI600
aI600
aI600
aI600
aI600
aI600
aI600
aI600
aI600
aI600
aI600
aI600
aI600
aI600
aI600
aI600
aI600
aI600
aI600
aI600
aI600
aI600
aI600
aI600
aI600
aI600
aI600
aI600
aI600
aI600
aI600
aI600
aI600
aI600
aI600
aI600
aI600
aI600
aI600
aI600
aI600
aI600
aI600
aI600
aI600
aI600
aI600
aI600
aI600
aI600
aI600
aI600
aI600
aI600
aI600
aI600
aI600
aI600
aI600
aI600
aI600
aI600
aI600
aI600
aI600
aI600
aI600
aI600
aI600
aI600
aI600
aI600
aI600
aI600
aI600
aI600
aI600
aI600
aI600
aI600
aI600
aI600
aI600
aI600
aI600
aI600
aI600
aI600
aI600
aI600
aI600
aI600
aI600
aI600
aI600
aI600
aI600
aI600
aI600
aI600
aI600
aI600
aI600
aI600
aI600
aI600
aI600
aI600
aI600
aI600
aI600
aI600
aI600
aI600
aI600
aI600
aI600
aI600
aI600
aI600
aI600
aI600
aI600
aI600
aI600
aI600
aI600
aI600
aI600
aI600
aI600
aI600
aI600
aI600
aI600
aI600
aI600
aI600
aI600
aI600
aI600
aI600
aI600
aI600
aI600
aI600
aI600
aI600
aI600
aI600
aI600
aI600
aI600
aI600
aI600
aI600
aI600
aI600
aI600
aI600
aI600
aI600
aI600
aI600
aI600
aI600
aI600
aI600
aI600
aI600
aI600
aI600
aI600
aI600
aI600
aI600
aI600
aI600
aI600
aI600
aI600
aI600
aI600
aI600
aI600
aI600
aI600
aI600
aI600
aI600
aI600
aI600
aI600
aI600
aI600
aI600
aI600
aI600
aI600
aI600
aI600
aI600
aI600
aI600
aI600
aI600
aI600
aI600
aI600
aI600
aI600
aI600
aI600
aI600
aI600
aI600
aI600
aI600
aI600
aI600
aI600
aI600
aI600
aI600
aI600
aI600
aI600
aI600
aI600
aI600
aI600
aI600
aI600
aI600
aI600
aI600
aI600
aI600
aI600
aI600
aI600
aI600
aI600
aI600
aI600
aI600
aI600
aI600
aI600
aI600
aI600
aI600
aI600
aI600
aI600
aI600
aI600
aI600
aI600
aI600
aI600
aI600
aI600
aI600
aI600
aI600
aI600
aI600
aI600
aI600
aI600
aI600
aI600
aI600
aI600
aI600
aI600
aI600
aI600
aI600
aI600
aI600
aI600
aI600
aI600
aI600
aI600
aI600
aI600
aI600
aI600
aI600
aI600
aI600
aI600
aI600
aI600
aI600
aI600
aI600
aI600
aI600
aI600
aI600
aI600
aI600
aI600
aI600
aI600
aI600
aI600
aI600
aI600
aI600
aI600
aI600
aI600
aI600
aI600
aI600
aI600
aI600
aI600
aI600
aI600
aI600
aI600
aI600
aI600
aI600
aI600
aI600
aI600
aI600
aI600
aI600
aI600
aI600
aI600
aI600
aI600
aI600
aI600
aI600
aI600
aI600
aI600
aI600
aI600
aI600
aI600
aI600
aI600
aI600
aI600
aI600
aI600
aI600
aI600
aI600
aI600
aI600
aI600
aI600
aI600
aI600
aI600
aI600
aI600
aI600
aI600
aI600
aI600
aI600
aI600
aI600
aI600
aI600
aI600
aI600
aI600
aI600
aI600
aI600
aI600
aI600
aI600
aI600
aI600
aI600
aI600
aI600
aI600
aI600
aI600
aI600
aI600
aI600
aI600
aI600
aI600
aI600
aI600
aI600
aI600
aI600
aI600
aI600
aI600
aI600
aI600
aI600
aI600
aI600
aI600
aI600
aI600
aI600
aI600
aI600
aI600
aI600
aI600
aI600
aI600
aI600
aI600
aI600
aI600
aI600
aI600
aI600
aI600
aI600
aI600
aI600
aI600
aI600
aI600
aI600
aI600
aI600
aI600
aI600
aI600
aI600
aI600
aI600
aI600
aI600
aI600
aI600
aI600
aI600
aI600
aI600
aI600
aI600
aI600
aI600
aI600
aI600
aI600
aI600
aI600
aI600
aI600
aI600
aI600
aI600
aI600
aI600
aI600
aI600
aI600
aI600
aI600
aI600
aI600
aI600
aI600
aI600
aI600
aI600
aI600
aI600
aI600
aI600
aI600
aI600
aI600
aI600
aI600
aI600
aI600
aI600
aI600
aI600
aI600
aI600
aI600
aI600
aI600
aI600
aI600
aI600
aI600
aI600
aI600
aI600
aI600
aI600
aI600
aI600
aI600
aI600
aI600
aI600
aI600
aI600
aI600
aI600
aI600
aI600
aI600
aI600
aI600
aI600
aI600
aI600
aI600
aI600
aI600
aI600
aI600
aI600
aI600
aI600
aI600
aI600
aI600
aI600
aI600
aI600
aI600
aI600
aI600
aI600
aI600
aI600
aI600
aI600
aI600
aI600
aI600
aI600
aI600
aI600
aI600
aI600
aI600
aI600
aI600
aI600
aI600
aI600
aI600
aI600
aI600
aI600
aI600
aI600
aI600
aI600
aI600
aI600
aI600
aI600
aI600
aI600
aI600
aI600
aI600
aI600
aI600
aI600
aI600
aI600
aI600
aI600
aI600
aI600
aI600
aI600
aI600
aI600
aI600
aI600
aI600
aI600
aI600
aI600
aI600
aI600
aI600
aI600
aI600
aI600
aI600
aI600
aI600
aI600
aI600
aI600
aI600
aI600
aI600
aI600
aI600
aI600
aI600
aI600
aI600
aI600
aI600
aI600
aI600
aI600
aI600
aI600
aI600
aI600
aI600
aI600
aI600
aI600
aI600
aI600
aI600
aI600
aI600
aI600
aI600
aI600
aI600
aI600
aI600
aI600
aI600
aI600
aI600
aI600
aI600
aI600
aI600
aI600
aI600
aI600
aI600
aI600
aI600
aI600
aI600
aI600
aI600
aI600
aI600
aI600
aI600
aI600
aI600
aI600
aI600
aI600
aI600
aI600
aI600
aI600
aI600
aI600
aI600
aI600
aI600
aI600
aI600
aI600
aI600
aI600
aI600
aI600
aI600
aI600
aI600
aI600
aI600
aI600
aI600
aI600
aI600
aI600
aI600
aI600
aI600
aI600
aI600
aI600
aI600
aI600
aI600
aI600
aI600
aI600
aI600
aI600
aI600
aI600
aI600
aI600
aI600
aI600
aI600
aI600
aI600
aI600
aI600
aI600
aI600
aI600
aI600
aI600
aI600
aI600
aI600
aI600
aI600
aI600
aI600
aI600
aI600
aI600
aI600
aI600
aI600
aI600
aI600
aI600
aI600
aI600
aI600
aI600
aI600
aI600
aI600
aI600
aI600
aI600
aI600
aI600
aI600
aI600
aI600
aI600
aI600
aI600
aI600
aI600
aI600
aI600
aI600
aI600
aI600
aI600
aI600
aI600
aI600
aI600
aI600
aI600
aI600
aI600
aI600
aI600
aI600
aI600
aI600
aI600
aI600
aI600
aI600
aI600
aI600
aI600
aI600
aI600
aI600
aI600
aI600
aI600
aI600
aI600
aI600
aI600
aI600
aI600
aI600
aI600
aI600
aI600
aI600
aI600
aI600
aI600
aI600
aI600
aI600
aI600
aI600
aI600
aI600
aI600
aI600
aI600
aI600
aI600
aI600
aI600
aI600
aI600
aI600
aI600
aI600
aI600
aI600
aI600
aI600
aI600
aI600
aI600
aI600
aI600
aI600
aI600
aI600
aI600
aI600
aI600
aI600
aI600
aI600
aI600
aI600
aI600
aI600
aI600
aI600
aI600
aI600
aI600
aI600
aI600
aI600
aI600
aI600
aI600
aI600
aI600
aI600
aI600
aI600
aI600
aI600
aI600
aI600
aI600
aI600
aI600
aI600
aI600
aI600
aI600
aI600
aI600
aI600
aI600
aI600
aI600
aI600
aI600
aI600
aI600
aI600
aI600
aI600
aI600
aI600
aI600
aI600
aI600
aI600
aI600
aI600
aI600
aI600
aI600
aI600
aI600
aI600
aI600
aI600
aI600
aI600
aI600
aI600
aI600
aI600
aI600
aI600
aI600
aI600
aI600
aI600
aI600
aI600
aI600
aI600
aI600
aI600
aI600
aI600
aI600
aI600
aI600
aI600
aI600
aI600
aI600
aI600
aI600
aI600
aI600
aI600
aI600
aI600
aI600
aI600
aI600
aI600
aI600
aI600
aI600
aI600
aI600
aI600
aI600
aI600
aI600
aI600
aI600
aI600
aI600
aI600
aI600
aI600
aI600
aI600
aI600
aI600
aI600
aI600
aI600
aI600
aI600
aI600
aI600
aI600
aI600
aI600
aI600
aI600
aI600
aI600
aI600
aI600
aI600
aI600
aI600
aI600
aI600
aI600
aI600
aI600
aI600
aI600
aI600
aI600
aI600
aI600
aI600
aI600
aI600
aI600
aI600
aI600
aI600
aI600
aI600
aI600
aI600
aI600
aI600
aI600
aI600
aI600
aI600
aI600
aI600
aI600
aI600
aI600
aI600
aI600
aI600
aI600
aI600
aI600
aI600
aI600
aI600
aI600
aI600
aI600
aI600
aI600
aI600
aI600
aI600
aI600
aI600
aI600
aI600
aI600
aI600
aI600
aI600
aI600
aI600
aI600
aI600
aI600
aI600
aI600
aI600
aI600
aI600
aI600
aI600
aI600
aI600
aI600
aI600
aI600
aI600
aI600
aI600
aI600
aI600
aI600
aI600
aI600
aI600
aI600
aI600
aI600
aI600
aI600
aI600
aI600
aI600
aI600
aI600
aI600
aI600
aI600
aI600
aI600
aI600
aI600
aI600
aI600
aI600
aI600
aI600
aI600
aI600
aI600
aI600
aI600
aI600
aI600
aI600
aI600
aI600
aI600
aI600
aI600
aI600
aI600
aI600
aI600
aI600
aI600
aI600
aI600
aI600
aI600
aI600
aI600
aI600
aI600
aI600
aI600
aI600
aI600
aI600
aI600
aI600
aI600
aI600
aI600
aI600
aI600
aI600
aI600
aI600
aI600
aI600
aI600
aI600
aI600
aI600
aI600
aI600
aI600
aI600
aI600
aI600
aI600
aI600
aI600
aI600
aI600
aI600
aI600
aI600
aI600
aI600
aI600
aI600
aI600
aI600
aI600
aI600
aI600
aI600
aI600
aI600
aI600
aI600
aI600
aI600
aI600
aI600
aI600
aI600
aI600
aI600
aI600
aI600
aI600
aI600
aI600
aI600
aI600
aI600
aI600
aI600
aI600
aI600
aI600
aI600
aI600
aI600
aI600
aI600
aI600
aI600
aI600
aI600
aI600
aI600
aI600
aI600
aI600
aI600
aI600
aI600
aI600
aI600
aI600
aI600
aI600
aI600
aI600
aI600
aI600
aI600
aI600
aI600
aI600
aI600
aI600
aI600
aI600
aI600
aI600
aI600
aI600
aI600
aI600
aI600
aI600
aI600
aI600
aI600
aI600
aI600
aI600
aI600
aI600
aI600
aI600
aI600
aI600
aI600
aI600
aI600
aI600
aI600
aI600
aI600
aI600
aI600
aI600
aI600
aI600
aI600
aI600
aI600
aI600
aI600
aI600
aI600
aI600
aI600
aI600
aI600
aI600
aI600
aI600
aI600
aI600
aI600
aI600
aI600
aI600
aI600
aI600
aI600
aI600
aI600
aI600
aI600
aI600
aI600
aI600
aI600
aI600
aI600
aI600
aI600
aI600
aI600
aI600
aI600
aI600
aI600
aI600
aI600
aI600
aI600
aI600
aI600
aI600
aI600
aI600
aI600
aI600
aI600
aI600
aI600
aI600
aI600
aI600
aI600
aI600
aI600
aI600
aI600
aI600
aI600
aI600
aI600
aI600
aI600
aI600
aI600
aI600
aI600
aI600
aI600
aI600
aI600
aI600
aI600
aI600
aI600
aI600
aI600
aI600
aI600
aI600
aI600
aI600
aI600
aI600
aI600
aI600
aI600
aI600
aI600
aI600
aI600
aI600
aI600
aI600
aI600
aI600
aI600
aI600
aI600
aI600
aI600
aI600
aI600
aI600
aI600
aI600
aI600
aI600
aI600
aI600
aI600
aI600
aI600
aI600
aI600
aI600
aI600
aI600
aI600
aI600
aI600
aI600
aI600
aI600
aI600
aI600
aI600
aI600
aI600
aI600
aI600
aI600
aI600
aI600
aI600
aI600
aI600
aI600
aI600
aI600
aI600
aI600
aI600
aI600
aI600
aI600
aI600
aI600
aI600
aI600
aI600
aI600
aI600
aI600
aI600
aI600
aI600
aI600
aI600
aI600
aI600
aI600
aI600
aI600
aI600
aI600
aI600
aI600
aI600
aI600
aI600
aI600
aI600
aI600
aI600
aI600
aI600
aI600
aI600
aI600
aI600
aI600
aI600
aI600
aI600
aI600
aI600
aI600
aI600
aI600
aI600
aI600
aI600
aI600
aI600
aI600
aI600
aI600
aI600
aI600
aI600
aI600
aI600
aI600
aI600
aI600
aI600
aI600
aI600
aI600
aI600
aI600
aI600
aI600
aI600
aI600
aI600
aI600
aI600
aI600
aI600
aI600
aI600
aI600
aI600
aI600
aI600
aI600
aI600
aI600
aI600
aI600
aI600
aI600
aI600
aI600
aI600
aI600
aI600
aI600
aI600
aI600
aI600
aI600
aI600
aI600
aI600
aI600
aI600
aI600
aI600
aI600
aI600
aI600
aI600
aI600
aI600
aI600
aI600
aI600
aI600
aI600
aI600
aI600
aI600
aI600
aI600
aI600
aI600
aI600
aI600
aI600
aI600
aI600
aI600
aI600
aI600
aI600
aI600
aI600
aI600
aI600
aI600
aI600
aI600
aI600
aI600
aI600
aI600
aI600
aI600
aI600
aI600
aI600
aI600
aI600
aI600
aI600
aI600
aI600
aI600
aI600
aI600
aI600
aI600
aI600
aI600
aI600
aI600
aI600
aI600
aI600
aI600
aI600
aI600
aI600
aI600
aI600
aI600
aI600
aI600
aI600
aI600
aI600
aI600
aI600
aI600
aI600
aI600
aI600
aI600
aI600
aI600
aI600
aI600
aI600
aI600
aI600
aI600
aI600
aI600
aI600
aI600
aI600
aI600
aI600
aI600
aI600
aI600
aI600
aI600
aI600
aI600
aI600
aI600
aI600
aI600
aI600
aI600
aI600
aI600
aI600
aI600
aI600
aI600
aI600
aI600
aI600
aI600
aI600
aI600
aI600
aI600
aI600
aI600
aI600
aI600
aI600
aI600
aI600
aI600
aI600
aI600
aI600
aI600
aI600
aI600
aI600
aI600
aI600
aI600
aI600
aI600
aI600
aI600
aI600
aI600
aI600
aI600
aI600
aI600
aI600
aI600
aI600
aI600
aI600
aI600
aI600
aI600
aI600
aI600
aI600
aI600
aI600
aI600
aI600
aI600
aI600
aI600
aI600
aI600
aI600
aI600
aI600
aI600
aI600
aI600
aI600
aI600
aI600
aI600
aI600
aI600
aI600
aI600
aI600
aI600
aI600
aI600
aI600
aI600
aI600
aI600
aI600
aI600
aI600
aI600
aI600
aI600
aI600
aI600
aI600
aI600
aI600
aI600
aI600
aI600
aI600
aI600
aI600
aI600
aI600
aI600
aI600
aI600
aI600
aI600
aI600
aI600
aI600
aI600
aI600
aI600
aI600
aI600
aI600
aI600
aI600
aI600
aI600
aI600
aI600
aI600
aI600
aI600
aI600
aI600
aI600
aI600
aI600
aI600
aI600
aI600
aI600
aI600
aI600
aI600
aI600
aI600
aI600
aI600
aI600
aI600
aI600
aI600
aI600
aI600
aI600
aI600
aI600
aI600
aI600
aI600
aI600
aI600
aI600
aI600
aI600
aI600
aI600
aI600
aI600
aI600
aI600
aI600
aI600
aI600
aI600
aI600
aI600
aI600
aI600
aI600
aI600
aI600
aI600
aI600
aI600
aI600
aI600
aI600
aI600
aI600
aI600
aI600
aI600
aI600
aI600
aI600
aI600
aI600
aI600
aI600
aI600
aI600
aI600
aI600
aI600
aI600
aI600
aI600
aI600
aI600
aI600
aI600
aI600
aI600
aI600
aI600
aI600
aI600
aI600
aI600
aI600
aI600
aI600
aI600
aI600
aI600
aI600
aI600
aI600
aI600
aI600
aI600
aI600
aI600
aI600
aI600
aI600
aI600
aI600
aI600
aI600
aI600
aI600
aI600
aI600
aI600
aI600
aI600
aI600
aI600
aI600
aI600
aI600
aI600
aI600
aI600
aI600
aI600
aI600
aI600
aI600
aI600
aI600
aI600
aI600
aI600
aI600
aI600
aI600
aI600
aI600
aI600
aI600
aI600
aI600
aI600
aI600
aI600
aI600
aI600
aI600
aI600
aI600
aI600
aI600
aI600
aI600
aI600
aI600
aI600
aI600
aI600
aI600
aI600
aI600
aI600
aI600
aI600
aI600
aI600
aI600
aI600
aI600
aI600
aI600
aI600
aI600
aI600
aI600
aI600
aI600
aI600
aI600
aI600
aI600
aI600
aI600
aI600
aI600
aI600
aI600
aI600
aI600
aI600
aI600
aI600
aI600
aI600
aI600
aI600
aI600
aI600
aI600
aI600
aI600
aI600
aI600
aI600
aI600
aI600
aI600
aI600
aI600
aI600
aI600
aI600
aI600
aI600
aI600
aI600
aI600
aI600
aI600
aI600
aI600
aI600
aI600
aI600
aI600
aI600
aI600
aI600
aI600
aI600
aI600
aI600
aI600
aI600
aI600
aI600
aI600
aI600
aI600
aI600
aI600
aI600
aI600
aI600
aI600
aI600
aI600
aI600
aI600
aI600
aI600
aI600
aI600
aI600
aI600
aI600
aI600
aI600
aI600
aI600
aI600
aI600
aI600
aI600
aI600
aI600
aI600
aI600
aI600
aI600
aI600
aI600
aI600
aI600
aI600
aI600
aI600
aI600
aI600
aI600
aI600
aI600
aI600
aI600
aI600
aI600
aI600
aI600
aI600
aI600
aI600
aI600
aI600
aI600
aI600
aI600
aI600
aI600
aI600
aI600
aI600
aI600
aI600
aI600
aI600
aI600
aI600
aI600
aI600
aI600
aI600
aI600
aI600
aI600
aI600
aI600
aI600
aI600
aI600
aI600
aI600
aI600
aI600
aI600
aI600
aI600
aI600
aI600
aI600
aI600
aI600
aI600
aI600
aI600
aI600
aI600
aI600
aI600
aI600
aI600
aI600
aI600
aI600
aI600
aI600
aI600
aI600
aI600
aI600
aI600
aI600
aI600
aI600
aI600
aI600
aI600
aI600
aI600
aI600
aI600
aI600
aI600
aI600
aI600
aI600
aI600
aI600
aI600
aI600
aI600
aI600
aI600
aI600
aI600
aI600
aI600
aI600
aI600
aI600
aI600
aI600
aI600
aI600
aI600
aI600
aI600
aI600
aI600
aI600
aI600
aI600
aI600
aI600
aI600
aI600
aI600
aI600
aI600
aI600
aI600
aI600
aI600
aI600
aI600
aI600
aI600
aI600
aI600
aI600
aI600
aI600
aI600
aI600
aI600
aI600
aI600
aI600
aI600
aI600
aI600
aI600
aI600
aI600
aI600
aI600
aI600
aI600
aI600
aI600
aI600
aI600
aI600
aI600
aI600
aI600
aI600
aI600
aI600
aI600
aI600
aI600
aI600
aI600
aI600
aI600
aI600
aI600
aI600
aI600
aI600
aI600
aI600
aI600
aI600
aI600
aI600
aI600
aI600
aI600
aI600
aI600
aI600
aI600
aI600
aI600
aI600
aI600
aI600
aI600
aI600
aI600
aI600
aI600
aI600
aI600
aI600
aI600
aI600
aI600
aI600
aI600
aI600
aI600
aI600
aI600
aI600
aI600
aI600
aI600
aI600
aI600
aI600
aI600
aI600
aI600
aI600
aI600
aI600
aI600
aI600
aI600
aI600
aI600
aI600
aI600
aI600
aI600
aI600
aI600
aI600
aI600
aI600
aI600
aI600
aI600
aI600
aI600
aI600
aI600
aI600
aI600
aI600
aI600
aI600
aI600
aI600
aI600
aI600
aI600
aI600
aI600
aI600
aI600
aI600
aI600
aI600
aI600
aI600
aI600
aI600
aI600
aI600
aI600
aI600
aI600
aI600
aI600
aI600
aI600
aI600
aI600
aI600
aI600
aI600
aI600
aI600
aI600
aI600
aI600
aI600
aI600
aI600
aI600
aI600
aI600
aI600
aI600
aI600
aI600
aI600
aI600
aI600
aI600
aI600
aI600
aI600
aI600
aI600
aI600
aI600
aI600
aI600
aI600
aI600
aI600
aI600
aI600
aI600
aI600
aI600
aI600
aI600
aI600
aI600
aI600
aI600
aI600
aI600
aI600
aI600
aI600
aI600
aI600
aI600
aI600
aI600
aI600
aI600
aI600
aI600
aI600
aI600
aI600
aI600
aI600
aI600
aI600
aI600
aI600
aI600
aI600
aI600
aI600
aI600
aI600
aI600
aI600
aI600
aI600
aI600
aI600
aI600
aI600
aI600
aI600
aI600
aI600
aI600
aI600
aI600
aI600
aI600
aI600
aI600
aI600
aI600
aI600
aI600
aI600
aI600
aI600
aI600
aI600
aI600
aI600
aI600
aI600
aI600
aI600
aI600
aI600
aI600
aI600
aI600
aI600
aI600
aI600
aI600
aI600
aI600
aI600
aI600
aI600
aI600
aI600
aI600
aI600
aI600
aI600
aI600
aI600
aI600
aI600
aI600
aI600
aI600
aI600
aI600
aI600
aI600
aI600
aI600
aI600
aI600
aI600
aI600
aI600
aI600
aI600
aI600
aI600
aI600
aI600
aI600
aI600
aI600
aI600
aI600
aI600
aI600
aI600
aI600
aI600
aI600
aI600
aI600
aI600
aI600
aI600
aI600
aI600
aI600
aI600
aI600
aI600
aI600
aI600
aI600
aI600
aI600
aI600
aI600
aI600
aI600
aI600
aI600
aI600
aI600
aI600
aI600
aI600
aI600
aI600
aI600
aI600
aI600
aI600
aI600
aI600
aI600
aI600
aI600
aI600
aI600
aI600
aI600
aI600
aI600
aI600
aI600
aI600
aI600
aI600
aI600
aI600
aI600
aI600
aI600
aI600
aI600
aI600
aI600
aI600
aI600
aI600
aI600
aI600
aI600
aI600
aI600
aI600
aI600
aI600
aI600
aI600
aI600
aI600
aI600
aI600
aI600
aI600
aI600
aI600
aI600
aI600
aI600
aI600
aI600
aI600
aI600
aI600
aI600
aI600
aI600
aI600
aI600
aI600
aI600
aI600
aI600
aI600
aI600
aI600
aI600
aI600
aI600
aI600
aI600
aI600
aI600
aI600
aI600
aI600
aI600
aI600
aI600
aI600
aI600
aI600
aI600
aI600
aI600
aI600
aI600
aI600
aI600
aI600
aI600
aI600
aI600
aI600
aI600
aI600
aI600
aI600
aI600
aI600
aI600
aI600
aI600
aI600
aI600
aI600
aI600
aI600
aI600
aI600
aI600
aI600
aI600
aI600
aI600
aI600
aI600
aI600
aI600
aI600
aI600
aI600
aI600
aI600
aI600
aI600
aI600
aI600
aI600
aI600
aI600
aI600
aI600
aI600
aI600
aI600
aI600
aI600
aI600
aI600
aI600
aI600
aI600
aI600
aI600
aI600
aI600
aI600
aI600
aI600
aI600
aI600
aI600
aI600
aI600
aI600
aI600
aI600
aI600
aI600
aI600
aI600
aI600
aI600
aI600
aI600
aI600
aI600
aI600
aI600
aI600
aI600
aI600
aI600
aI600
aI600
aI600
aI600
aI600
aI600
aI600
aI600
aI600
aI600
aI600
aI600
aI600
aI600
aI600
aI600
aI600
aI600
aI600
aI600
aI600
aI600
aI600
aI600
aI600
aI600
aI600
aI600
aI600
aI600
aI600
aI600
aI600
aI600
aI600
aI600
aI600
aI600
aI600
aI600
aI600
aI600
aI600
aI600
aI600
aI600
aI600
aI600
aI600
aI600
aI600
aI600
aI600
aI600
aI600
aI600
aI600
aI600
aI600
aI600
aI600
aI600
aI600
aI600
aI600
aI600
aI600
aI600
aI600
aI600
aI600
aI600
aI600
aI600
aI600
aI600
aI600
aI600
aI600
aI600
aI600
aI600
aI600
aI600
aI600
aI600
aI600
aI600
aI600
aI600
aI600
aI600
aI600
aI600
aI600
aI600
aI600
aI600
aI600
aI600
aI600
aI600
aI600
aI600
aI600
aI600
aI600
aI600
aI600
aI600
aI600
aI600
aI600
aI600
aI600
aI600
aI600
aI600
aI600
aI600
aI600
aI600
aI600
aI600
aI600
aI600
aI600
aI600
aI600
aI600
aI600
aI600
aI600
aI600
aI600
aI600
aI600
aI600
aI600
aI600
aI600
aI600
aI600
aI600
aI600
aI600
aI600
aI600
aI600
aI600
aI600
aI600
aI600
aI600
aI600
aI600
aI600
aI600
aI600
aI600
aI600
aI600
aI600
aI600
aI600
aI600
aI600
aI600
aI600
aI600
aI600
aI600
aI600
aI600
aI600
aI600
aI600
aI600
aI600
aI600
aI600
aI600
aI600
aI600
aI600
aI600
aI600
aI600
aI600
aI600
aI600
aI600
aI600
aI600
aI600
aI600
aI600
aI600
aI600
aI600
aI600
aI600
aI600
aI600
aI600
aI600
aI600
aI600
aI600
aI600
aI600
aI600
aI600
aI600
aI600
aI600
aI600
aI600
aI600
aI600
aI600
aI600
aI600
aI600
aI600
aI600
aI600
aI600
aI600
aI600
aI600
aI600
aI600
aI600
aI600
aI600
aI600
aI600
aI600
aI600
aI600
aI600
aI600
aI600
aI600
aI600
aI600
aI600
aI600
aI600
aI600
aI600
aI600
aI600
aI600
aI600
aI600
aI600
aI600
aI600
aI600
aI600
aI600
aI600
aI600
aI600
aI600
aI600
aI600
aI600
aI600
a.