(lp0
I3811
aI3812
aI3813
aI3814
aI3815
aI3816
aI3817
aI3818
aI3819
aI3820
aI3821
aI3822
aI3823
aI3824
aI3825
aI3826
aI3827
aI3828
aI3829
aI3830
aI3831
aI3832
aI3833
aI3834
aI3835
aI3836
aI3837
aI3838
aI3839
aI3840
aI3841
aI3842
aI3843
aI3844
aI3845
aI3846
aI3847
aI3848
aI3849
aI3850
aI3855
aI3856
aI3857
aI3858
aI3859
aI3860
aI4006
aI4007
aI4008
aI4009
aI4010
aI4011
aI4012
aI4013
aI4014
aI4015
aI4016
aI4017
aI4299
aI4300
aI4301
aI4302
aI4303
aI4304
aI4305
aI4306
aI4307
aI4308
aI4309
aI4310
aI4311
aI4312
aI4313
aI4314
aI4315
aI4316
aI4317
aI4318
aI4331
aI4332
aI4333
aI4334
aI4335
aI4336
aI4337
aI4338
aI4339
aI4340
aI4341
aI4342
aI4343
aI4344
aI4345
aI4346
aI4347
aI4348
aI4349
aI4350
aI4351
aI4352
aI4353
aI4354
aI4355
aI4356
aI4357
aI4358
aI4359
aI4360
aI4361
aI4362
aI4363
aI4364
aI4365
aI4366
aI4367
aI4368
aI4369
aI4370
aI4371
aI4372
aI4373
aI4374
aI4375
aI4376
aI4377
aI4378
aI4379
aI4380
aI4381
aI4382
aI4383
aI4384
aI4385
aI4386
aI4387
aI4392
aI4393
aI4394
aI4395
aI4396
aI4397
aI4398
aI4399
aI4400
aI4401
aI4402
aI4403
aI4404
aI4405
aI4406
aI4407
aI4408
aI4409
aI4410
aI4411
aI4412
aI4413
aI4414
aI4415
aI4416
aI4417
aI4418
aI4419
aI4420
aI4421
aI4422
aI4423
aI4424
aI4425
aI4426
aI4427
aI4428
aI4429
aI4430
aI4431
aI4432
aI4433
aI4434
aI4435
aI4436
aI4437
aI4438
aI4439
aI4440
aI4458
aI4459
aI4460
aI4461
aI4462
aI4463
aI4464
aI4465
aI4466
aI4467
aI4468
aI4469
aI4470
aI4471
aI4472
aI4473
aI4474
aI4475
aI4476
aI4477
aI4478
aI4479
aI4480
aI4481
aI4482
aI4483
aI4484
aI4485
aI4486
aI4487
aI4488
aI4489
aI4490
aI4491
aI4492
aI4500
aI4501
aI4502
aI4503
aI4504
aI4505
aI4506
aI4507
aI4508
aI4509
aI4510
aI4511
aI4512
aI4513
aI4514
aI4515
aI4516
aI4517
aI4518
aI4519
aI4520
aI4521
aI4522
aI4529
aI4530
aI4531
aI4532
aI4533
aI4534
aI4535
aI4536
aI4537
aI4538
aI4539
aI4540
aI4541
aI4542
aI4552
aI4553
aI4554
aI4555
aI4556
aI4557
aI4558
aI4559
aI4560
aI4573
aI4574
aI4575
aI4576
aI4577
aI4578
aI4579
aI4580
aI4581
aI4582
aI4583
aI4584
aI4585
aI4586
aI4587
aI4588
aI4589
aI4590
aI4591
aI4592
aI4593
aI4594
aI4595
aI4596
aI4597
aI4598
aI4599
aI4600
aI4601
aI4602
aI4603
aI4604
aI4605
aI4606
aI4607
aI4608
aI4609
aI4610
aI4611
aI4612
aI4613
aI4614
aI4615
aI4616
aI4617
aI4618
aI4619
aI4620
aI4621
aI4622
aI4623
aI4624
aI4625
aI4626
aI4627
aI4628
aI4629
aI4630
aI4631
aI4632
aI4633
aI4634
aI4635
aI4636
aI4637
aI4638
aI4639
aI4640
aI4641
aI4642
aI4643
aI4644
aI4645
aI4646
aI4647
aI4648
aI4649
aI4650
aI4651
aI4652
aI4653
aI4654
aI4655
aI4656
aI4657
aI4658
aI4659
aI4660
aI4661
aI4662
aI4663
aI4664
aI4665
aI4666
aI4667
aI4668
aI4669
aI4670
aI4671
aI4672
aI4673
aI4674
aI4675
aI4676
aI4677
aI4678
aI4679
aI4680
aI4681
aI4696
aI4697
aI4698
aI4699
aI4700
aI4701
aI4702
aI4703
aI4704
aI4705
aI4706
aI4707
aI4708
aI4709
aI4710
aI4711
aI4712
aI4713
aI4714
aI4715
aI4716
aI4717
aI4718
aI4719
aI4720
aI4721
aI4722
aI4723
aI4724
aI4725
aI4726
aI4727
aI4728
aI4729
aI4730
aI4731
aI4732
aI4733
aI4734
aI4735
aI4736
aI4737
aI4738
aI4739
aI4740
aI4741
aI4742
aI4743
aI4744
aI4745
aI4746
aI4747
aI4748
aI4749
aI4750
aI4751
aI4752
aI4753
aI4754
aI4755
aI4756
aI4757
aI4758
aI4759
aI4760
aI4761
aI4762
aI4763
aI4764
aI4765
aI4766
aI4767
aI4768
aI4769
aI4770
aI4771
aI4772
aI4773
aI4774
aI4775
aI4776
aI4777
aI4778
aI4779
aI4780
aI4781
aI4782
aI4783
aI4784
aI4785
aI4786
aI4787
aI4788
aI4789
aI4790
aI4791
aI4792
aI4793
aI4794
aI4795
aI4796
aI4797
aI4798
aI4799
aI4800
aI4801
aI4802
aI4803
aI4804
aI4805
aI4806
aI4807
aI4808
aI4809
aI4810
aI4811
aI4812
aI4813
aI4814
aI4815
aI4816
aI4817
aI4818
aI4819
aI4820
aI4821
aI4822
aI4823
aI4824
aI4825
aI4826
aI4827
aI4828
aI4829
aI4830
aI4831
aI4832
aI4833
aI4834
aI4835
aI4836
aI4837
aI4838
aI4839
aI4840
aI4841
aI4842
aI4843
aI4844
aI4845
aI4846
aI4847
aI4848
aI4849
aI4850
aI4851
aI4852
aI4853
aI4854
aI4855
aI4856
aI4857
aI4858
aI4859
aI4860
aI4861
aI4862
aI4863
aI4864
aI4865
aI4866
aI4867
aI4868
aI4869
aI4870
aI4871
aI4872
aI4873
aI4874
aI4875
aI4876
aI4877
aI4878
aI4879
aI4880
aI4881
aI4882
aI4883
aI4884
aI4885
aI4886
aI4887
aI4888
aI4889
aI4890
aI4891
aI4892
aI4893
aI4894
aI4895
aI4896
aI4897
aI4898
aI4899
aI4900
aI4901
aI4902
aI4903
aI4904
aI4905
aI4906
aI4907
aI4908
aI4909
aI4910
aI4911
aI4912
aI4913
aI4914
aI4915
aI4916
aI4917
aI4918
aI4919
aI4920
aI4921
aI4922
aI4923
aI4924
aI4925
aI4926
aI4927
aI4928
aI4929
aI4930
aI4931
aI4932
aI4933
aI4934
aI4935
aI4936
aI4937
aI4938
aI4939
aI4940
aI4941
aI4942
aI4943
aI4944
aI4945
aI4946
aI4947
a.(lp0
I1600
aI1576
aI1576
aI1576
aI1576
aI1576
aI1584
aI1584
aI1584
aI1584
aI1584
aI1584
aI1584
aI1584
aI1584
aI1584
aI1584
aI1584
aI1584
aI1584
aI1584
aI1584
aI1584
aI1584
aI1584
aI1584
aI1560
aI1520
aI1444
aI1404
aI1400
aI1400
aI1400
aI1400
aI1400
aI1400
aI1352
aI1280
aI1128
aI1060
aI964
aI1000
aI1028
aI1028
aI1028
aI1028
aI1568
aI1572
aI1576
aI1580
aI1584
aI1588
aI1588
aI1588
aI1588
aI1588
aI1588
aI1588
aI2096
aI2100
aI2108
aI2120
aI2124
aI2132
aI2136
aI2140
aI2152
aI2168
aI2200
aI2204
aI2208
aI2196
aI2200
aI2200
aI2200
aI2200
aI2200
aI2200
aI2284
aI2296
aI2296
aI2296
aI2296
aI2296
aI2296
aI2296
aI2296
aI2296
aI2296
aI2296
aI2296
aI2296
aI2296
aI2296
aI2296
aI2296
aI2296
aI2296
aI2296
aI2296
aI2296
aI2296
aI2296
aI2296
aI2296
aI2296
aI2296
aI2296
aI2296
aI2296
aI2292
aI2280
aI2272
aI2252
aI2252
aI2272
aI2288
aI2308
aI2332
aI2340
aI2352
aI2352
aI2352
aI2352
aI2332
aI2328
aI2308
aI2292
aI2292
aI2292
aI2292
aI2260
aI2236
aI2232
aI2216
aI2184
aI2200
aI2200
aI2200
aI2200
aI2200
aI2200
aI2200
aI2200
aI2200
aI2200
aI2200
aI2200
aI2184
aI2168
aI2152
aI2152
aI2152
aI2152
aI2152
aI2152
aI2152
aI2152
aI2152
aI2152
aI2152
aI2152
aI2152
aI2136
aI2088
aI1984
aI1948
aI1904
aI1900
aI1900
aI1900
aI1900
aI1900
aI1900
aI1900
aI1900
aI1900
aI1900
aI1900
aI1900
aI1900
aI1896
aI1888
aI1872
aI1744
aI1756
aI1760
aI1760
aI1760
aI1760
aI1760
aI1760
aI1760
aI1760
aI1756
aI1748
aI1748
aI1748
aI1748
aI1748
aI1748
aI1748
aI1748
aI1748
aI1748
aI1748
aI1748
aI1748
aI1748
aI1748
aI1748
aI1748
aI1748
aI1748
aI1748
aI1748
aI1748
aI1748
aI1748
aI1832
aI1844
aI1844
aI1844
aI1844
aI1844
aI1844
aI1844
aI1844
aI1844
aI1844
aI1844
aI1844
aI1844
aI1844
aI1844
aI1844
aI1844
aI1844
aI1844
aI1844
aI1844
aI1860
aI1908
aI1908
aI1908
aI1908
aI1908
aI1908
aI1908
aI1908
aI1908
aI1908
aI1908
aI1908
aI1920
aI1952
aI2168
aI2168
aI2168
aI2168
aI2168
aI2168
aI2168
aI2168
aI2168
aI2172
aI2172
aI2172
aI2172
aI2172
aI2172
aI2172
aI2172
aI2172
aI2172
aI2172
aI2172
aI2172
aI2172
aI2172
aI2172
aI2172
aI2172
aI2172
aI2172
aI2172
aI2172
aI2172
aI2172
aI2172
aI2172
aI2172
aI2172
aI2172
aI2172
aI2172
aI2172
aI2172
aI2172
aI2172
aI2172
aI2172
aI2172
aI2172
aI2172
aI2172
aI2172
aI2172
aI2172
aI2172
aI2172
aI2172
aI2172
aI2172
aI2172
aI2172
aI2172
aI2172
aI2172
aI2172
aI2172
aI2172
aI2172
aI2172
aI2172
aI2172
aI2172
aI2172
aI2172
aI2172
aI2172
aI2172
aI2172
aI2172
aI2172
aI2172
aI2172
aI2172
aI2172
aI2172
aI2172
aI2172
aI2172
aI2172
aI2172
aI2172
aI2172
aI2172
aI2172
aI2172
aI2172
aI2172
aI2172
aI2172
aI2172
aI2172
aI2172
aI2172
aI2172
aI2172
aI2172
aI2172
aI2172
aI2172
aI2172
aI2172
aI2172
aI2172
aI2172
aI2172
aI2172
aI2172
aI2180
aI2244
aI2316
aI2316
aI2320
aI2320
aI2320
aI2320
aI2320
aI2320
aI2320
aI2320
aI2320
aI2320
aI2320
aI2320
aI2320
aI2320
aI2320
aI2320
aI2320
aI2320
aI2320
aI2320
aI2320
aI2320
aI2320
aI2320
aI2320
aI2320
aI2320
aI2320
aI2320
aI2320
aI2320
aI2320
aI2320
aI2320
aI2320
aI2320
aI2320
aI2320
aI2320
aI2320
aI2320
aI2320
aI2320
aI2320
aI2320
aI2320
aI2320
aI2320
aI2320
aI2320
aI2320
aI2320
aI2320
aI2320
aI2320
aI2320
aI2320
aI2320
aI2320
aI2320
aI2320
aI2320
aI2320
aI2320
aI2320
aI2320
aI2320
aI2320
aI2320
aI2320
aI2320
aI2320
aI2320
aI2320
aI2320
aI2320
aI2320
aI2320
aI2320
aI2320
aI2320
aI2320
aI2320
aI2320
aI2320
aI2320
aI2320
aI2324
aI2352
aI2376
aI2376
aI2376
aI2376
aI2376
aI2376
aI2376
aI2376
aI2376
aI2376
aI2376
aI2376
aI2376
aI2376
aI2376
aI2376
aI2376
aI2376
aI2376
aI2376
aI2376
aI2376
aI2376
aI2376
aI2376
aI2376
aI2376
aI2376
aI2376
aI2376
aI2376
aI2376
aI2376
aI2376
aI2376
aI2376
aI2376
aI2376
aI2376
aI2376
aI2376
aI2376
aI2376
aI2376
aI2376
aI2376
aI2376
aI2376
aI2376
aI2376
aI2376
aI2376
aI2376
aI2376
aI2376
aI2376
aI2376
aI2376
aI2376
aI2376
aI2376
aI2376
aI2376
aI2376
aI2376
aI2376
aI2376
aI2380
aI2448
aI2568
aI2608
aI2684
aI2700
aI2700
aI2704
aI2704
aI2704
aI2704
aI2704
aI2704
aI2704
aI2704
aI2704
aI2704
aI2704
aI2704
aI2704
aI2704
aI2704
aI2704
aI2704
aI2704
aI2708
aI2708
aI2708
aI2708
aI2708
aI2708
aI2708
aI2708
aI2708
aI2708
aI2708
aI2708
aI2708
aI2708
aI2708
aI2708
aI2708
aI2708
aI2708
aI2708
aI2708
aI2708
aI2708
aI2708
aI2708
aI2708
aI2708
aI2704
aI2704
aI2704
aI2704
aI2704
aI2704
aI2704
aI2704
aI2704
aI2704
aI2704
aI2704
aI2704
aI2704
aI2592
aI2552
aI2524
aI2500
aI2448
aI2440
aI2436
aI2408
aI2376
aI2340
aI2320
aI2308
aI2308
aI2284
aI2276
aI2232
aI2216
aI2192
aI2184
aI2176
aI2176
aI2156
aI2124
aI2124
aI2108
aI2100
aI2092
aI2044
a.(lp0
I1204
aI1188
aI1184
aI1184
aI1184
aI1184
aI1188
aI1188
aI1188
aI1188
aI1188
aI1188
aI1188
aI1188
aI1188
aI1188
aI1188
aI1188
aI1188
aI1188
aI1176
aI1176
aI1176
aI1176
aI1176
aI1176
aI1176
aI1196
aI1196
aI1196
aI1192
aI1192
aI1192
aI1192
aI1192
aI1192
aI1188
aI1188
aI1188
aI1180
aI1196
aI1212
aI1204
aI1204
aI1204
aI1204
aI1252
aI1252
aI1252
aI1248
aI1248
aI1248
aI1244
aI1244
aI1244
aI1244
aI1244
aI1244
aI1252
aI1240
aI1228
aI1216
aI1212
aI1204
aI1200
aI1188
aI1176
aI1160
aI1136
aI1100
aI1080
aI1044
aI984
aI980
aI980
aI980
aI980
aI980
aI912
aI932
aI936
aI936
aI936
aI936
aI936
aI936
aI936
aI936
aI936
aI936
aI936
aI936
aI936
aI936
aI936
aI936
aI936
aI936
aI936
aI936
aI936
aI936
aI936
aI936
aI936
aI936
aI936
aI936
aI936
aI936
aI936
aI940
aI944
aI956
aI972
aI1004
aI1020
aI1036
aI1080
aI1100
aI1112
aI1144
aI1148
aI1148
aI1168
aI1176
aI1192
aI1204
aI1204
aI1204
aI1204
aI1228
aI1244
aI1248
aI1252
aI1244
aI1224
aI1220
aI1220
aI1220
aI1220
aI1220
aI1220
aI1220
aI1220
aI1220
aI1220
aI1220
aI1220
aI1220
aI1220
aI1228
aI1228
aI1228
aI1228
aI1228
aI1228
aI1228
aI1228
aI1228
aI1228
aI1228
aI1228
aI1228
aI1228
aI1248
aI1252
aI1252
aI1252
aI1252
aI1252
aI1252
aI1252
aI1252
aI1252
aI1252
aI1252
aI1252
aI1252
aI1252
aI1252
aI1252
aI1252
aI1252
aI1256
aI1244
aI1236
aI1236
aI1236
aI1236
aI1236
aI1236
aI1236
aI1236
aI1236
aI1252
aI1252
aI1252
aI1252
aI1252
aI1252
aI1252
aI1252
aI1252
aI1252
aI1252
aI1252
aI1252
aI1252
aI1252
aI1252
aI1252
aI1252
aI1252
aI1252
aI1252
aI1252
aI1252
aI1252
aI1256
aI1236
aI1236
aI1236
aI1236
aI1248
aI1248
aI1248
aI1248
aI1248
aI1248
aI1248
aI1248
aI1248
aI1248
aI1248
aI1248
aI1248
aI1248
aI1248
aI1248
aI1248
aI1252
aI1256
aI1252
aI1252
aI1252
aI1252
aI1252
aI1252
aI1252
aI1252
aI1252
aI1252
aI1252
aI1252
aI1252
aI1252
aI1244
aI1244
aI1244
aI1244
aI1244
aI1244
aI1244
aI1244
aI1252
aI1252
aI1252
aI1252
aI1252
aI1252
aI1252
aI1252
aI1252
aI1252
aI1252
aI1252
aI1252
aI1252
aI1252
aI1252
aI1252
aI1252
aI1252
aI1252
aI1252
aI1252
aI1252
aI1252
aI1252
aI1252
aI1252
aI1252
aI1252
aI1252
aI1252
aI1252
aI1252
aI1252
aI1252
aI1252
aI1252
aI1252
aI1252
aI1252
aI1252
aI1252
aI1252
aI1252
aI1252
aI1252
aI1252
aI1252
aI1252
aI1252
aI1252
aI1252
aI1252
aI1252
aI1252
aI1252
aI1252
aI1252
aI1252
aI1252
aI1252
aI1252
aI1252
aI1252
aI1252
aI1252
aI1252
aI1252
aI1252
aI1252
aI1252
aI1252
aI1252
aI1252
aI1252
aI1252
aI1252
aI1252
aI1252
aI1252
aI1252
aI1252
aI1252
aI1252
aI1252
aI1252
aI1252
aI1252
aI1252
aI1252
aI1252
aI1252
aI1252
aI1252
aI1252
aI1252
aI1252
aI1252
aI1252
aI1252
aI1252
aI1252
aI1252
aI1252
aI1252
aI1252
aI1252
aI1252
aI1256
aI1256
aI1248
aI1244
aI1244
aI1244
aI1244
aI1244
aI1244
aI1244
aI1244
aI1244
aI1244
aI1244
aI1244
aI1244
aI1244
aI1244
aI1244
aI1244
aI1244
aI1244
aI1244
aI1244
aI1244
aI1244
aI1244
aI1244
aI1244
aI1244
aI1244
aI1244
aI1244
aI1244
aI1244
aI1244
aI1244
aI1244
aI1244
aI1244
aI1244
aI1244
aI1244
aI1244
aI1244
aI1244
aI1244
aI1244
aI1244
aI1244
aI1244
aI1244
aI1244
aI1244
aI1244
aI1244
aI1244
aI1244
aI1244
aI1244
aI1244
aI1244
aI1244
aI1244
aI1244
aI1244
aI1244
aI1244
aI1244
aI1244
aI1244
aI1244
aI1244
aI1244
aI1244
aI1244
aI1244
aI1244
aI1244
aI1244
aI1244
aI1244
aI1244
aI1244
aI1244
aI1244
aI1244
aI1244
aI1244
aI1244
aI1240
aI1220
aI1204
aI1196
aI1176
aI1152
aI1140
aI1136
aI1136
aI1136
aI1136
aI1136
aI1136
aI1136
aI1136
aI1136
aI1136
aI1136
aI1136
aI1136
aI1136
aI1136
aI1136
aI1136
aI1136
aI1136
aI1136
aI1136
aI1136
aI1136
aI1136
aI1136
aI1136
aI1136
aI1136
aI1136
aI1136
aI1136
aI1136
aI1136
aI1136
aI1136
aI1136
aI1136
aI1136
aI1136
aI1136
aI1136
aI1136
aI1136
aI1136
aI1136
aI1136
aI1136
aI1136
aI1136
aI1136
aI1136
aI1136
aI1136
aI1136
aI1136
aI1136
aI1136
aI1136
aI1136
aI1136
aI1136
aI1136
aI1136
aI1128
aI1128
aI1140
aI1164
aI1176
aI1176
aI1164
aI1160
aI1160
aI1160
aI1160
aI1160
aI1160
aI1160
aI1160
aI1160
aI1160
aI1160
aI1160
aI1160
aI1160
aI1160
aI1160
aI1160
aI1160
aI1160
aI1160
aI1160
aI1160
aI1160
aI1160
aI1160
aI1160
aI1160
aI1160
aI1160
aI1160
aI1160
aI1160
aI1160
aI1160
aI1160
aI1160
aI1160
aI1160
aI1160
aI1160
aI1160
aI1160
aI1160
aI1160
aI1160
aI1160
aI1160
aI1160
aI1160
aI1160
aI1160
aI1160
aI1160
aI1160
aI1160
aI1160
aI1160
aI1160
aI1200
aI1204
aI1196
aI1204
aI1212
aI1212
aI1212
aI1212
aI1200
aI1204
aI1208
aI1216
aI1216
aI1216
aI1220
aI1208
aI1204
aI1200
aI1196
aI1196
aI1196
aI1192
aI1192
aI1192
aI1192
aI1192
aI1192
aI1176
a.(lp0
I1200
aI1200
aI1200
aI1200
aI1200
aI1200
aI1200
aI1200
aI1200
aI1200
aI1200
aI1200
aI1200
aI1200
aI1200
aI1200
aI1200
aI1200
aI1200
aI1200
aI1200
aI1200
aI1200
aI1200
aI1200
aI1200
aI1200
aI1200
aI1200
aI1200
aI1200
aI1200
aI1200
aI1200
aI1200
aI1200
aI1200
aI1200
aI1200
aI1200
aI1200
aI1200
aI1200
aI1200
aI1200
aI1200
aI1200
aI1200
aI1200
aI1200
aI1200
aI1200
aI1200
aI1200
aI1200
aI1200
aI1200
aI1200
aI1200
aI1200
aI1200
aI1200
aI1200
aI1200
aI1200
aI1200
aI1200
aI1200
aI1200
aI1200
aI1200
aI1200
aI1200
aI1200
aI1200
aI1200
aI1200
aI1200
aI1200
aI1200
aI1200
aI1200
aI1200
aI1200
aI1200
aI1200
aI1200
aI1200
aI1200
aI1200
aI1200
aI1200
aI1200
aI1200
aI1200
aI1200
aI1200
aI1200
aI1200
aI1200
aI1200
aI1200
aI1200
aI1200
aI1200
aI1200
aI1200
aI1200
aI1200
aI1200
aI1200
aI1200
aI1200
aI1200
aI1200
aI1200
aI1200
aI1200
aI1200
aI1200
aI1200
aI1200
aI1200
aI1200
aI1200
aI1200
aI1200
aI1200
aI1200
aI1200
aI1200
aI1200
aI1200
aI1200
aI1200
aI1200
aI1200
aI1200
aI1200
aI1200
aI1200
aI1200
aI1200
aI1200
aI1200
aI1200
aI1200
aI1200
aI1200
aI1200
aI1200
aI1200
aI1200
aI1200
aI1200
aI1200
aI1200
aI1200
aI1200
aI1200
aI1200
aI1200
aI1200
aI1200
aI1200
aI1200
aI1200
aI1200
aI1200
aI1200
aI1200
aI1200
aI1200
aI1200
aI1200
aI1200
aI1200
aI1200
aI1200
aI1200
aI1200
aI1200
aI1200
aI1200
aI1200
aI1200
aI1200
aI1200
aI1200
aI1200
aI1200
aI1200
aI1200
aI1200
aI1200
aI1200
aI1200
aI1200
aI1200
aI1200
aI1200
aI1200
aI1200
aI1200
aI1200
aI1200
aI1200
aI1200
aI1200
aI1200
aI1200
aI1200
aI1200
aI1200
aI1200
aI1200
aI1200
aI1200
aI1200
aI1200
aI1200
aI1200
aI1200
aI1200
aI1200
aI1200
aI1200
aI1200
aI1200
aI1200
aI1200
aI1200
aI1200
aI1200
aI1200
aI1200
aI1200
aI1200
aI1200
aI1200
aI1200
aI1200
aI1200
aI1200
aI1200
aI1200
aI1200
aI1200
aI1200
aI1200
aI1200
aI1200
aI1200
aI1200
aI1200
aI1200
aI1200
aI1200
aI1200
aI1200
aI1200
aI1200
aI1200
aI1200
aI1200
aI1200
aI1200
aI1200
aI1200
aI1200
aI1200
aI1200
aI1200
aI1200
aI1200
aI1200
aI1200
aI1200
aI1200
aI1200
aI1200
aI1200
aI1200
aI1200
aI1200
aI1200
aI1200
aI1200
aI1200
aI1200
aI1200
aI1200
aI1200
aI1200
aI1200
aI1200
aI1200
aI1200
aI1200
aI1200
aI1200
aI1200
aI1200
aI1200
aI1200
aI1200
aI1200
aI1200
aI1200
aI1200
aI1200
aI1200
aI1200
aI1200
aI1200
aI1200
aI1200
aI1200
aI1200
aI1200
aI1200
aI1200
aI1200
aI1200
aI1200
aI1200
aI1200
aI1200
aI1200
aI1200
aI1200
aI1200
aI1200
aI1200
aI1200
aI1200
aI1200
aI1200
aI1200
aI1200
aI1200
aI1200
aI1200
aI1200
aI1200
aI1200
aI1200
aI1200
aI1200
aI1200
aI1200
aI1200
aI1200
aI1200
aI1200
aI1200
aI1200
aI1200
aI1200
aI1200
aI1200
aI1200
aI1200
aI1200
aI1200
aI1200
aI1200
aI1200
aI1200
aI1200
aI1200
aI1200
aI1200
aI1200
aI1200
aI1200
aI1200
aI1200
aI1200
aI1200
aI1200
aI1200
aI1200
aI1200
aI1200
aI1200
aI1200
aI1200
aI1200
aI1200
aI1200
aI1200
aI1200
aI1200
aI1200
aI1200
aI1200
aI1200
aI1200
aI1200
aI1200
aI1200
aI1200
aI1200
aI1200
aI1200
aI1200
aI1200
aI1200
aI1200
aI1200
aI1200
aI1200
aI1200
aI1200
aI1200
aI1200
aI1200
aI1200
aI1200
aI1200
aI1200
aI1200
aI1200
aI1200
aI1200
aI1200
aI1200
aI1200
aI1200
aI1200
aI1200
aI1200
aI1200
aI1200
aI1200
aI1200
aI1200
aI1200
aI1200
aI1200
aI1200
aI1200
aI1200
aI1200
aI1200
aI1200
aI1200
aI1200
aI1200
aI1200
aI1200
aI1200
aI1200
aI1200
aI1200
aI1200
aI1200
aI1200
aI1200
aI1200
aI1200
aI1200
aI1200
aI1200
aI1200
aI1200
aI1200
aI1200
aI1200
aI1200
aI1200
aI1200
aI1200
aI1200
aI1200
aI1200
aI1200
aI1200
aI1200
aI1200
aI1200
aI1200
aI1200
aI1200
aI1200
aI1200
aI1200
aI1200
aI1200
aI1200
aI1200
aI1200
aI1200
aI1200
aI1200
aI1200
aI1200
aI1200
aI1200
aI1200
aI1200
aI1200
aI1200
aI1200
aI1200
aI1200
aI1200
aI1200
aI1200
aI1200
aI1200
aI1200
aI1200
aI1200
aI1200
aI1200
aI1200
aI1200
aI1200
aI1200
aI1200
aI1200
aI1200
aI1200
aI1200
aI1200
aI1200
aI1200
aI1200
aI1200
aI1200
aI1200
aI1200
aI1200
aI1200
aI1200
aI1200
aI1200
aI1200
aI1200
aI1200
aI1200
aI1200
aI1200
aI1200
aI1200
aI1200
aI1200
aI1200
aI1200
aI1200
aI1200
aI1200
aI1200
aI1200
aI1200
aI1200
aI1200
aI1200
aI1200
aI1200
aI1200
aI1200
aI1200
aI1200
aI1200
aI1200
aI1200
aI1200
aI1200
aI1200
aI1200
aI1200
aI1200
aI1200
aI1200
aI1200
aI1200
aI1200
aI1200
aI1200
aI1200
aI1200
aI1200
aI1200
aI1200
aI1200
aI1200
aI1200
aI1200
aI1200
aI1200
aI1200
aI1200
aI1200
aI1200
aI1200
aI1200
aI1200
aI1200
aI1200
aI1200
aI1200
aI1200
aI1200
aI1200
aI1200
aI1200
aI1200
aI1200
aI1200
aI1200
aI1200
aI1200
aI1200
aI1200
aI1200
aI1200
aI1200
aI1200
aI1200
aI1200
aI1200
aI1200
aI1200
a.