(lp0
I1638
aI1639
aI1640
aI1641
aI1642
aI1643
aI1644
aI1645
aI1646
aI1647
aI1648
aI1649
aI1650
aI1651
aI1652
aI1653
aI1654
aI1655
aI1656
aI1657
aI1658
aI1659
aI1660
aI1661
aI1662
aI1663
aI1664
aI1665
aI1666
aI1667
aI1668
aI1669
aI1670
aI1671
aI1672
aI1673
aI1674
aI1675
aI1676
aI1677
aI1678
aI1679
aI1680
aI1681
aI1682
aI1683
aI1684
aI1685
aI1686
aI1687
aI1688
aI1689
aI1690
aI1691
aI1692
aI1693
aI1694
aI1695
aI1696
aI1697
aI1698
aI1699
aI1700
aI1701
aI1702
aI1703
aI1704
aI1705
aI1706
aI1707
aI1708
aI1709
aI1710
aI1711
aI1712
aI1713
aI1714
aI1715
aI1716
aI1717
aI1718
aI1719
aI1720
aI1721
aI1722
aI1723
aI1724
aI1725
aI1726
aI1727
aI1728
aI1729
aI1730
aI1731
aI1732
aI1733
aI1734
aI1735
aI1736
aI1737
aI1738
aI1739
aI1740
aI1741
aI1742
aI1743
aI1744
aI1745
aI1746
aI1747
aI1748
aI1749
aI1750
aI1751
aI1752
aI1753
aI1754
aI1755
aI1756
aI1757
aI1758
aI1759
aI1760
aI1761
aI1762
aI1763
aI1764
aI1765
aI1766
aI1767
aI1768
aI1769
aI1770
aI1771
aI1772
aI1773
aI1774
aI1775
aI1776
aI1777
aI1778
aI1779
aI1780
aI1781
aI1782
aI1783
aI1784
aI1785
aI1786
aI1787
aI1788
aI1789
aI1790
aI1791
aI1792
aI1793
aI1794
aI1795
aI1796
aI1797
aI1798
aI1799
aI1800
aI1801
aI1802
aI1803
aI1804
aI1805
aI1806
aI1807
aI1808
aI1809
aI1810
aI1811
aI1812
aI1813
aI1814
aI1815
aI1816
aI1817
aI1818
aI1819
aI1820
aI1821
aI1822
aI1823
aI1824
aI1825
aI1826
aI1827
aI1828
aI1829
aI1830
aI1831
aI1832
aI1833
aI1834
aI1835
aI1836
aI1837
aI1838
aI1839
aI1840
aI1841
aI1842
aI1843
aI1844
aI1845
aI1846
aI1847
aI1848
aI1849
aI1850
aI1851
aI1852
aI1853
aI1854
aI1855
aI1856
aI1857
aI1858
aI1859
aI1860
aI1861
aI1862
aI1863
aI1864
aI1865
aI1866
aI1867
aI1868
aI1869
aI1870
aI1871
aI1872
aI1873
aI1874
aI1875
aI1876
aI1877
aI1878
aI1879
aI1880
aI1881
aI1882
aI1883
aI1884
aI1885
aI1886
aI1887
aI1888
aI1889
aI1890
aI1891
aI1892
aI1893
aI1894
aI1895
aI1896
aI1897
aI1898
aI1899
aI1900
aI1901
aI1902
aI1903
aI1904
aI1905
aI1906
aI1907
aI1908
aI1909
aI1910
aI1911
aI1912
aI1913
aI1914
aI1915
aI1916
aI1917
aI1918
aI1919
aI1920
aI1921
aI1922
aI1923
aI1924
aI1925
aI1926
aI1927
aI1928
aI1929
aI1930
aI1931
aI1932
aI1933
aI1934
aI1935
aI1936
aI1937
aI1938
aI1939
aI1940
aI1941
aI1942
aI1943
aI1944
aI1945
aI1946
aI1947
aI1948
aI1949
aI1950
aI1951
aI1952
aI1953
aI1954
aI1955
aI1956
aI1957
aI1958
aI1959
aI1960
aI1961
aI1962
aI1963
aI1964
aI1965
aI1966
aI1967
aI1968
aI1969
aI1970
aI1971
aI1972
aI1973
aI1974
aI1975
aI1976
aI1977
aI1978
aI1979
aI1980
aI1981
aI1986
aI1987
aI1988
aI1989
aI1990
aI1991
aI1992
aI1993
aI1994
aI1995
aI1996
aI1997
aI1998
aI1999
aI2000
aI2001
aI2002
aI2003
aI2004
aI2005
aI2006
aI2007
aI2008
aI2009
aI2010
aI2011
aI2012
aI2013
aI2014
aI2015
aI2016
aI2017
aI2018
aI2019
aI2020
aI2021
aI2022
aI2023
aI2024
aI2025
aI2026
aI2027
aI2028
aI2029
aI2030
aI2031
aI2032
aI2033
aI2034
aI2035
aI2036
aI2037
aI2038
aI2039
aI2040
aI2041
aI2042
aI2043
aI2044
aI2045
aI2046
aI2047
aI2048
aI2049
aI2050
aI2051
aI2052
aI2053
aI2054
aI2055
aI2056
aI2057
aI2058
aI2059
aI2060
aI2061
aI2062
aI2063
aI2064
aI2065
aI2066
aI2067
aI2068
aI2069
aI2070
aI2071
aI2072
aI2073
aI2074
aI2075
aI2076
aI2077
aI2078
aI2079
aI2080
a.(lp0
I1566
aI1560
aI1568
aI1568
aI1568
aI1568
aI1568
aI1568
aI1568
aI1568
aI1568
aI1568
aI1568
aI1568
aI1568
aI1568
aI1568
aI1560
aI1560
aI1560
aI1560
aI1560
aI1523
aI1555
aI1544
aI1509
aI1550
aI1541
aI1531
aI1531
aI1528
aI1517
aI1517
aI1517
aI1517
aI1517
aI1514
aI1512
aI1539
aI1539
aI1539
aI1539
aI1539
aI1539
aI1539
aI1539
aI1539
aI1539
aI1539
aI1539
aI1528
aI1520
aI1520
aI1509
aI1509
aI1509
aI1506
aI1506
aI1506
aI1506
aI1506
aI1506
aI1506
aI1498
aI1498
aI1498
aI1498
aI1498
aI1506
aI1490
aI1506
aI1506
aI1496
aI1496
aI1496
aI1496
aI1496
aI1493
aI1493
aI1493
aI1493
aI1493
aI1493
aI1493
aI1493
aI1493
aI1493
aI1493
aI1493
aI1493
aI1493
aI1493
aI1493
aI1493
aI1493
aI1493
aI1506
aI1536
aI1523
aI1523
aI1523
aI1523
aI1523
aI1523
aI1523
aI1523
aI1523
aI1523
aI1520
aI1520
aI1520
aI1520
aI1520
aI1520
aI1520
aI1520
aI1517
aI1517
aI1533
aI1533
aI1533
aI1533
aI1533
aI1533
aI1533
aI1533
aI1512
aI1517
aI1517
aI1517
aI1517
aI1517
aI1517
aI1536
aI1536
aI1536
aI1536
aI1536
aI1536
aI1536
aI1536
aI1536
aI1536
aI1536
aI1536
aI1536
aI1536
aI1536
aI1536
aI1536
aI1517
aI1536
aI1541
aI1541
aI1541
aI1541
aI1541
aI1541
aI1541
aI1541
aI1541
aI1541
aI1541
aI1533
aI1533
aI1533
aI1533
aI1533
aI1533
aI1533
aI1539
aI1577
aI1568
aI1558
aI1558
aI1552
aI1558
aI1560
aI1568
aI1563
aI1558
aI1558
aI1558
aI1558
aI1558
aI1558
aI1558
aI1558
aI1558
aI1558
aI1558
aI1558
aI1558
aI1558
aI1558
aI1558
aI1558
aI1558
aI1558
aI1555
aI1555
aI1555
aI1555
aI1555
aI1555
aI1555
aI1555
aI1555
aI1555
aI1555
aI1555
aI1555
aI1555
aI1563
aI1563
aI1563
aI1563
aI1563
aI1563
aI1563
aI1563
aI1563
aI1563
aI1590
aI1593
aI1593
aI1593
aI1620
aI1620
aI1622
aI1622
aI1622
aI1622
aI1622
aI1622
aI1622
aI1622
aI1622
aI1622
aI1622
aI1622
aI1622
aI1622
aI1622
aI1622
aI1631
aI1649
aI1649
aI1649
aI1649
aI1649
aI1649
aI1649
aI1649
aI1649
aI1649
aI1649
aI1649
aI1649
aI1652
aI1655
aI1655
aI1655
aI1655
aI1655
aI1655
aI1655
aI1655
aI1655
aI1641
aI1641
aI1641
aI1641
aI1641
aI1641
aI1641
aI1641
aI1641
aI1641
aI1641
aI1641
aI1641
aI1620
aI1620
aI1620
aI1620
aI1620
aI1620
aI1620
aI1598
aI1590
aI1582
aI1582
aI1582
aI1614
aI1568
aI1614
aI1644
aI1595
aI1598
aI1612
aI1606
aI1606
aI1606
aI1606
aI1606
aI1606
aI1606
aI1606
aI1582
aI1579
aI1579
aI1579
aI1579
aI1579
aI1579
aI1579
aI1579
aI1579
aI1579
aI1579
aI1579
aI1579
aI1579
aI1579
aI1579
aI1579
aI1579
aI1560
aI1560
aI1560
aI1560
aI1579
aI1555
aI1550
aI1555
aI1555
aI1555
aI1555
aI1555
aI1550
aI1550
aI1550
aI1547
aI1563
aI1571
aI1571
aI1560
aI1555
aI1552
aI1552
aI1552
aI1552
aI1552
aI1552
aI1552
aI1552
aI1552
aI1552
aI1552
aI1552
aI1552
aI1552
aI1552
aI1552
aI1552
aI1552
aI1552
aI1552
aI1579
aI1579
aI1579
aI1579
aI1579
aI1579
aI1579
aI1579
aI1579
aI1579
aI1579
aI1579
aI1579
aI1579
aI1579
aI1579
aI1598
aI1604
aI1604
aI1604
aI1604
aI1604
aI1604
aI1604
aI1604
aI1604
aI1606
aI1606
aI1606
aI1606
aI1606
aI1606
aI1631
aI1690
aI1663
aI1663
aI1663
aI1663
aI1663
aI1663
aI1663
aI1663
aI1663
aI1671
aI1701
aI1701
aI1701
aI1703
aI1703
aI1703
aI1703
aI1703
aI1709
aI1717
aI1717
aI1717
aI1717
aI1720
aI1728
aI1728
aI1728
aI1728
aI1728
aI1728
aI1728
aI1728
aI1739
aI1747
aI1747
aI1747
a.(lp0
I853
aI864
aI869
aI872
aI872
aI872
aI893
aI893
aI893
aI893
aI893
aI893
aI893
aI893
aI893
aI893
aI893
aI901
aI901
aI901
aI901
aI901
aI980
aI1066
aI1034
aI1069
aI1077
aI1082
aI1090
aI1090
aI1107
aI1144
aI1144
aI1144
aI1144
aI1144
aI1179
aI1188
aI1206
aI1206
aI1206
aI1206
aI1206
aI1206
aI1206
aI1206
aI1220
aI1225
aI1225
aI1225
aI1250
aI1314
aI1314
aI1336
aI1336
aI1336
aI1336
aI1336
aI1336
aI1336
aI1336
aI1336
aI1350
aI1428
aI1420
aI1420
aI1420
aI1420
aI1412
aI1412
aI1447
aI1447
aI1468
aI1468
aI1468
aI1468
aI1468
aI1468
aI1463
aI1463
aI1463
aI1463
aI1463
aI1463
aI1463
aI1479
aI1479
aI1479
aI1479
aI1479
aI1479
aI1479
aI1479
aI1479
aI1479
aI1479
aI1468
aI1452
aI1460
aI1460
aI1460
aI1460
aI1460
aI1460
aI1460
aI1460
aI1460
aI1460
aI1460
aI1460
aI1460
aI1460
aI1460
aI1460
aI1460
aI1460
aI1460
aI1460
aI1449
aI1449
aI1449
aI1449
aI1449
aI1449
aI1449
aI1449
aI1449
aI1447
aI1447
aI1447
aI1447
aI1447
aI1447
aI1466
aI1498
aI1498
aI1498
aI1498
aI1498
aI1498
aI1498
aI1498
aI1498
aI1498
aI1498
aI1498
aI1498
aI1498
aI1498
aI1498
aI1560
aI1568
aI1568
aI1568
aI1568
aI1568
aI1568
aI1568
aI1568
aI1568
aI1568
aI1568
aI1568
aI1598
aI1598
aI1598
aI1598
aI1598
aI1598
aI1598
aI1601
aI1401
aI1314
aI1298
aI1298
aI1323
aI1250
aI1225
aI1198
aI1177
aI1131
aI1125
aI1139
aI1169
aI1169
aI1169
aI1169
aI1169
aI1169
aI1169
aI1169
aI1169
aI1169
aI1169
aI1169
aI1169
aI1169
aI1169
aI1169
aI1220
aI1206
aI1206
aI1206
aI1206
aI1206
aI1206
aI1206
aI1206
aI1206
aI1206
aI1206
aI1206
aI1269
aI1258
aI1258
aI1258
aI1258
aI1258
aI1258
aI1258
aI1258
aI1258
aI1258
aI1277
aI1287
aI1293
aI1301
aI1314
aI1309
aI1304
aI1304
aI1304
aI1304
aI1304
aI1304
aI1304
aI1304
aI1304
aI1304
aI1304
aI1304
aI1304
aI1304
aI1304
aI1304
aI1309
aI1317
aI1317
aI1317
aI1317
aI1317
aI1317
aI1317
aI1317
aI1317
aI1317
aI1317
aI1317
aI1317
aI1282
aI1274
aI1274
aI1274
aI1274
aI1274
aI1274
aI1274
aI1274
aI1274
aI1258
aI1258
aI1258
aI1258
aI1258
aI1258
aI1258
aI1258
aI1258
aI1258
aI1258
aI1258
aI1258
aI1242
aI1242
aI1242
aI1242
aI1242
aI1242
aI1242
aI1239
aI1209
aI1209
aI1209
aI1209
aI1231
aI1209
aI1171
aI1231
aI1174
aI1215
aI1188
aI1182
aI1182
aI1182
aI1182
aI1182
aI1182
aI1182
aI1182
aI1190
aI1196
aI1196
aI1196
aI1196
aI1196
aI1196
aI1196
aI1196
aI1196
aI1196
aI1196
aI1196
aI1196
aI1196
aI1196
aI1196
aI1196
aI1196
aI1198
aI1198
aI1198
aI1198
aI1287
aI1387
aI1490
aI1528
aI1571
aI1628
aI1652
aI1719
aI1763
aI1817
aI1860
aI1922
aI1917
aI1900
aI1895
aI1906
aI1914
aI1919
aI1919
aI1919
aI1919
aI1919
aI1919
aI1919
aI1919
aI1919
aI1919
aI1919
aI1919
aI1919
aI1919
aI1919
aI1919
aI1919
aI1919
aI1919
aI1919
aI1895
aI1895
aI1892
aI1873
aI1873
aI1871
aI1871
aI1871
aI1871
aI1871
aI1871
aI1871
aI1871
aI1871
aI1871
aI1871
aI1841
aI1825
aI1825
aI1825
aI1825
aI1825
aI1825
aI1825
aI1825
aI1825
aI1825
aI1825
aI1825
aI1825
aI1825
aI1825
aI1819
aI1768
aI1798
aI1798
aI1798
aI1798
aI1798
aI1798
aI1798
aI1798
aI1798
aI1763
aI1709
aI1709
aI1709
aI1709
aI1709
aI1709
aI1709
aI1709
aI1709
aI1701
aI1701
aI1701
aI1698
aI1698
aI1687
aI1687
aI1687
aI1687
aI1687
aI1682
aI1682
aI1682
aI1671
aI1655
aI1660
aI1660
a.