(lp0
I1945
aI1946
aI1947
aI1948
aI1949
aI1950
aI1951
aI1952
aI1953
aI1954
aI1955
aI1956
aI1957
aI1958
aI1959
aI1960
aI1961
aI1962
aI1963
aI1964
aI1965
aI1966
aI1967
aI1968
aI1969
aI1970
aI1971
aI1972
aI1973
aI1974
aI1975
aI1976
aI1977
aI1978
aI1979
aI1980
aI1981
aI1982
aI1983
aI1984
aI1985
aI1986
aI1987
aI1988
aI1989
aI1990
aI1991
aI1992
aI1993
aI1994
aI1995
aI1996
aI1997
aI1998
aI1999
aI2000
aI2001
aI2002
aI2003
aI2004
aI2005
aI2006
aI2007
aI2008
aI2009
aI2010
aI2011
aI2012
aI2013
aI2014
aI2015
aI2016
aI2017
aI2018
aI2019
aI2020
aI2021
aI2022
aI2023
aI2024
aI2025
aI2026
aI2027
aI2028
aI2029
aI2030
aI2031
aI2032
aI2033
aI2034
aI2035
aI2036
aI2037
aI2038
aI2039
aI2040
aI2041
aI2042
aI2043
aI2044
aI2045
aI2046
aI2047
aI2048
aI2049
aI2050
aI2051
aI2052
aI2053
aI2054
aI2055
aI2056
aI2057
aI2058
aI2059
aI2060
aI2061
aI2062
aI2063
aI2064
aI2065
aI2066
aI2067
aI2068
aI2069
aI2070
aI2071
aI2072
aI2073
aI2074
aI2075
aI2076
aI2077
aI2078
aI2079
aI2080
aI2081
aI2082
aI2083
aI2084
aI2085
aI2086
aI2087
aI2088
aI2089
aI2090
aI2091
aI2092
aI2093
aI2094
aI2095
aI2096
aI2097
aI2098
aI2099
aI2100
aI2101
aI2102
aI2103
aI2104
aI2105
aI2106
aI2107
aI2108
aI2109
aI2110
aI2111
aI2112
aI2113
aI2114
aI2115
aI2116
aI2117
aI2118
aI2119
aI2120
aI2121
aI2122
aI2123
aI2124
aI2125
aI2126
aI2127
aI2128
aI2129
aI2130
aI2131
aI2132
aI2133
aI2134
aI2135
aI2136
aI2137
aI2138
aI2139
aI2140
aI2141
aI2142
aI2143
aI2144
aI2145
aI2146
aI2147
aI2148
aI2149
aI2150
aI2151
aI2152
aI2153
aI2154
aI2155
aI2156
aI2157
aI2158
aI2159
aI2160
aI2161
aI2162
aI2163
aI2164
aI2165
aI2166
aI2167
aI2168
aI2169
aI2170
aI2171
aI2172
aI2173
aI2174
aI2175
aI2176
aI2197
aI2198
aI2199
aI2200
aI2201
aI2202
aI2203
aI2204
aI2205
aI2206
aI2207
aI2208
aI2209
aI2210
aI2211
aI2212
aI2213
aI2214
aI2215
aI2216
aI2217
aI2218
aI2219
aI2220
aI2221
aI2222
aI2223
aI2224
aI2225
aI2226
aI2227
aI2228
aI2229
aI2230
aI2231
aI2232
aI2233
aI2234
aI2235
aI2236
aI2237
aI2238
aI2239
aI2240
aI2241
aI2242
aI2243
aI2244
aI2245
aI2246
aI2247
aI2248
aI2249
aI2250
aI2251
aI2252
aI2253
aI2254
aI2255
aI2256
aI2257
aI2258
aI2259
aI2260
aI2261
aI2262
aI2263
aI2264
aI2265
aI2266
aI2267
aI2268
aI2269
aI2270
aI2271
aI2272
aI2273
aI2274
aI2275
aI2276
aI2277
aI2278
aI2279
aI2280
aI2281
aI2282
aI2283
aI2284
aI2285
aI2286
aI2287
aI2288
aI2289
a.(lp0
I2100
aI2100
aI2100
aI2100
aI2104
aI2104
aI2108
aI2108
aI2108
aI2108
aI2108
aI2108
aI2108
aI2100
aI2100
aI2100
aI2100
aI2100
aI2100
aI2124
aI2124
aI2124
aI2124
aI2124
aI2136
aI2136
aI2140
aI2188
aI2200
aI2200
aI2200
aI2208
aI2212
aI2232
aI2232
aI2232
aI2232
aI2232
aI2232
aI2244
aI2244
aI2252
aI2260
aI2260
aI2260
aI2260
aI2264
aI2276
aI2276
aI2232
aI2228
aI2228
aI2228
aI2228
aI2228
aI2252
aI2260
aI2268
aI2268
aI2268
aI2268
aI2268
aI2268
aI2268
aI2284
aI2284
aI2284
aI2276
aI2252
aI2256
aI2268
aI2268
aI2268
aI2288
aI2288
aI2288
aI2280
aI2280
aI2268
aI2268
aI2268
aI2268
aI2276
aI2276
aI2276
aI2276
aI2276
aI2276
aI2276
aI2276
aI2276
aI2280
aI2280
aI2280
aI2280
aI2280
aI2284
aI2284
aI2284
aI2284
aI2288
aI2284
aI2280
aI2284
aI2284
aI2336
aI2340
aI2340
aI2340
aI2340
aI2340
aI2308
aI2308
aI2308
aI2312
aI2312
aI2300
aI2296
aI2292
aI2292
aI2292
aI2276
aI2276
aI2276
aI2276
aI2276
aI2276
aI2276
aI2276
aI2276
aI2276
aI2276
aI2276
aI2276
aI2280
aI2288
aI2296
aI2300
aI2304
aI2308
aI2308
aI2308
aI2308
aI2308
aI2300
aI2300
aI2300
aI2292
aI2292
aI2292
aI2288
aI2288
aI2284
aI2284
aI2284
aI2284
aI2284
aI2284
aI2284
aI2284
aI2284
aI2284
aI2284
aI2292
aI2292
aI2308
aI2308
aI2312
aI2312
aI2312
aI2312
aI2312
aI2312
aI2312
aI2312
aI2312
aI2312
aI2312
aI2312
aI2312
aI2328
aI2336
aI2340
aI2344
aI2344
aI2344
aI2344
aI2344
aI2344
aI2344
aI2344
aI2344
aI2344
aI2344
aI2344
aI2344
aI2344
aI2344
aI2344
aI2368
aI2376
aI2380
aI2380
aI2380
aI2380
aI2380
aI2380
aI2380
aI2380
aI2380
aI2376
aI2356
aI2356
aI2352
aI2352
aI2352
aI2352
aI2352
aI2352
aI2352
aI2352
aI2352
aI2352
aI2352
aI2352
aI2352
aI2352
aI2352
aI2352
aI2352
aI2352
aI2352
aI2532
aI2492
aI2460
aI2460
aI2460
aI2460
aI2484
aI2484
aI2484
aI2484
aI2484
aI2492
aI2492
aI2492
aI2492
aI2492
aI2492
aI2520
aI2520
aI2520
aI2520
aI2520
aI2520
aI2520
aI2520
aI2544
aI2548
aI2548
aI2568
aI2568
aI2568
aI2568
aI2568
aI2568
aI2568
aI2568
aI2568
aI2568
aI2568
aI2568
aI2568
aI2576
aI2576
aI2576
aI2576
aI2576
aI2576
aI2584
aI2584
aI2584
aI2584
aI2584
aI2588
aI2592
aI2592
aI2596
aI2604
aI2608
aI2608
aI2608
aI2608
aI2608
aI2608
aI2612
aI2612
aI2616
aI2624
aI2632
aI2632
aI2632
aI2632
aI2632
aI2640
aI2644
aI2644
aI2644
aI2644
aI2648
aI2648
aI2648
aI2648
aI2648
aI2648
aI2648
aI2648
aI2648
aI2648
aI2648
aI2648
aI2648
aI2648
aI2648
aI2648
a.(lp0
I1152
aI1140
aI1140
aI1140
aI1148
aI1160
aI1144
aI1144
aI1144
aI1152
aI1152
aI1152
aI1152
aI1152
aI1152
aI1152
aI1152
aI1152
aI1152
aI1152
aI1152
aI1152
aI1152
aI1152
aI1160
aI1160
aI1160
aI1152
aI1152
aI1152
aI1152
aI1144
aI1144
aI1140
aI1140
aI1128
aI1128
aI1120
aI1116
aI1096
aI1096
aI1092
aI1080
aI1080
aI1076
aI1076
aI1072
aI1060
aI1060
aI1040
aI1036
aI1036
aI1036
aI1036
aI1036
aI1028
aI1024
aI1024
aI1020
aI1020
aI1020
aI1020
aI1020
aI1020
aI1012
aI1012
aI1012
aI1020
aI1044
aI1036
aI1024
aI1024
aI1024
aI1020
aI1020
aI1020
aI1020
aI1020
aI1028
aI1032
aI1032
aI1032
aI1036
aI1040
aI1040
aI1040
aI1040
aI1040
aI1040
aI1040
aI1040
aI1040
aI1040
aI1040
aI1040
aI1040
aI1056
aI1068
aI1068
aI1080
aI1088
aI1104
aI1112
aI1120
aI1120
aI1148
aI1152
aI1152
aI1152
aI1152
aI1152
aI1156
aI1156
aI1160
aI1176
aI1176
aI1188
aI1196
aI1200
aI1204
aI1208
aI1236
aI1244
aI1244
aI1244
aI1244
aI1244
aI1244
aI1244
aI1244
aI1244
aI1244
aI1244
aI1244
aI1260
aI1276
aI1280
aI1284
aI1292
aI1292
aI1296
aI1300
aI1308
aI1312
aI1312
aI1344
aI1364
aI1384
aI1412
aI1416
aI1424
aI1432
aI1436
aI1444
aI1452
aI1464
aI1468
aI1468
aI1468
aI1468
aI1468
aI1468
aI1468
aI1468
aI1468
aI1452
aI1452
aI1452
aI1452
aI1448
aI1448
aI1448
aI1448
aI1448
aI1448
aI1448
aI1448
aI1448
aI1464
aI1468
aI1476
aI1476
aI1484
aI1492
aI1492
aI1492
aI1492
aI1492
aI1492
aI1492
aI1492
aI1492
aI1492
aI1492
aI1492
aI1492
aI1492
aI1492
aI1492
aI1508
aI1524
aI1528
aI1528
aI1528
aI1528
aI1528
aI1528
aI1528
aI1528
aI1528
aI1536
aI1568
aI1568
aI1568
aI1588
aI1608
aI1612
aI1612
aI1612
aI1612
aI1612
aI1612
aI1612
aI1612
aI1612
aI1612
aI1612
aI1612
aI1612
aI1612
aI1620
aI1620
aI1868
aI1792
aI1696
aI1696
aI1696
aI1696
aI1704
aI1708
aI1708
aI1708
aI1708
aI1708
aI1708
aI1708
aI1708
aI1708
aI1708
aI1708
aI1708
aI1708
aI1708
aI1708
aI1708
aI1708
aI1708
aI1700
aI1700
aI1700
aI1692
aI1692
aI1692
aI1692
aI1692
aI1692
aI1692
aI1692
aI1692
aI1692
aI1692
aI1692
aI1692
aI1700
aI1700
aI1700
aI1700
aI1700
aI1692
aI1684
aI1680
aI1680
aI1680
aI1680
aI1672
aI1664
aI1664
aI1656
aI1652
aI1648
aI1648
aI1648
aI1648
aI1648
aI1648
aI1644
aI1644
aI1640
aI1628
aI1620
aI1620
aI1620
aI1620
aI1620
aI1608
aI1604
aI1604
aI1604
aI1604
aI1596
aI1596
aI1572
aI1568
aI1564
aI1560
aI1560
aI1560
aI1560
aI1560
aI1560
aI1560
aI1560
aI1560
aI1560
aI1560
a.