(lp0
I1921
aI1922
aI1923
aI1924
aI1925
aI1926
aI1927
aI1928
aI1929
aI1930
aI1931
aI1932
aI1933
aI1934
aI1935
aI1936
aI1937
aI1938
aI1939
aI1940
aI1941
aI1942
aI1943
aI1944
aI1945
aI1946
aI1947
aI1948
aI1949
aI1950
aI1951
aI1952
aI1953
aI1954
aI1955
aI1956
aI1957
aI1958
aI1959
aI1960
aI1961
aI1962
aI1963
aI1964
aI1965
aI1966
aI1967
aI1968
aI1969
aI1970
aI1971
aI1972
aI1973
aI1974
aI1975
aI1976
aI1977
aI1978
aI1979
aI1980
aI1981
aI1982
aI1983
aI1984
aI1985
aI1986
aI1987
aI1988
aI1989
aI1990
aI1991
aI1992
aI1993
aI1994
aI1995
aI1996
aI1997
aI1998
aI1999
aI2000
aI2001
aI2002
aI2003
aI2004
aI2005
aI2006
aI2007
aI2008
aI2009
aI2010
aI2011
aI2012
aI2013
aI2014
aI2015
aI2016
aI2017
aI2018
aI2019
aI2020
aI2021
aI2022
aI2023
aI2024
aI2025
aI2026
aI2027
aI2028
aI2029
aI2030
aI2031
aI2032
aI2033
aI2034
aI2035
aI2036
aI2037
aI2038
aI2039
aI2040
aI2041
aI2042
aI2043
aI2044
aI2045
aI2046
aI2047
aI2048
aI2049
aI2050
aI2051
aI2052
aI2053
aI2054
aI2055
aI2056
aI2057
aI2058
aI2059
aI2060
aI2061
a.(lp0
I1748
aI1748
aI1752
aI1756
aI1768
aI1768
aI1768
aI1768
aI1772
aI1772
aI1768
aI1736
aI1732
aI1744
aI1744
aI1744
aI1756
aI1800
aI1808
aI1808
aI1808
aI1808
aI1808
aI1808
aI1808
aI1812
aI1824
aI1824
aI1828
aI1832
aI1832
aI1832
aI1852
aI1852
aI1852
aI1868
aI1876
aI1876
aI1876
aI1884
aI1884
aI1888
aI1892
aI1892
aI1892
aI1892
aI1892
aI1896
aI1900
aI1900
aI1892
aI1892
aI1892
aI1892
aI1892
aI1892
aI1892
aI1928
aI1932
aI1920
aI1916
aI1912
aI1912
aI1912
aI1908
aI1904
aI1904
aI1904
aI1900
aI1896
aI1896
aI1896
aI1900
aI1900
aI1900
aI1900
aI1896
aI1896
aI1896
aI1896
aI1896
aI1896
aI1896
aI1904
aI1904
aI1904
aI1904
aI1904
aI1904
aI1904
aI1904
aI1904
aI1904
aI1904
aI1904
aI1904
aI1904
aI1904
aI1904
aI1904
aI1904
aI1904
aI1896
aI1896
aI1896
aI1896
aI1896
aI1896
aI1908
aI1916
aI1916
aI1916
aI1916
aI1916
aI1916
aI1916
aI1916
aI1916
aI1916
aI1916
aI1916
aI1916
aI1916
aI1916
aI1916
aI1916
aI1916
aI1916
aI1920
aI1920
aI1920
aI1920
aI1920
aI1924
aI1924
aI1924
aI1924
aI1924
aI1924
aI1924
aI1928
a.(lp0
I928
aI928
aI928
aI928
aI948
aI960
aI972
aI972
aI972
aI972
aI976
aI976
aI976
aI980
aI1000
aI1012
aI1032
aI1052
aI1060
aI1060
aI1060
aI1060
aI1060
aI1060
aI1060
aI1060
aI1064
aI1064
aI1092
aI1092
aI1092
aI1092
aI1084
aI1080
aI1080
aI1108
aI1120
aI1120
aI1120
aI1120
aI1120
aI1120
aI1116
aI1116
aI1112
aI1112
aI1104
aI1096
aI1088
aI1088
aI1088
aI1088
aI1088
aI1088
aI1088
aI1084
aI1080
aI1068
aI1068
aI1064
aI1064
aI1064
aI1064
aI1064
aI1068
aI1080
aI1080
aI1080
aI1064
aI1056
aI1056
aI1052
aI1048
aI1048
aI1048
aI1048
aI1044
aI1044
aI1036
aI1032
aI1032
aI1032
aI1032
aI1028
aI1028
aI1028
aI1028
aI1028
aI1028
aI1028
aI1020
aI1016
aI1016
aI1012
aI1004
aI1004
aI1004
aI1004
aI1004
aI1004
aI1004
aI1004
aI1004
aI1004
aI1004
aI1004
aI1004
aI1004
aI1004
aI1004
aI1004
aI1004
aI1004
aI1004
aI1004
aI1004
aI1004
aI1012
aI1012
aI1016
aI1020
aI1020
aI1020
aI1020
aI1020
aI1020
aI1020
aI1020
aI1036
aI1036
aI1036
aI1036
aI1036
aI1036
aI1036
aI1036
aI1036
aI1036
aI1036
aI1036
aI1036
a.