(lp0
I9291
aI9292
aI9293
aI9294
aI9295
aI9296
aI9297
aI9298
aI9299
aI9300
aI9301
aI9302
aI9303
aI9304
aI9305
aI9306
aI9307
aI9308
aI9309
aI9310
aI9311
aI9312
aI9313
aI9314
aI9315
aI9316
aI9317
aI9318
aI9319
aI9320
aI9321
aI9322
aI9323
aI9324
aI9325
aI9326
aI9327
aI9328
aI9329
aI9330
aI9331
aI9332
aI9333
aI9334
aI9335
aI9336
aI9337
aI9338
aI9339
aI9340
aI9341
aI9342
aI9343
aI9344
aI9345
aI9346
aI9347
aI9348
aI9349
aI9350
aI9351
aI9352
aI9353
aI9354
aI9355
aI9356
aI9357
aI9358
aI9359
aI9360
aI9361
aI9362
aI9363
aI9364
aI9365
aI9366
aI9367
aI9368
aI9369
aI9370
aI9371
aI9372
aI9373
aI9374
aI9375
aI9376
aI9377
aI9378
aI9379
aI9380
aI9381
aI9382
aI9383
aI9384
aI9385
aI9386
aI9387
aI9388
aI9389
aI9390
aI9391
aI9392
aI9393
aI9394
aI9395
aI9396
aI9397
aI9398
aI9399
aI9400
aI9401
aI9402
aI9403
aI9404
aI9405
aI9406
aI9407
aI9408
aI9409
aI9410
aI9411
aI9412
aI9413
aI9414
aI9415
aI9416
aI9417
aI9418
aI9419
aI9420
aI9421
aI9422
aI9423
aI9424
aI9425
aI9426
aI9427
aI9428
aI9429
aI9430
aI9431
aI9432
aI9433
aI9434
aI9435
aI9436
aI9437
aI9438
aI9439
aI9440
aI9441
aI9442
aI9443
aI9444
aI9445
aI9446
aI9447
aI9448
aI9449
aI9450
aI9451
aI9452
aI9453
aI9454
aI9455
aI9456
aI9457
aI9458
aI9459
aI9460
aI9461
aI9462
aI9463
aI9464
aI9465
aI9466
aI9467
aI9468
aI9469
aI9470
aI9471
aI9472
aI9473
aI9474
aI9475
aI9476
aI9477
aI9478
aI9479
aI9480
aI9481
aI9482
aI9483
aI9484
aI9485
aI9486
aI9487
aI9488
aI9489
aI9490
aI9491
aI9492
aI9493
aI9494
aI9495
aI9496
aI9497
aI9498
aI9499
aI9500
aI9501
aI9502
aI9503
aI9504
aI9505
aI9506
aI9507
aI9508
aI9509
aI9510
aI9511
aI9512
aI9513
aI9514
aI9515
aI9516
aI9517
aI9518
aI9519
aI9520
aI9521
aI9522
aI9523
aI9524
aI9525
aI9526
aI9527
aI9528
aI9529
aI9530
aI9531
aI9532
aI9533
aI9534
aI9535
aI9536
aI9537
aI9538
aI9539
aI9540
aI9541
aI9542
aI9543
aI9544
aI9545
aI9546
aI9547
aI9548
aI9549
aI9550
aI9551
aI9552
aI9553
aI9554
aI9555
aI9556
aI9557
aI9558
aI9559
aI9560
aI9561
aI9562
aI9563
aI9564
aI9565
aI9566
aI9567
aI9568
aI9569
aI9570
aI9571
aI9572
aI9573
aI9574
aI9575
aI9576
aI9577
aI9578
aI9579
aI9580
aI9581
aI9582
aI9583
aI9584
aI9585
aI9586
aI9587
aI9588
aI9589
aI9590
aI9591
aI9592
aI9593
aI9594
aI9595
aI9596
aI9597
aI9598
aI9599
aI9600
aI9601
aI9602
aI9603
aI9604
aI9605
aI9606
aI9607
aI9608
aI9609
aI9610
aI9611
aI9612
aI9613
aI9614
aI9615
aI9616
aI9617
aI9618
aI9619
aI9620
aI9621
aI9622
aI9623
aI9624
aI9625
aI9626
aI9627
aI9628
aI9629
aI9630
aI9631
aI9632
aI9633
aI9634
aI9635
aI9636
aI9637
aI9638
aI9639
aI9640
aI9641
aI9642
aI9643
aI9644
aI9645
aI9646
aI9647
aI9648
aI9649
aI9650
aI9651
aI9652
aI9653
aI9654
aI9655
aI9656
aI9657
aI9658
aI9659
aI9660
aI9661
aI9662
aI9663
aI9664
aI9665
aI9666
aI9667
aI9668
aI9669
aI9670
aI9671
aI9672
aI9673
aI9674
aI9675
aI9676
aI9677
aI9678
aI9679
aI9680
aI9681
aI9682
aI9683
aI9684
aI9685
aI9686
aI9687
aI9688
aI9689
aI9690
aI9691
aI9692
aI9693
aI9694
aI9695
aI9696
aI9697
aI9698
aI9699
aI9700
aI9701
aI9702
aI9703
aI9704
aI9705
aI9706
aI9707
aI9708
aI9709
aI9710
aI9711
aI9712
aI9713
aI9714
aI9715
aI9716
aI9717
aI9718
aI9719
aI9720
aI9721
aI9722
aI9723
aI9724
aI9725
aI9726
aI9727
aI9728
aI9729
aI9730
aI9731
aI9732
aI9733
aI9734
aI9735
aI9736
aI9737
aI9738
aI9739
aI9740
aI9741
aI9742
aI9743
aI9744
aI9745
aI9746
aI9747
aI9748
aI9749
aI9750
aI9751
aI9752
aI9753
aI9754
aI9755
aI9756
aI9757
aI9758
aI9759
aI9760
aI9761
aI9762
aI9763
aI9764
aI9765
aI9766
aI9767
aI9768
aI9769
aI9770
aI9771
aI9772
aI9773
aI9774
aI9775
aI9776
aI9777
aI9778
aI9779
aI9780
aI9781
aI9782
aI9783
aI9784
aI9785
aI9786
aI9787
aI9788
aI9789
aI9790
aI9791
aI9792
aI9793
aI9794
aI9795
aI9796
aI9797
aI9798
aI9799
aI9800
aI9801
aI9802
aI9803
aI9804
aI9805
aI9806
aI9807
aI9808
aI9809
aI9810
aI9811
aI9812
aI9813
aI9814
aI9815
aI9816
aI9817
aI9818
aI9819
aI9820
aI9821
aI9822
aI9823
aI9824
aI9825
aI9826
aI9827
aI9828
aI9829
aI9830
aI9831
aI9832
aI9833
aI9834
aI9835
aI9836
aI9837
aI9838
aI9839
aI9840
aI9841
aI9842
aI9843
aI9844
aI9845
aI9846
aI9847
aI9848
aI9849
aI9850
aI9851
aI9852
aI9853
aI9854
aI9855
aI9856
aI9857
aI9858
aI9859
aI9860
aI9861
aI9862
aI9863
aI9864
aI9865
aI9866
aI9867
aI9868
aI9869
aI9870
aI9871
aI9872
aI9873
aI9874
aI9875
aI9876
aI9877
aI9878
aI9879
aI9880
aI9881
aI9882
aI9883
aI9884
aI9885
aI9886
aI9887
aI9888
aI9889
aI9890
aI9891
aI9892
aI9893
aI9894
aI9895
aI9896
aI9897
aI9898
aI9899
aI9900
aI9901
aI9902
aI9903
aI9904
aI9905
aI9906
aI9907
aI9908
aI9909
aI9910
aI9911
aI9912
aI9913
aI9914
aI9915
aI9916
aI9917
aI9918
aI9919
aI9920
aI9921
aI9922
aI9923
aI9924
aI9925
aI9926
aI9927
aI9928
aI9929
aI9930
aI9931
aI9932
aI9933
aI9934
aI9935
aI9936
aI9937
aI9938
aI9939
aI9940
aI9941
aI9942
aI9943
aI9944
aI9945
aI9946
aI9947
aI9948
aI9949
aI9950
aI9951
aI9952
aI9953
aI9954
aI9955
aI9956
aI9957
aI9958
aI9959
aI9960
aI9961
aI9962
aI9963
aI9964
aI9965
aI9966
aI9967
aI9968
aI9969
aI9970
aI9971
aI9972
aI9973
aI9974
aI9975
aI9976
aI9977
aI9978
aI9979
aI9980
aI9981
aI9982
aI9983
aI9984
aI9985
aI9986
aI9987
aI9988
aI9989
aI9990
aI9991
aI9992
aI9993
aI9994
aI9995
aI9996
aI9997
aI9998
aI9999
aI10000
aI10001
aI10002
aI10003
aI10004
aI10005
aI10006
aI10007
aI10008
aI10009
aI10010
aI10011
aI10012
aI10013
aI10014
aI10015
aI10016
aI10017
aI10018
aI10019
aI10020
aI10021
aI10022
aI10023
aI10024
aI10025
aI10026
aI10027
aI10028
aI10029
aI10030
aI10031
aI10032
aI10033
aI10034
aI10035
aI10036
aI10037
aI10038
aI10039
aI10040
aI10041
aI10042
aI10043
aI10044
aI10045
aI10046
aI10047
aI10048
aI10049
aI10050
aI10051
aI10052
aI10053
aI10054
aI10055
aI10056
aI10057
aI10058
aI10059
aI10060
aI10061
aI10062
aI10063
aI10064
aI10065
aI10066
aI10067
aI10068
aI10069
aI10070
aI10071
aI10072
aI10073
aI10074
aI10075
aI10076
aI10077
aI10078
aI10079
aI10080
aI10081
aI10082
aI10083
aI10084
aI10085
aI10086
aI10087
aI10088
aI10089
aI10090
aI10091
aI10092
aI10093
aI10094
aI10095
aI10096
aI10097
aI10098
aI10099
aI10100
aI10101
aI10102
aI10103
aI10104
aI10105
aI10106
aI10107
aI10108
aI10109
aI10110
aI10111
aI10112
aI10113
aI10114
aI10115
aI10116
aI10117
aI10118
aI10119
aI10120
aI10121
aI10122
aI10123
aI10124
aI10125
aI10126
aI10127
aI10128
aI10129
aI10130
aI10131
aI10132
aI10133
aI10134
aI10135
aI10136
aI10137
aI10138
aI10139
aI10140
aI10141
aI10142
aI10143
aI10144
aI10145
aI10146
aI10147
aI10148
aI10149
aI10150
aI10151
aI10152
aI10153
aI10154
aI10155
aI10156
aI10157
aI10158
aI10159
aI10160
aI10161
aI10162
aI10163
aI10164
aI10165
aI10166
aI10167
aI10168
aI10169
aI10170
aI10171
aI10172
aI10173
aI10174
aI10175
aI10176
aI10177
aI10178
aI10179
aI10180
aI10181
aI10182
aI10183
aI10184
aI10185
aI10186
aI10187
aI10188
aI10189
aI10190
aI10191
aI10192
aI10193
aI10194
aI10195
aI10196
aI10197
aI10198
aI10199
aI10200
aI10201
aI10202
aI10203
aI10204
aI10205
aI10206
aI10207
aI10208
aI10209
aI10210
aI10211
aI10212
aI10213
aI10214
aI10215
aI10216
aI10217
aI10218
aI10219
aI10220
aI10221
aI10222
aI10223
aI10224
aI10225
aI10226
aI10227
aI10228
aI10229
aI10230
aI10231
aI10232
aI10233
aI10234
aI10235
aI10236
aI10237
aI10238
aI10239
aI10240
aI10241
aI10242
aI10243
aI10244
aI10245
aI10246
aI10247
aI10248
aI10249
aI10250
aI10251
aI10252
aI10253
aI10254
aI10255
aI10256
aI10257
aI10258
aI10259
aI10260
aI10261
aI10262
aI10263
aI10264
aI10265
aI10266
aI10267
aI10268
aI10269
aI10270
aI10271
aI10272
aI10273
aI10274
aI10275
aI10276
aI10277
aI10278
aI10279
aI10280
aI10281
aI10282
aI10283
aI10284
aI10285
aI10286
aI10287
aI10288
aI10289
aI10290
aI10291
aI10292
aI10293
aI10294
aI10295
aI10296
aI10297
aI10298
aI10299
aI10300
aI10301
aI10302
aI10303
aI10304
aI10305
aI10306
aI10307
aI10308
aI10309
aI10310
aI10311
aI10312
aI10313
aI10314
aI10315
aI10316
aI10317
aI10318
aI10319
aI10320
aI10321
aI10322
aI10323
aI10324
aI10325
aI10326
aI10327
aI10328
aI10329
aI10330
aI10331
aI10332
aI10333
aI10334
aI10335
aI10336
aI10337
aI10338
aI10339
aI10340
aI10341
aI10342
aI10343
aI10344
aI10345
aI10346
aI10347
aI10348
aI10349
aI10350
aI10351
aI10352
aI10353
aI10354
aI10355
aI10356
aI10357
aI10358
aI10359
aI10360
aI10361
aI10362
aI10363
aI10364
aI10365
aI10366
aI10367
aI10368
aI10369
aI10370
aI10371
aI10372
aI10373
aI10374
aI10375
aI10376
aI10377
aI10378
aI10379
aI10380
aI10381
aI10382
aI10383
aI10384
aI10385
aI10386
aI10387
aI10388
aI10389
aI10390
aI10391
aI10392
aI10393
aI10394
aI10395
aI10396
aI10397
aI10398
aI10399
aI10400
aI10401
aI10402
aI10403
aI10404
aI10405
aI10406
aI10407
aI10408
aI10409
aI10410
aI10411
aI10412
aI10413
aI10414
aI10415
aI10416
aI10417
aI10418
aI10419
aI10420
aI10421
aI10422
aI10423
aI10424
aI10425
aI10426
aI10427
aI10428
aI10429
aI10430
aI10431
aI10432
aI10433
aI10434
aI10435
aI10436
aI10437
aI10438
aI10439
aI10440
aI10441
aI10442
aI10443
aI10444
aI10445
aI10446
aI10447
aI10448
aI10449
aI10450
aI10451
aI10452
aI10453
aI10454
aI10455
aI10456
aI10457
aI10458
aI10459
aI10460
aI10461
aI10462
aI10463
aI10464
aI10465
aI10466
aI10467
a.(lp0
I1714
aI1714
aI1714
aI1714
aI1728
aI1733
aI1739
aI1755
aI1755
aI1755
aI1755
aI1755
aI1763
aI1784
aI1784
aI1784
aI1784
aI1801
aI1801
aI1809
aI1822
aI1830
aI1830
aI1836
aI1838
aI1838
aI1847
aI1847
aI1847
aI1847
aI1865
aI1865
aI1865
aI1868
aI1868
aI1868
aI1868
aI1882
aI1890
aI1890
aI1892
aI1892
aI1901
aI1909
aI1922
aI1928
aI1928
aI1928
aI1938
aI1938
aI1941
aI1947
aI1957
aI1960
aI1960
aI1960
aI1960
aI1960
aI1960
aI1960
aI1960
aI1960
aI1963
aI1963
aI1971
aI1971
aI1971
aI1974
aI1976
aI1976
aI1976
aI1976
aI1976
aI1976
aI1976
aI1976
aI1987
aI1987
aI1990
aI1992
aI1992
aI1992
aI1998
aI2006
aI2009
aI2011
aI2014
aI2014
aI2014
aI2014
aI2014
aI2014
aI2014
aI2019
aI2019
aI2030
aI2036
aI2041
aI2044
aI2044
aI2044
aI2019
aI2014
aI2011
aI2011
aI2011
aI1995
aI1998
aI2006
aI1987
aI1971
aI1971
aI1971
aI1971
aI1960
aI1947
aI1938
aI1938
aI1938
aI1938
aI1920
aI1914
aI1914
aI1914
aI1909
aI1906
aI1906
aI1906
aI1906
aI1906
aI1906
aI1906
aI1906
aI1906
aI1906
aI1906
aI1917
aI1917
aI1917
aI1917
aI1917
aI1917
aI1917
aI1917
aI1917
aI1909
aI1876
aI1874
aI1871
aI1855
aI1852
aI1841
aI1809
aI1852
aI1852
aI1852
aI1809
aI1803
aI1803
aI1803
aI1803
aI1803
aI1793
aI1790
aI1798
aI1798
aI1793
aI1793
aI1793
aI1793
aI1787
aI1779
aI1779
aI1779
aI1779
aI1779
aI1784
aI1795
aI1806
aI1822
aI1825
aI1825
aI1825
aI1825
aI1836
aI1836
aI1836
aI1838
aI1844
aI1844
aI1838
aI1838
aI1838
aI1838
aI1838
aI1838
aI1844
aI1852
aI1852
aI1855
aI1863
aI1863
aI1863
aI1863
aI1863
aI1865
aI1868
aI1874
aI1874
aI1874
aI1874
aI1874
aI1895
aI1925
aI1925
aI1925
aI1925
aI1925
aI1925
aI1925
aI1928
aI1928
aI1938
aI1941
aI1941
aI1941
aI1955
aI1987
aI1987
aI1987
aI1987
aI1987
aI1987
aI1982
aI1992
aI1995
aI2011
aI2019
aI2030
aI2030
aI2030
aI2030
aI2030
aI2030
aI2044
aI2063
aI2068
aI2073
aI2073
aI2076
aI2090
aI2106
aI2106
aI2106
aI2106
aI2106
aI2133
aI2136
aI2136
aI2141
aI2149
aI2152
aI2152
aI2152
aI2152
aI2165
aI2160
aI2160
aI2154
aI2149
aI2149
aI2149
aI2149
aI2149
aI2149
aI2157
aI2171
aI2171
aI2171
aI2195
aI2195
aI2195
aI2187
aI2171
aI2171
aI2171
aI2171
aI2171
aI2171
aI2171
aI2171
aI2171
aI2171
aI2176
aI2179
aI2179
aI2179
aI2179
aI2179
aI2184
aI2195
aI2198
aI2198
aI2176
aI2157
aI2157
aI2157
aI2157
aI2130
aI2122
aI2122
aI2122
aI2117
aI2114
aI2114
aI2114
aI2103
aI2103
aI2103
aI2103
aI2100
aI2100
aI2098
aI2098
aI2079
aI2084
aI2084
aI2084
aI2084
aI2084
aI2084
aI2084
aI2084
aI2084
aI2071
aI2071
aI2071
aI2071
aI2071
aI2071
aI2071
aI2028
aI2025
aI2025
aI2025
aI2025
aI2025
aI2025
aI2044
aI2044
aI2044
aI2044
aI2044
aI2044
aI2044
aI2044
aI2044
aI2044
aI2044
aI2033
aI2028
aI2028
aI2028
aI2028
aI2028
aI2028
aI2028
aI2028
aI2025
aI2025
aI2017
aI2017
aI2017
aI2011
aI2011
aI2028
aI2028
aI2028
aI2028
aI2028
aI2028
aI2028
aI2028
aI2028
aI2028
aI2028
aI2028
aI2028
aI2028
aI2019
aI2009
aI2006
aI2006
aI2006
aI2006
aI2006
aI2006
aI2006
aI2006
aI2006
aI2014
aI2033
aI2033
aI2022
aI2011
aI2006
aI1995
aI1992
aI1992
aI1992
aI1992
aI1992
aI1992
aI1992
aI1992
aI1990
aI1987
aI1984
aI1979
aI1979
aI1979
aI1979
aI1979
aI1968
aI1965
aI1960
aI1955
aI1947
aI1947
aI1944
aI1944
aI1944
aI1944
aI1944
aI1944
aI1944
aI1944
aI1944
aI1944
aI1944
aI1944
aI1944
aI1944
aI1944
aI1944
aI1928
aI1928
aI1928
aI1928
aI1925
aI1925
aI1925
aI1925
aI1925
aI1925
aI1911
aI1906
aI1892
aI1882
aI1876
aI1884
aI1884
aI1879
aI1876
aI1874
aI1857
aI1857
aI1857
aI1857
aI1855
aI1852
aI1838
aI1838
aI1838
aI1838
aI1838
aI1838
aI1838
aI1838
aI1838
aI1838
aI1847
aI1849
aI1852
aI1852
aI1852
aI1841
aI1841
aI1841
aI1841
aI1836
aI1830
aI1828
aI1828
aI1828
aI1828
aI1828
aI1828
aI1828
aI1809
aI1806
aI1814
aI1809
aI1806
aI1806
aI1806
aI1798
aI1798
aI1798
aI1798
aI1798
aI1798
aI1798
aI1795
aI1795
aI1795
aI1795
aI1793
aI1793
aI1793
aI1793
aI1790
aI1790
aI1790
aI1790
aI1790
aI1790
aI1790
aI1790
aI1790
aI1790
aI1795
aI1795
aI1795
aI1795
aI1795
aI1795
aI1795
aI1795
aI1795
aI1795
aI1795
aI1795
aI1795
aI1787
aI1787
aI1787
aI1787
aI1787
aI1787
aI1787
aI1787
aI1787
aI1787
aI1787
aI1768
aI1768
aI1768
aI1787
aI1790
aI1790
aI1779
aI1768
aI1768
aI1768
aI1768
aI1768
aI1768
aI1768
aI1768
aI1768
aI1768
aI1768
aI1768
aI1779
aI1779
aI1779
aI1779
aI1779
aI1787
aI1790
aI1793
aI1795
aI1798
aI1801
aI1801
aI1801
aI1801
aI1801
aI1803
aI1809
aI1811
aI1814
aI1825
aI1828
aI1828
aI1828
aI1828
aI1822
aI1822
aI1822
aI1836
aI1836
aI1836
aI1836
aI1836
aI1836
aI1836
aI1836
aI1836
aI1836
aI1836
aI1836
aI1836
aI1836
aI1838
aI1849
aI1849
aI1849
aI1849
aI1849
aI1849
aI1849
aI1849
aI1852
aI1857
aI1857
aI1852
aI1852
aI1852
aI1852
aI1852
aI1852
aI1852
aI1857
aI1857
aI1857
aI1857
aI1857
aI1868
aI1884
aI1890
aI1890
aI1890
aI1890
aI1890
aI1890
aI1884
aI1884
aI1884
aI1884
aI1884
aI1884
aI1890
aI1890
aI1890
aI1876
aI1876
aI1876
aI1876
aI1860
aI1855
aI1855
aI1849
aI1833
aI1833
aI1833
aI1811
aI1811
aI1811
aI1809
aI1801
aI1795
aI1795
aI1793
aI1790
aI1784
aI1784
aI1782
aI1779
aI1771
aI1749
aI1749
aI1749
aI1749
aI1749
aI1728
aI1725
aI1725
aI1725
aI1739
aI1744
aI1744
aI1744
aI1795
aI1782
aI1763
aI1784
aI1801
aI1801
aI1801
aI1801
aI1801
aI1801
aI1801
aI1779
aI1776
aI1771
aI1768
aI1768
aI1768
aI1768
aI1768
aI1749
aI1749
aI1749
aI1722
aI1722
aI1722
aI1728
aI1728
aI1728
aI1739
aI1744
aI1744
aI1747
aI1749
aI1752
aI1766
aI1768
aI1771
aI1771
aI1771
aI1774
aI1776
aI1776
aI1776
aI1790
aI1795
aI1801
aI1801
aI1801
aI1801
aI1801
aI1801
aI1801
aI1801
aI1803
aI1811
aI1811
aI1811
aI1841
aI1841
aI1841
aI1836
aI1836
aI1852
aI1865
aI1865
aI1865
aI1868
aI1871
aI1874
aI1879
aI1887
aI1901
aI1911
aI1917
aI1944
aI1949
aI1949
aI1957
aI1957
aI1957
aI1952
aI1949
aI1944
aI1933
aI1920
aI1920
aI1925
aI1928
aI1928
aI1928
aI1928
aI1928
aI1928
aI1928
aI1928
aI1928
aI1930
aI1936
aI1944
aI1944
aI1955
aI1968
aI1979
aI1979
aI1982
aI1982
aI2001
aI2009
aI2009
aI2009
aI2009
aI2014
aI2022
aI2022
aI2022
aI2014
aI2014
aI2014
aI2014
aI2014
aI2014
aI2019
aI2025
aI2025
aI2025
aI2025
aI2017
aI2014
aI2025
aI2038
aI2041
aI2041
aI2041
aI2041
aI2044
aI2044
aI2046
aI2046
aI2046
aI2046
aI2046
aI2046
aI2046
aI2046
aI2046
aI2052
aI2046
aI2052
aI2052
aI2052
aI2052
aI2052
aI2052
aI2052
aI2052
aI2052
aI2046
aI2046
aI2038
aI2041
aI2041
aI2041
aI2133
aI2144
aI2125
aI2119
aI2100
aI2092
aI2092
aI2092
aI2092
aI2090
aI2090
aI2090
aI2090
aI2100
aI2117
aI2117
aI2117
aI2122
aI2127
aI2136
aI2141
aI2146
aI2149
aI2149
aI2149
aI2149
aI2154
aI2154
aI2154
aI2154
aI2157
aI2157
aI2157
aI2160
aI2160
aI2163
aI2171
aI2184
aI2184
aI2184
aI2184
aI2184
aI2184
aI2187
aI2187
aI2187
aI2187
aI2187
aI2187
aI2187
aI2187
aI2187
aI2181
aI2181
aI2187
aI2198
aI2206
aI2206
aI2206
aI2208
aI2208
aI2208
aI2208
aI2208
aI2208
aI2217
aI2217
aI2219
aI2219
aI2219
aI2219
aI2219
aI2219
aI2211
aI2203
aI2200
aI2200
aI2200
aI2200
aI2200
aI2200
aI2200
aI2200
aI2200
aI2217
aI2217
aI2217
aI2217
aI2217
aI2217
aI2235
aI2235
aI2235
aI2235
aI2235
aI2235
aI2235
aI2235
aI2235
aI2235
aI2235
aI2235
aI2230
aI2211
aI2190
aI2190
aI2198
aI2198
aI2198
aI2192
aI2192
aI2184
aI2181
aI2179
aI2168
aI2163
aI2157
aI2152
aI2149
aI2136
aI2122
aI2111
aI2098
aI2092
aI2087
aI2084
aI2073
aI2068
aI2063
aI2046
aI2028
aI2030
aI2025
aI2022
aI2022
aI2022
aI2022
aI2022
aI2022
aI2022
aI1998
aI1992
aI1992
aI2057
aI2057
aI2057
aI2049
aI2022
aI2022
aI2022
aI2022
aI2022
aI2022
aI2022
aI2022
aI2022
aI2022
aI2022
aI2019
aI2017
aI2014
aI2006
aI1990
aI1963
aI1960
aI1960
aI1960
aI1960
aI1960
aI1960
aI1960
aI1976
aI1984
aI1987
aI1987
aI1987
aI1987
aI1987
aI1987
aI1987
aI1987
aI1987
aI1987
aI1990
aI1990
aI1990
aI1990
aI1990
aI1982
aI1979
aI1990
aI1992
aI1995
aI1998
aI1998
aI1998
aI2001
aI2001
aI2003
aI2003
aI2003
aI2003
aI2003
aI1995
aI1995
aI1995
aI1995
aI1995
aI1984
aI1971
aI1971
aI1971
aI1965
aI1963
aI1963
aI1963
aI1963
aI1963
aI1971
aI1974
aI1976
aI1979
aI1979
aI1979
aI1979
aI1979
aI1979
aI1979
aI1979
aI1979
aI1982
aI1984
aI1984
aI1984
aI1987
aI1987
aI1990
aI1992
aI1998
aI1998
aI1998
aI2003
aI2011
aI2014
aI2017
aI2017
aI2019
aI2019
aI2030
aI2038
aI2038
aI2038
aI2046
aI2055
aI2057
aI2090
aI2109
aI2111
aI2111
aI2117
aI2152
aI2152
aI2152
aI2152
aI2152
aI2154
aI2163
aI2165
aI2165
aI2171
aI2171
aI2171
aI2171
aI2171
aI2171
aI2171
aI2171
aI2171
aI2165
aI2152
aI2149
aI2146
aI2138
aI2127
aI2111
aI2106
aI2103
aI2103
aI2103
aI2103
aI2103
aI2103
aI2100
aI2082
aI2071
aI2071
aI2071
aI2071
aI2068
aI2068
aI2068
aI2068
aI2063
aI2057
aI2055
aI2049
aI2044
aI2044
aI2041
aI2041
aI2038
aI2030
aI2028
aI2028
aI2025
aI2017
aI2017
aI2014
aI2011
aI2006
aI2003
a.(lp0
I1341
aI1341
aI1341
aI1341
aI1358
aI1360
aI1366
aI1374
aI1374
aI1374
aI1374
aI1374
aI1377
aI1395
aI1398
aI1404
aI1406
aI1414
aI1414
aI1425
aI1428
aI1431
aI1431
aI1433
aI1433
aI1433
aI1439
aI1439
aI1439
aI1439
aI1439
aI1439
aI1439
aI1439
aI1439
aI1439
aI1439
aI1439
aI1425
aI1425
aI1420
aI1414
aI1406
aI1398
aI1385
aI1379
aI1379
aI1379
aI1371
aI1368
aI1366
aI1358
aI1336
aI1336
aI1336
aI1333
aI1331
aI1331
aI1331
aI1331
aI1331
aI1328
aI1325
aI1323
aI1312
aI1309
aI1309
aI1304
aI1304
aI1304
aI1304
aI1304
aI1304
aI1304
aI1304
aI1304
aI1293
aI1287
aI1285
aI1285
aI1285
aI1285
aI1290
aI1304
aI1317
aI1325
aI1336
aI1339
aI1339
aI1339
aI1339
aI1339
aI1339
aI1341
aI1341
aI1336
aI1312
aI1279
aI1269
aI1252
aI1233
aI1233
aI1242
aI1242
aI1242
aI1242
aI1225
aI1209
aI1182
aI1182
aI1182
aI1182
aI1182
aI1182
aI1174
aI1171
aI1171
aI1171
aI1171
aI1171
aI1161
aI1152
aI1152
aI1152
aI1152
aI1152
aI1152
aI1152
aI1152
aI1152
aI1152
aI1152
aI1152
aI1152
aI1152
aI1152
aI1152
aI1152
aI1152
aI1152
aI1152
aI1152
aI1152
aI1152
aI1152
aI1152
aI1150
aI1147
aI1147
aI1147
aI1147
aI1147
aI1147
aI1152
aI1152
aI1152
aI1139
aI1134
aI1134
aI1134
aI1134
aI1134
aI1142
aI1158
aI1166
aI1169
aI1169
aI1169
aI1169
aI1169
aI1171
aI1174
aI1174
aI1174
aI1174
aI1174
aI1169
aI1163
aI1161
aI1155
aI1152
aI1152
aI1152
aI1152
aI1142
aI1142
aI1142
aI1142
aI1142
aI1142
aI1163
aI1163
aI1163
aI1163
aI1163
aI1163
aI1155
aI1150
aI1150
aI1161
aI1171
aI1182
aI1182
aI1182
aI1182
aI1174
aI1166
aI1161
aI1161
aI1161
aI1161
aI1166
aI1179
aI1185
aI1185
aI1185
aI1185
aI1185
aI1185
aI1185
aI1185
aI1185
aI1171
aI1163
aI1163
aI1163
aI1161
aI1161
aI1166
aI1166
aI1171
aI1171
aI1163
aI1152
aI1150
aI1150
aI1150
aI1150
aI1150
aI1150
aI1150
aI1150
aI1150
aI1150
aI1150
aI1155
aI1155
aI1155
aI1155
aI1163
aI1185
aI1201
aI1201
aI1201
aI1201
aI1201
aI1223
aI1223
aI1223
aI1225
aI1233
aI1236
aI1236
aI1236
aI1236
aI1252
aI1263
aI1263
aI1277
aI1282
aI1282
aI1282
aI1282
aI1282
aI1282
aI1285
aI1298
aI1298
aI1298
aI1290
aI1287
aI1287
aI1285
aI1277
aI1271
aI1271
aI1269
aI1269
aI1269
aI1269
aI1266
aI1263
aI1258
aI1252
aI1247
aI1247
aI1247
aI1247
aI1247
aI1244
aI1233
aI1225
aI1217
aI1212
aI1212
aI1212
aI1212
aI1212
aI1217
aI1220
aI1220
aI1220
aI1236
aI1244
aI1244
aI1244
aI1252
aI1252
aI1252
aI1255
aI1258
aI1269
aI1279
aI1279
aI1325
aI1320
aI1320
aI1320
aI1320
aI1320
aI1320
aI1325
aI1331
aI1331
aI1325
aI1325
aI1325
aI1325
aI1325
aI1325
aI1323
aI1317
aI1317
aI1317
aI1317
aI1317
aI1317
aI1317
aI1293
aI1298
aI1298
aI1298
aI1298
aI1298
aI1298
aI1298
aI1298
aI1285
aI1285
aI1285
aI1260
aI1260
aI1260
aI1260
aI1260
aI1258
aI1255
aI1217
aI1215
aI1215
aI1212
aI1206
aI1204
aI1179
aI1179
aI1206
aI1206
aI1206
aI1206
aI1206
aI1206
aI1206
aI1206
aI1206
aI1206
aI1201
aI1206
aI1206
aI1206
aI1212
aI1215
aI1215
aI1215
aI1215
aI1215
aI1215
aI1215
aI1215
aI1215
aI1215
aI1215
aI1239
aI1242
aI1242
aI1242
aI1236
aI1258
aI1285
aI1287
aI1287
aI1287
aI1287
aI1287
aI1296
aI1298
aI1306
aI1320
aI1323
aI1331
aI1331
aI1331
aI1331
aI1331
aI1350
aI1350
aI1358
aI1366
aI1374
aI1382
aI1398
aI1404
aI1404
aI1404
aI1404
aI1412
aI1412
aI1412
aI1417
aI1417
aI1417
aI1417
aI1417
aI1417
aI1417
aI1417
aI1431
aI1433
aI1433
aI1433
aI1433
aI1436
aI1436
aI1436
aI1436
aI1436
aI1452
aI1455
aI1468
aI1463
aI1452
aI1447
aI1447
aI1447
aI1444
aI1444
aI1444
aI1441
aI1441
aI1441
aI1431
aI1428
aI1417
aI1417
aI1417
aI1417
aI1417
aI1417
aI1417
aI1417
aI1412
aI1393
aI1377
aI1363
aI1358
aI1355
aI1352
aI1347
aI1347
aI1347
aI1347
aI1347
aI1352
aI1352
aI1352
aI1352
aI1352
aI1352
aI1352
aI1352
aI1352
aI1347
aI1341
aI1341
aI1350
aI1350
aI1350
aI1341
aI1341
aI1341
aI1341
aI1341
aI1341
aI1341
aI1350
aI1350
aI1350
aI1350
aI1350
aI1350
aI1350
aI1350
aI1339
aI1339
aI1339
aI1339
aI1339
aI1339
aI1339
aI1339
aI1350
aI1358
aI1360
aI1360
aI1360
aI1360
aI1360
aI1360
aI1371
aI1371
aI1371
aI1371
aI1371
aI1371
aI1371
aI1385
aI1385
aI1385
aI1385
aI1385
aI1385
aI1385
aI1385
aI1385
aI1385
aI1385
aI1406
aI1409
aI1409
aI1387
aI1385
aI1385
aI1393
aI1406
aI1406
aI1406
aI1406
aI1417
aI1417
aI1417
aI1417
aI1417
aI1417
aI1417
aI1420
aI1439
aI1444
aI1460
aI1471
aI1476
aI1479
aI1485
aI1495
aI1512
aI1525
aI1528
aI1528
aI1530
aI1533
aI1533
aI1544
aI1563
aI1582
aI1595
aI1614
aI1620
aI1622
aI1628
aI1644
aI1657
aI1660
aI1660
aI1671
aI1674
aI1674
aI1674
aI1674
aI1674
aI1690
aI1690
aI1690
aI1703
aI1714
aI1714
aI1714
aI1714
aI1703
aI1687
aI1687
aI1687
aI1687
aI1687
aI1687
aI1687
aI1687
aI1682
aI1671
aI1671
aI1660
aI1644
aI1641
aI1641
aI1641
aI1641
aI1636
aI1617
aI1601
aI1598
aI1598
aI1598
aI1593
aI1587
aI1584
aI1584
aI1584
aI1576
aI1574
aI1574
aI1574
aI1574
aI1571
aI1568
aI1557
aI1536
aI1517
aI1517
aI1517
aI1517
aI1517
aI1517
aI1517
aI1512
aI1509
aI1509
aI1509
aI1490
aI1487
aI1487
aI1476
aI1474
aI1474
aI1474
aI1458
aI1449
aI1449
aI1447
aI1422
aI1401
aI1401
aI1401
aI1398
aI1393
aI1368
aI1368
aI1366
aI1366
aI1358
aI1333
aI1333
aI1333
aI1333
aI1312
aI1304
aI1304
aI1304
aI1277
aI1287
aI1293
aI1271
aI1260
aI1260
aI1260
aI1260
aI1260
aI1260
aI1255
aI1239
aI1228
aI1212
aI1204
aI1204
aI1204
aI1204
aI1204
aI1182
aI1182
aI1179
aI1147
aI1144
aI1144
aI1131
aI1128
aI1128
aI1123
aI1123
aI1123
aI1120
aI1109
aI1104
aI1098
aI1096
aI1093
aI1093
aI1093
aI1082
aI1074
aI1074
aI1074
aI1061
aI1058
aI1055
aI1053
aI1053
aI1053
aI1050
aI1050
aI1050
aI1050
aI1047
aI1042
aI1039
aI1039
aI1080
aI1080
aI1088
aI1101
aI1101
aI1101
aI1104
aI1128
aI1131
aI1131
aI1136
aI1144
aI1150
aI1152
aI1161
aI1171
aI1171
aI1177
aI1179
aI1182
aI1185
aI1185
aI1185
aI1201
aI1209
aI1217
aI1220
aI1196
aI1196
aI1196
aI1196
aI1196
aI1201
aI1201
aI1201
aI1201
aI1206
aI1212
aI1215
aI1215
aI1204
aI1188
aI1188
aI1179
aI1163
aI1158
aI1158
aI1152
aI1152
aI1134
aI1128
aI1128
aI1128
aI1128
aI1123
aI1115
aI1112
aI1112
aI1112
aI1112
aI1112
aI1104
aI1090
aI1088
aI1077
aI1061
aI1058
aI1055
aI1053
aI1047
aI1031
aI1017
aI1015
aI1015
aI1015
aI1009
aI999
aI990
aI990
aI1012
aI1012
aI1004
aI996
aI996
aI990
aI990
aI990
aI990
aI980
aI969
aI969
aI969
aI966
aI966
aI966
aI966
aI966
aI966
aI966
aI947
aI931
aI920
aI912
aI912
aI912
aI853
aI823
aI847
aI850
aI858
aI858
aI858
aI858
aI858
aI839
aI837
aI837
aI837
aI828
aI818
aI818
aI818
aI810
aI807
aI791
aI785
aI774
aI774
aI774
aI774
aI774
aI783
aI785
aI785
aI785
aI772
aI764
aI750
aI745
aI742
aI734
aI723
aI715
aI715
aI715
aI715
aI712
aI718
aI712
aI707
aI707
aI704
aI693
aI693
aI693
aI685
aI680
aI680
aI680
aI661
aI645
aI634
aI634
aI634
aI621
aI610
aI610
aI610
aI610
aI610
aI596
aI585
aI564
aI553
aI540
aI531
aI529
aI529
aI521
aI510
aI504
aI504
aI504
aI504
aI504
aI496
aI494
aI494
aI494
aI477
aI477
aI477
aI477
aI477
aI477
aI467
aI467
aI464
aI464
aI464
aI464
aI464
aI464
aI472
aI472
aI472
aI472
aI491
aI515
aI542
aI548
aI591
aI594
aI612
aI618
aI618
aI653
aI656
aI680
aI715
aI729
aI753
aI777
aI793
aI828
aI858
aI885
aI912
aI926
aI936
aI950
aI977
aI990
aI1009
aI1031
aI1050
aI1061
aI1098
aI1161
aI1166
aI1166
aI1166
aI1166
aI1166
aI1166
aI1158
aI1163
aI1163
aI1163
aI1163
aI1163
aI1179
aI1217
aI1217
aI1217
aI1217
aI1217
aI1225
aI1231
aI1231
aI1231
aI1236
aI1255
aI1260
aI1271
aI1279
aI1309
aI1325
aI1352
aI1360
aI1360
aI1360
aI1360
aI1360
aI1360
aI1363
aI1368
aI1363
aI1363
aI1363
aI1363
aI1363
aI1363
aI1363
aI1363
aI1363
aI1363
aI1363
aI1355
aI1355
aI1355
aI1355
aI1352
aI1347
aI1325
aI1317
aI1314
aI1314
aI1314
aI1314
aI1314
aI1304
aI1301
aI1279
aI1279
aI1279
aI1279
aI1274
aI1266
aI1266
aI1266
aI1266
aI1266
aI1263
aI1285
aI1290
aI1290
aI1296
aI1301
aI1301
aI1301
aI1301
aI1301
aI1309
aI1312
aI1323
aI1331
aI1344
aI1344
aI1344
aI1344
aI1344
aI1344
aI1350
aI1350
aI1371
aI1374
aI1374
aI1379
aI1382
aI1382
aI1387
aI1393
aI1401
aI1401
aI1401
aI1401
aI1412
aI1414
aI1428
aI1439
aI1444
aI1444
aI1436
aI1428
aI1428
aI1425
aI1441
aI1449
aI1449
aI1458
aI1471
aI1471
aI1471
aI1466
aI1474
aI1474
aI1474
aI1474
aI1474
aI1485
aI1509
aI1512
aI1512
aI1503
aI1503
aI1503
aI1503
aI1503
aI1503
aI1503
aI1503
aI1503
aI1503
aI1512
aI1506
aI1490
aI1495
aI1503
aI1503
aI1498
aI1495
aI1495
aI1503
aI1506
aI1506
aI1506
aI1506
aI1509
aI1509
aI1509
aI1509
aI1509
aI1503
aI1503
aI1503
aI1503
aI1503
aI1509
aI1509
aI1501
aI1493
aI1490
aI1490
aI1490
aI1490
aI1487
aI1485
aI1485
aI1482
aI1468
aI1466
aI1463
aI1452
aI1441
aI1433
a.