(lp0
I3294
aI3295
aI3296
aI3297
aI3298
aI3299
aI3300
aI3301
aI3302
aI3303
aI3304
aI3305
aI3306
aI3307
aI3308
aI3309
aI3310
aI3311
aI3312
aI3313
aI3314
aI3315
aI3316
aI3317
aI3318
aI3319
aI3320
aI3321
aI3322
aI3323
aI3324
aI3325
aI3326
aI3327
aI3328
aI3329
aI3330
aI3331
aI3332
aI3333
aI3334
aI3335
aI3336
aI3337
aI3338
aI3339
aI3340
aI3341
aI3342
aI3343
aI3344
aI3345
aI3346
aI3347
aI3348
aI3349
aI3350
aI3351
aI3352
aI3353
aI3354
aI3355
aI3356
aI3357
aI3358
aI3359
aI3360
aI3361
aI3362
aI3363
aI3364
aI3365
aI3366
aI3367
aI3368
aI3369
aI3370
aI3371
aI3372
aI3373
aI3374
aI3375
aI3376
aI3377
aI3378
aI3379
aI3380
aI3381
aI3382
aI3383
aI3384
aI3385
aI3386
aI3387
aI3388
aI3389
aI3390
aI3391
aI3392
aI3393
aI3394
aI3395
aI3396
aI3397
aI3398
aI3399
aI3400
aI3401
aI3402
aI3403
aI3404
aI3405
aI3406
aI3407
aI3408
aI3409
aI3410
aI3411
aI3412
aI3413
aI3414
aI3415
aI3416
aI3417
aI3418
aI3419
aI3420
aI3421
aI3422
aI3423
aI3424
aI3425
aI3426
aI3427
aI3428
aI3429
aI3430
aI3431
aI3432
aI3433
aI3434
aI3435
aI3436
aI3437
aI3438
aI3439
aI3440
aI3441
aI3442
aI3443
aI3444
aI3445
aI3446
aI3447
aI3448
aI3449
aI3450
aI3451
aI3452
aI3453
aI3454
aI3455
aI3456
aI3457
aI3458
aI3459
aI3460
aI3461
aI3462
aI3463
aI3464
aI3465
aI3466
aI3467
aI3468
aI3469
aI3470
aI3471
aI3472
aI3473
aI3474
aI3475
aI3476
aI3477
aI3478
aI3479
aI3480
aI3481
aI3482
aI3483
aI3484
aI3485
aI3486
aI3487
aI3488
aI3489
aI3490
aI3491
aI3492
aI3493
aI3494
aI3495
aI3496
aI3497
aI3498
aI3499
aI3500
aI3501
aI3502
aI3503
aI3504
aI3505
aI3506
aI3507
aI3508
aI3509
aI3510
aI3511
aI3512
aI3513
aI3514
aI3515
aI3516
aI3517
aI3518
aI3519
aI3520
aI3521
aI3522
aI3523
aI3524
aI3525
aI3526
aI3527
aI3528
aI3529
aI3530
aI3531
aI3532
aI3533
aI3534
aI3535
aI3536
aI3537
aI3538
aI3539
aI3540
aI3541
aI3542
aI3543
aI3544
aI3545
aI3546
aI3547
aI3548
aI3549
aI3550
aI3551
aI3552
aI3553
aI3554
aI3555
aI3556
aI3557
aI3558
aI3559
aI3560
aI3561
aI3562
aI3563
aI3564
aI3565
aI3566
aI3567
aI3568
aI3569
aI3570
aI3571
aI3572
aI3573
aI3574
aI3575
aI3576
aI3577
aI3578
aI3579
aI3580
aI3581
aI3582
aI3583
aI3584
aI3585
aI3586
aI3587
aI3588
aI3589
aI3590
aI3591
aI3592
aI3593
aI3594
aI3595
aI3596
aI3597
aI3598
aI3599
aI3600
aI3601
aI3602
aI3603
aI3604
aI3605
aI3606
aI3607
aI3608
aI3609
aI3610
aI3611
aI3612
aI3613
aI3614
aI3615
aI3616
aI3617
aI3618
aI3619
aI3620
aI3621
aI3622
aI3623
aI3624
aI3625
aI3626
aI3627
aI3628
aI3629
aI3630
aI3631
aI3632
aI3633
aI3634
aI3635
aI3636
aI3637
aI3638
aI3639
aI3640
aI3641
aI3642
aI3643
aI3644
aI3645
aI3646
aI3647
aI3648
aI3649
aI3650
aI3651
aI3652
aI3653
aI3654
aI3655
aI3656
aI3657
aI3658
aI3659
aI3660
aI3661
aI3662
aI3663
aI3664
aI3665
aI3666
aI3667
aI3668
aI3669
aI3670
aI3671
aI3672
aI3673
aI3674
aI3675
aI3676
aI3677
aI3678
aI3679
aI3680
aI3681
aI3682
aI3683
aI3684
aI3685
aI3686
aI3687
aI3688
aI3689
aI3690
aI3691
aI3692
aI3693
aI3694
aI3695
aI3696
aI3697
aI3698
aI3699
aI3700
aI3701
aI3702
aI3703
aI3704
aI3705
aI3706
aI3707
aI3708
aI3709
aI3710
aI3711
aI3712
aI3713
aI3714
aI3715
aI3716
aI3717
aI3718
aI3719
aI3720
aI3721
aI3722
aI3723
aI3724
aI3725
aI3726
aI3727
aI3728
aI3729
aI3730
aI3731
aI3732
aI3733
aI3734
aI3735
aI3736
aI3737
aI3738
aI3739
aI3740
aI3741
aI3742
aI3743
aI3744
aI3745
aI3746
aI3747
aI3748
aI3749
aI3750
aI3751
aI3752
aI3753
aI3754
aI3755
aI3756
aI3757
aI3758
aI3759
aI3760
aI3761
aI3762
aI3763
aI3764
aI3765
aI3766
aI3767
aI3768
aI3769
aI3770
aI3771
aI3772
aI3773
aI3774
aI3775
aI3776
aI3777
aI3778
aI3779
aI3780
aI3781
aI3782
aI3783
aI3784
aI3785
aI3786
aI3787
aI3788
aI3789
aI3790
aI3791
aI3792
aI3793
aI3794
aI3795
aI3796
aI3797
aI3798
aI3799
aI3800
aI3801
aI3802
aI3803
aI3804
aI3805
aI3806
aI3807
aI3808
aI3809
aI3810
aI3811
aI3812
aI3813
aI3814
aI3815
aI3816
aI3817
aI3818
aI3819
aI3820
aI3821
aI3822
aI3823
aI3824
aI3825
aI3826
aI3827
aI3828
aI3829
aI3830
aI3831
aI3832
aI3833
aI3834
aI3835
aI3836
aI3837
aI3838
aI3839
aI3840
aI3841
aI3842
aI3843
aI3844
aI3845
aI3846
aI3847
aI3848
aI3849
aI3850
aI3851
aI3852
aI3853
aI3854
aI3855
aI3856
aI3857
aI3858
aI3859
aI3860
aI3861
aI3862
aI3863
aI3864
aI3865
aI3866
aI3867
aI3868
aI3869
aI3870
aI3871
aI3872
aI3873
aI3874
aI3875
aI3876
aI3877
aI3878
aI3879
aI3880
aI3881
aI3882
aI3883
aI3884
aI3885
aI3886
aI3887
aI3888
aI3889
aI3890
aI3891
aI3892
aI3893
aI3894
aI3895
aI3896
aI3897
aI3898
aI3899
aI3900
aI3901
aI3902
aI3903
aI3904
aI3905
aI3906
aI3907
aI3908
aI3909
aI3910
aI3911
aI3912
aI3913
aI3914
aI3915
aI3916
aI3917
aI3918
aI3919
aI3920
aI3921
aI3922
aI3923
aI3924
aI3925
aI3926
aI3927
aI3928
aI3929
aI3930
aI3931
aI3932
aI3933
aI3934
aI3935
aI3936
aI3937
aI3938
aI3939
aI3940
aI3941
aI3942
aI3943
aI3944
aI3945
aI3946
aI3947
aI3948
aI3949
aI3950
aI3951
aI3952
aI3953
aI3954
aI3955
aI3956
aI3957
aI3958
aI3959
aI3960
aI3961
aI3962
aI3963
aI3964
aI3965
aI3966
aI3967
aI3968
aI3969
aI3970
aI3971
aI3972
aI3973
aI3974
aI3975
aI3976
aI3977
aI3978
aI3979
aI3980
aI3981
aI3982
aI3983
aI3984
aI3985
aI3986
aI3987
aI3988
aI3989
aI3990
aI3991
aI3992
aI3993
aI3994
aI3995
aI3996
aI3997
aI3998
aI3999
aI4000
aI4001
aI4002
aI4003
aI4004
aI4005
aI4006
aI4007
aI4008
aI4009
aI4010
aI4011
aI4012
aI4013
aI4014
aI4015
aI4016
aI4017
aI4018
aI4019
aI4020
aI4021
aI4022
aI4023
aI4024
aI4025
aI4026
aI4027
aI4028
aI4029
aI4030
aI4031
aI4032
aI4033
aI4034
aI4035
aI4036
aI4037
aI4038
aI4039
aI4040
aI4041
aI4042
aI4043
aI4044
aI4045
aI4046
aI4047
aI4048
aI4049
aI4050
aI4051
aI4052
aI4053
aI4054
aI4055
aI4056
aI4057
aI4058
aI4059
aI4060
aI4061
aI4062
aI4063
aI4064
aI4065
aI4066
aI4067
aI4068
aI4069
aI4070
aI4071
aI4072
aI4073
aI4074
aI4075
aI4076
aI4077
aI4078
aI4079
aI4080
aI4081
aI4082
aI4083
aI4084
aI4085
aI4086
aI4087
aI4088
aI4089
aI4090
aI4091
aI4092
aI4093
aI4094
aI4095
aI4096
aI4097
aI4098
aI4099
aI4100
aI4101
aI4102
aI4103
aI4104
aI4105
aI4106
aI4107
aI4108
aI4109
aI4110
aI4111
aI4112
aI4113
aI4114
aI4115
aI4116
aI4117
aI4118
aI4119
aI4120
aI4121
aI4122
aI4123
aI4124
aI4125
aI4126
aI4127
aI4128
aI4129
aI4130
aI4131
aI4132
aI4133
aI4134
aI4135
aI4136
aI4137
aI4138
aI4139
aI4140
aI4141
aI4142
aI4143
aI4144
aI4145
aI4146
aI4147
aI4148
aI4149
aI4150
aI4151
aI4152
aI4153
aI4154
aI4155
aI4156
aI4157
aI4158
aI4159
aI4160
aI4161
a.(lp0
I1876
aI1868
aI1868
aI1868
aI1868
aI1868
aI1868
aI1868
aI1868
aI1868
aI1868
aI1868
aI1868
aI1868
aI1868
aI1868
aI1868
aI1868
aI1868
aI1868
aI1868
aI1868
aI1868
aI1868
aI1868
aI1868
aI1868
aI1868
aI1868
aI1868
aI1868
aI1868
aI1868
aI1868
aI1864
aI1860
aI1860
aI1860
aI1860
aI1860
aI1860
aI1860
aI1860
aI1860
aI1860
aI1860
aI1848
aI1844
aI1844
aI1844
aI1844
aI1844
aI1844
aI1844
aI1844
aI1844
aI1840
aI1836
aI1836
aI1836
aI1836
aI1836
aI1836
aI1836
aI1836
aI1836
aI1836
aI1836
aI1836
aI1836
aI1836
aI1820
aI1812
aI1800
aI1796
aI1796
aI1796
aI1792
aI1788
aI1784
aI1768
aI1760
aI1760
aI1760
aI1760
aI1760
aI1760
aI1760
aI1760
aI1760
aI1760
aI1760
aI1760
aI1760
aI1760
aI1756
aI1752
aI1752
aI1752
aI1752
aI1752
aI1752
aI1752
aI1752
aI1752
aI1752
aI1748
aI1748
aI1748
aI1748
aI1748
aI1748
aI1748
aI1748
aI1748
aI1744
aI1744
aI1744
aI1744
aI1744
aI1744
aI1744
aI1752
aI1760
aI1764
aI1764
aI1736
aI1728
aI1728
aI1752
aI1752
aI1752
aI1752
aI1752
aI1756
aI1756
aI1756
aI1756
aI1768
aI1772
aI1764
aI1760
aI1756
aI1756
aI1756
aI1760
aI1760
aI1760
aI1760
aI1752
aI1752
aI1752
aI1752
aI1752
aI1752
aI1752
aI1760
aI1760
aI1760
aI1752
aI1736
aI1736
aI1732
aI1732
aI1732
aI1732
aI1732
aI1732
aI1732
aI1736
aI1736
aI1736
aI1736
aI1736
aI1724
aI1724
aI1724
aI1736
aI1744
aI1744
aI1744
aI1744
aI1744
aI1744
aI1744
aI1736
aI1736
aI1736
aI1736
aI1736
aI1736
aI1736
aI1736
aI1736
aI1728
aI1724
aI1724
aI1724
aI1724
aI1724
aI1732
aI1732
aI1712
aI1700
aI1716
aI1716
aI1704
aI1700
aI1700
aI1700
aI1708
aI1708
aI1708
aI1708
aI1708
aI1708
aI1708
aI1708
aI1708
aI1708
aI1700
aI1692
aI1676
aI1672
aI1656
aI1644
aI1644
aI1640
aI1640
aI1640
aI1644
aI1636
aI1632
aI1628
aI1620
aI1600
aI1588
aI1568
aI1568
aI1568
aI1568
aI1568
aI1568
aI1576
aI1576
aI1592
aI1592
aI1572
aI1560
aI1560
aI1560
aI1560
aI1560
aI1560
aI1560
aI1560
aI1560
aI1560
aI1560
aI1560
aI1560
aI1568
aI1568
aI1568
aI1568
aI1568
aI1568
aI1568
aI1568
aI1568
aI1568
aI1568
aI1568
aI1568
aI1568
aI1568
aI1568
aI1568
aI1568
aI1576
aI1576
aI1576
aI1576
aI1576
aI1576
aI1576
aI1584
aI1584
aI1584
aI1584
aI1584
aI1584
aI1584
aI1584
aI1592
aI1592
aI1592
aI1592
aI1592
aI1592
aI1592
aI1592
aI1592
aI1592
aI1592
aI1592
aI1592
aI1592
aI1592
aI1592
aI1592
aI1592
aI1592
aI1592
aI1608
aI1628
aI1628
aI1628
aI1628
aI1628
aI1624
aI1612
aI1612
aI1612
aI1612
aI1604
aI1596
aI1596
aI1596
aI1596
aI1596
aI1596
aI1604
aI1604
aI1604
aI1604
aI1604
aI1604
aI1604
aI1616
aI1620
aI1628
aI1636
aI1636
aI1636
aI1636
aI1628
aI1608
aI1604
aI1600
aI1600
aI1600
aI1600
aI1612
aI1612
aI1620
aI1644
aI1644
aI1636
aI1620
aI1612
aI1612
aI1612
aI1612
aI1612
aI1608
aI1604
aI1604
aI1604
aI1604
aI1604
aI1604
aI1600
aI1596
aI1596
aI1596
aI1596
aI1596
aI1584
aI1576
aI1572
aI1564
aI1560
aI1560
aI1560
aI1560
aI1560
aI1560
aI1552
aI1536
aI1524
aI1516
aI1504
aI1504
aI1504
aI1504
aI1504
aI1504
aI1496
aI1484
aI1484
aI1484
aI1496
aI1496
aI1496
aI1468
aI1460
aI1460
aI1460
aI1468
aI1468
aI1468
aI1448
aI1448
aI1432
aI1432
aI1432
aI1432
aI1420
aI1420
aI1420
aI1420
aI1416
aI1416
aI1412
aI1408
aI1396
aI1396
aI1396
aI1392
aI1392
aI1392
aI1388
aI1388
aI1388
aI1388
aI1380
aI1380
aI1376
aI1376
aI1372
aI1372
aI1372
aI1372
aI1368
aI1368
aI1368
aI1368
aI1368
aI1364
aI1364
aI1364
aI1364
aI1364
aI1364
aI1368
aI1368
aI1368
aI1364
aI1360
aI1356
aI1356
aI1356
aI1376
aI1376
aI1376
aI1380
aI1400
aI1412
aI1412
aI1412
aI1412
aI1412
aI1412
aI1412
aI1412
aI1412
aI1412
aI1412
aI1412
aI1416
aI1424
aI1436
aI1460
aI1464
aI1464
aI1464
aI1464
aI1464
aI1468
aI1528
aI1536
aI1536
aI1536
aI1536
aI1536
aI1540
aI1548
aI1552
aI1560
aI1560
aI1560
aI1564
aI1584
aI1584
aI1584
aI1588
aI1604
aI1612
aI1612
aI1628
aI1636
aI1636
aI1636
aI1636
aI1644
aI1676
aI1676
aI1676
aI1676
aI1676
aI1688
aI1688
aI1688
aI1688
aI1688
aI1688
aI1700
aI1704
aI1708
aI1708
aI1708
aI1724
aI1748
aI1748
aI1768
aI1780
aI1780
aI1780
aI1780
aI1792
aI1804
aI1808
aI1808
aI1808
aI1808
aI1824
aI1768
aI1728
aI1700
aI1700
aI1700
aI1708
aI1724
aI1724
aI1736
aI1736
aI1720
aI1708
aI1688
aI1676
aI1672
aI1664
aI1660
aI1660
aI1660
aI1660
aI1660
aI1660
aI1652
aI1640
aI1624
aI1612
aI1612
aI1600
aI1596
aI1560
aI1544
aI1544
aI1544
aI1544
aI1544
aI1544
aI1544
aI1544
aI1528
aI1524
aI1524
aI1524
aI1524
aI1504
aI1496
aI1488
aI1476
aI1476
aI1476
aI1468
aI1468
aI1468
aI1468
aI1468
aI1468
aI1472
aI1476
aI1476
aI1476
aI1476
aI1448
aI1436
aI1436
aI1436
aI1412
aI1400
aI1400
aI1400
aI1400
aI1400
aI1400
aI1400
aI1400
aI1388
aI1388
aI1396
aI1436
aI1436
aI1436
aI1436
aI1436
aI1428
aI1428
aI1436
aI1444
aI1444
aI1444
aI1468
aI1468
aI1468
aI1468
aI1464
aI1464
aI1464
aI1464
aI1464
aI1464
aI1464
aI1464
aI1464
aI1480
aI1504
aI1504
aI1508
aI1508
aI1508
aI1508
aI1508
aI1508
aI1504
aI1496
aI1496
aI1496
aI1496
aI1496
aI1496
aI1496
aI1504
aI1508
aI1508
aI1508
aI1512
aI1516
aI1520
aI1528
aI1528
aI1528
aI1536
aI1536
aI1536
aI1540
aI1540
aI1540
aI1540
aI1544
aI1544
aI1544
aI1544
aI1544
aI1536
aI1536
aI1536
aI1536
aI1536
aI1552
aI1564
aI1568
aI1568
aI1568
aI1564
aI1564
aI1556
aI1552
aI1552
aI1552
aI1568
aI1576
aI1588
aI1592
aI1596
aI1600
aI1600
aI1600
aI1600
aI1568
aI1568
aI1564
aI1560
aI1560
aI1560
aI1568
aI1576
aI1576
aI1600
aI1600
aI1600
aI1584
aI1584
aI1584
aI1584
aI1584
aI1560
aI1556
aI1568
aI1576
aI1596
aI1604
aI1604
aI1604
aI1604
aI1604
aI1604
aI1604
aI1588
aI1584
aI1568
aI1560
aI1580
aI1608
aI1608
aI1612
aI1644
aI1632
aI1572
aI1572
aI1564
aI1600
aI1624
aI1624
aI1636
aI1636
aI1636
aI1636
aI1612
aI1612
aI1688
aI1692
aI1692
aI1684
aI1684
aI1684
aI1684
aI1684
aI1684
aI1768
aI1768
aI1764
aI1764
aI1764
aI1764
aI1764
aI1764
aI1764
aI1764
aI1764
aI1764
aI1764
aI1764
aI1764
aI1764
aI1780
aI1808
aI1816
aI1820
aI1820
aI1820
aI1820
aI1856
aI1856
aI1856
aI1856
aI1856
aI1860
aI1872
aI1876
aI1884
aI1908
aI1920
aI1936
aI1960
aI1968
aI1972
aI1976
aI1984
aI1996
aI2012
aI2016
aI2032
aI2052
aI2052
aI2056
aI2056
aI2056
aI2056
aI2056
aI2056
aI2056
aI2056
aI2056
aI2056
aI2056
aI2056
aI2056
aI2056
aI2060
aI2068
aI2072
aI2076
aI2076
aI2084
aI2088
aI2064
aI2028
aI1920
aI1912
aI1912
aI1908
aI1900
aI1900
aI1892
aI1876
aI1876
aI1860
aI1836
aI1824
aI1808
aI1800
aI1800
aI1792
aI1784
aI1760
aI1760
aI1760
aI1752
aI1728
aI1720
aI1708
aI1596
aI1596
aI1596
aI1588
a.(lp0
I1304
aI1304
aI1304
aI1304
aI1304
aI1304
aI1304
aI1304
aI1304
aI1304
aI1304
aI1304
aI1304
aI1304
aI1304
aI1304
aI1304
aI1304
aI1304
aI1304
aI1304
aI1304
aI1304
aI1304
aI1304
aI1304
aI1304
aI1304
aI1304
aI1304
aI1304
aI1304
aI1304
aI1312
aI1336
aI1344
aI1344
aI1344
aI1344
aI1344
aI1344
aI1344
aI1344
aI1344
aI1344
aI1344
aI1352
aI1352
aI1352
aI1352
aI1352
aI1352
aI1352
aI1352
aI1352
aI1352
aI1360
aI1360
aI1360
aI1360
aI1360
aI1360
aI1360
aI1360
aI1360
aI1360
aI1360
aI1360
aI1360
aI1360
aI1360
aI1364
aI1368
aI1376
aI1376
aI1376
aI1376
aI1384
aI1384
aI1392
aI1404
aI1408
aI1408
aI1408
aI1408
aI1408
aI1408
aI1408
aI1408
aI1408
aI1408
aI1408
aI1380
aI1376
aI1376
aI1372
aI1356
aI1356
aI1356
aI1356
aI1356
aI1356
aI1356
aI1352
aI1352
aI1352
aI1348
aI1348
aI1348
aI1348
aI1348
aI1348
aI1348
aI1348
aI1348
aI1340
aI1336
aI1316
aI1312
aI1312
aI1312
aI1312
aI1296
aI1284
aI1284
aI1284
aI1304
aI1308
aI1308
aI1284
aI1284
aI1284
aI1284
aI1284
aI1280
aI1280
aI1280
aI1280
aI1280
aI1284
aI1292
aI1296
aI1296
aI1296
aI1292
aI1280
aI1280
aI1280
aI1280
aI1276
aI1276
aI1276
aI1276
aI1276
aI1276
aI1268
aI1260
aI1260
aI1260
aI1260
aI1256
aI1252
aI1252
aI1252
aI1252
aI1252
aI1252
aI1244
aI1244
aI1240
aI1236
aI1236
aI1236
aI1236
aI1244
aI1256
aI1256
aI1256
aI1256
aI1236
aI1228
aI1228
aI1228
aI1228
aI1228
aI1228
aI1228
aI1228
aI1228
aI1228
aI1228
aI1228
aI1228
aI1228
aI1228
aI1228
aI1228
aI1228
aI1228
aI1224
aI1216
aI1216
aI1196
aI1196
aI1208
aI1216
aI1228
aI1228
aI1220
aI1216
aI1216
aI1212
aI1212
aI1212
aI1212
aI1212
aI1212
aI1212
aI1212
aI1212
aI1196
aI1184
aI1172
aI1168
aI1164
aI1160
aI1160
aI1156
aI1156
aI1152
aI1140
aI1124
aI1112
aI1104
aI1096
aI1076
aI1060
aI1036
aI1036
aI1036
aI1036
aI1036
aI1036
aI1048
aI1048
aI1052
aI1052
aI1052
aI1052
aI1052
aI1052
aI1052
aI1052
aI1052
aI1052
aI1052
aI1052
aI1052
aI1052
aI1052
aI1044
aI1036
aI1036
aI1036
aI1036
aI1036
aI1036
aI1036
aI1036
aI1036
aI1036
aI1036
aI1028
aI1024
aI1020
aI1016
aI1012
aI1008
aI1008
aI1000
aI996
aI996
aI996
aI992
aI992
aI992
aI980
aI980
aI980
aI980
aI980
aI976
aI972
aI972
aI956
aI956
aI956
aI952
aI952
aI952
aI952
aI948
aI944
aI940
aI936
aI936
aI936
aI936
aI936
aI936
aI936
aI936
aI936
aI936
aI936
aI936
aI944
aI944
aI944
aI944
aI944
aI952
aI952
aI952
aI952
aI952
aI956
aI956
aI956
aI956
aI956
aI960
aI964
aI964
aI964
aI980
aI980
aI980
aI980
aI984
aI988
aI1004
aI1016
aI1016
aI1016
aI1016
aI1020
aI1036
aI1044
aI1064
aI1072
aI1072
aI1072
aI1080
aI1080
aI1088
aI1120
aI1120
aI1124
aI1144
aI1148
aI1148
aI1148
aI1160
aI1168
aI1180
aI1184
aI1184
aI1184
aI1184
aI1184
aI1184
aI1204
aI1220
aI1220
aI1220
aI1188
aI1156
aI1140
aI1132
aI1132
aI1128
aI1124
aI1124
aI1124
aI1124
aI1136
aI1140
aI1140
aI1128
aI1128
aI1116
aI1112
aI1112
aI1112
aI1096
aI1096
aI1096
aI1096
aI1092
aI1092
aI1092
aI1088
aI1088
aI1088
aI1080
aI1080
aI1064
aI1052
aI1044
aI1044
aI1040
aI1032
aI1032
aI1016
aI1012
aI1012
aI1012
aI996
aI996
aI996
aI992
aI980
aI980
aI980
aI972
aI960
aI960
aI960
aI952
aI948
aI944
aI936
aI932
aI928
aI916
aI908
aI908
aI888
aI884
aI880
aI872
aI872
aI852
aI844
aI844
aI844
aI844
aI844
aI824
aI824
aI824
aI824
aI824
aI824
aI804
aI800
aI776
aI752
aI732
aI724
aI712
aI712
aI712
aI712
aI728
aI728
aI720
aI704
aI704
aI704
aI704
aI704
aI704
aI704
aI704
aI704
aI704
aI704
aI704
aI700
aI700
aI700
aI708
aI712
aI712
aI712
aI712
aI712
aI712
aI712
aI712
aI712
aI712
aI712
aI712
aI712
aI704
aI704
aI704
aI704
aI704
aI704
aI712
aI712
aI712
aI716
aI728
aI732
aI732
aI744
aI756
aI756
aI756
aI756
aI760
aI784
aI784
aI788
aI788
aI796
aI812
aI812
aI812
aI812
aI812
aI812
aI812
aI804
aI800
aI800
aI800
aI808
aI820
aI820
aI820
aI820
aI820
aI820
aI820
aI820
aI820
aI824
aI824
aI824
aI824
aI832
aI820
aI800
aI764
aI764
aI764
aI764
aI764
aI764
aI776
aI776
aI776
aI772
aI768
aI764
aI764
aI756
aI756
aI748
aI748
aI736
aI736
aI728
aI724
aI712
aI704
aI700
aI700
aI696
aI696
aI680
aI672
aI672
aI672
aI672
aI672
aI672
aI672
aI672
aI704
aI716
aI720
aI720
aI720
aI728
aI728
aI720
aI712
aI712
aI712
aI712
aI712
aI712
aI736
aI740
aI756
aI768
aI780
aI788
aI796
aI796
aI772
aI760
aI760
aI760
aI760
aI760
aI760
aI760
aI760
aI760
aI760
aI760
aI760
aI808
aI808
aI812
aI836
aI836
aI836
aI836
aI836
aI836
aI836
aI848
aI868
aI868
aI868
aI880
aI884
aI884
aI884
aI872
aI872
aI872
aI884
aI888
aI888
aI888
aI888
aI888
aI896
aI900
aI904
aI904
aI904
aI904
aI904
aI904
aI904
aI916
aI936
aI936
aI936
aI940
aI944
aI944
aI944
aI968
aI972
aI972
aI972
aI980
aI980
aI988
aI1000
aI1000
aI1008
aI1032
aI1044
aI1052
aI1060
aI1068
aI1072
aI1076
aI1080
aI1084
aI1084
aI1084
aI1072
aI1060
aI1060
aI1028
aI1012
aI1008
aI992
aI964
aI944
aI944
aI940
aI932
aI928
aI912
aI900
aI876
aI876
aI852
aI836
aI828
aI820
aI808
aI804
aI804
aI804
aI804
aI816
aI820
aI820
aI820
aI820
aI820
aI812
aI808
aI804
aI780
aI776
aI776
aI776
aI776
aI772
aI772
aI772
aI764
aI756
aI756
aI756
aI756
aI756
aI756
aI756
aI756
aI756
aI756
aI756
aI744
aI744
aI744
aI732
aI708
aI704
aI704
aI700
aI680
aI680
aI684
aI684
aI684
aI664
aI656
aI656
aI624
aI620
aI620
aI620
aI628
aI628
aI612
aI612
aI612
aI612
aI612
aI612
aI612
aI612
aI612
aI604
aI604
aI604
aI604
aI604
aI604
aI604
aI604
aI604
aI604
aI604
aI604
aI604
aI604
aI604
aI604
aI604
aI604
aI604
aI604
aI604
aI604
aI604
aI604
aI604
aI604
aI604
aI604
aI604
aI592
aI588
aI580
aI572
aI564
aI556
aI540
aI536
aI536
aI532
aI532
aI528
aI524
aI524
aI520
aI516
aI516
aI516
aI516
aI516
aI516
aI516
aI516
aI516
aI516
aI516
aI516
aI516
aI516
aI516
aI516
aI532
aI544
aI560
aI564
aI576
aI600
aI604
aI628
aI632
aI632
aI632
aI632
aI664
aI684
aI684
aI692
aI708
aI712
aI728
aI756
aI780
aI796
aI808
aI812
aI820
aI824
aI836
aI836
aI836
aI836
aI840
aI844
aI844
aI856
aI856
aI856
aI880
a.