(lp0
I1
aI2
aI3
aI4
aI5
aI6
aI7
aI8
aI9
aI10
aI11
aI12
aI13
aI14
aI15
aI16
aI17
aI18
aI19
aI20
aI21
aI22
aI23
aI24
aI25
aI26
aI27
aI28
aI29
aI30
aI31
aI32
aI33
aI34
aI35
aI36
aI37
aI38
aI39
aI40
aI41
aI42
aI43
aI44
aI45
aI46
aI47
aI48
aI49
aI50
aI51
aI52
aI53
aI54
aI55
aI56
aI57
aI58
aI59
aI60
aI61
aI62
aI63
aI64
aI65
aI66
aI67
aI68
aI69
aI70
aI71
aI72
aI73
aI74
aI75
aI76
aI77
aI78
aI79
aI80
aI81
aI82
aI83
aI84
aI85
aI86
aI87
aI88
aI89
aI90
aI91
aI92
aI93
aI94
aI95
aI96
aI97
aI98
aI99
aI100
aI101
aI102
aI103
aI104
aI105
aI106
aI107
aI108
aI109
aI110
aI111
aI112
aI113
aI114
aI115
aI116
aI117
aI118
aI119
aI120
aI121
aI122
aI123
aI124
aI125
aI126
aI127
aI128
aI129
aI130
aI131
aI132
aI133
aI134
aI135
aI136
aI137
aI138
aI139
aI140
aI141
aI142
aI143
aI144
aI145
aI146
aI147
aI148
aI149
aI150
aI151
aI152
aI153
aI154
aI155
aI156
aI157
aI158
aI159
aI160
aI161
aI162
aI163
aI164
aI165
aI166
aI167
aI168
aI169
aI170
aI171
aI172
aI173
aI174
aI175
aI176
aI177
aI178
aI179
aI180
aI181
aI182
aI183
aI184
aI185
aI186
aI187
aI188
aI189
aI190
aI191
aI192
aI193
aI194
aI195
aI196
aI197
aI198
aI199
aI200
aI201
aI202
aI203
aI204
aI205
aI206
aI207
aI208
aI209
aI210
aI211
aI212
aI213
aI214
aI215
aI216
aI217
aI218
aI219
aI220
aI221
aI222
aI223
aI224
aI225
aI226
aI227
aI228
aI229
aI230
aI231
aI232
aI233
aI234
aI235
aI236
aI237
aI238
aI239
aI240
aI241
aI242
aI243
aI244
aI245
aI246
aI247
aI248
aI249
aI250
aI251
aI252
aI253
aI254
aI255
aI256
aI257
aI258
aI259
aI260
aI261
aI262
aI263
aI264
aI265
aI266
aI267
aI268
aI269
aI270
aI271
aI272
aI273
aI274
aI275
aI276
aI277
aI278
aI279
aI280
aI281
aI282
aI283
aI284
aI285
aI286
aI287
aI288
aI289
aI290
aI291
aI292
aI293
aI294
aI295
aI296
aI297
aI298
aI299
aI300
aI301
aI302
aI303
aI304
aI305
aI306
aI307
aI308
aI309
aI310
aI311
aI312
aI313
aI314
aI315
aI316
aI317
aI318
aI319
aI320
aI321
aI322
aI323
aI324
aI325
aI326
aI327
aI328
aI329
aI330
aI331
aI332
aI333
aI334
aI335
aI336
aI337
aI338
aI339
aI340
aI341
aI342
aI343
aI344
aI345
aI346
aI347
aI348
aI349
aI350
aI351
aI352
aI353
aI354
aI355
aI356
aI357
aI358
aI359
aI360
aI361
aI362
aI363
aI364
aI365
aI366
aI367
aI368
aI369
aI370
aI371
aI372
aI373
aI374
aI375
aI376
aI377
aI378
aI379
aI380
aI381
aI382
aI383
aI384
aI385
aI386
aI387
aI388
aI389
aI390
aI391
aI392
aI393
aI394
aI395
aI396
aI397
aI398
aI399
aI400
aI401
aI402
aI403
aI404
aI405
aI406
aI407
aI408
aI409
aI410
aI411
aI412
aI413
aI414
aI415
aI416
aI417
aI418
aI419
aI420
aI421
aI422
aI423
aI424
aI425
aI426
aI427
aI428
aI429
aI430
aI431
aI432
aI433
aI434
aI435
aI436
aI437
aI438
aI439
aI440
aI441
aI442
aI443
aI444
aI445
aI446
aI447
aI448
aI449
aI450
aI451
aI452
aI453
aI454
aI455
aI456
aI457
aI458
aI459
aI460
aI461
aI462
aI463
aI464
aI465
aI466
aI467
aI468
aI469
aI470
aI471
aI472
aI473
aI474
aI475
aI476
aI477
aI478
aI479
aI480
aI481
aI482
aI483
aI484
aI485
aI486
aI487
aI488
aI489
aI490
aI491
aI492
aI493
aI494
aI495
aI496
aI497
aI498
aI499
aI500
aI501
aI502
aI503
aI504
aI505
aI506
aI507
aI508
aI509
aI510
aI511
aI512
aI513
aI514
aI515
aI516
aI517
aI518
aI519
aI520
aI521
aI522
aI523
aI524
aI525
aI526
aI527
aI528
aI529
aI530
aI531
aI532
aI533
aI534
aI535
aI536
aI537
aI538
aI539
aI540
aI541
aI542
aI543
aI544
aI545
aI546
aI547
aI548
aI549
aI550
aI551
aI552
aI553
aI554
aI555
aI556
aI557
aI558
aI559
aI560
aI561
aI562
aI563
aI564
aI565
aI566
aI567
aI568
aI569
aI570
aI571
aI572
aI573
aI574
aI575
aI576
aI577
aI578
aI579
aI580
aI581
aI582
aI583
aI584
aI585
aI586
aI587
aI588
aI589
aI590
aI591
aI592
aI593
aI594
aI595
aI596
aI597
aI598
aI599
aI600
aI601
aI602
aI603
aI604
aI605
aI606
aI607
aI608
aI609
aI610
aI611
aI612
aI613
aI614
aI615
aI616
aI617
aI618
aI619
aI620
aI621
aI622
aI623
aI624
aI625
aI626
aI627
aI628
aI629
aI630
aI631
aI632
aI633
aI634
aI635
aI636
aI637
aI638
aI639
aI640
aI641
aI642
aI643
aI644
aI645
aI646
aI647
aI648
aI649
aI650
aI651
aI652
aI653
aI654
aI655
aI656
aI657
aI658
aI659
aI660
aI661
aI662
aI663
aI664
aI665
aI666
aI667
aI668
aI669
aI670
aI671
aI672
aI673
aI674
aI675
aI676
aI677
aI678
aI679
aI680
aI681
aI682
aI683
aI684
aI685
aI686
aI687
aI688
aI689
aI690
aI691
aI692
aI693
aI694
aI695
aI696
aI697
aI698
aI699
aI700
aI701
aI702
aI703
aI704
aI705
aI706
aI707
aI708
aI709
aI710
aI711
aI712
aI713
aI714
aI715
aI716
aI717
aI718
aI719
aI720
aI721
aI722
aI723
aI724
aI725
aI726
aI727
aI728
aI729
aI730
aI731
aI732
aI733
aI734
aI735
aI736
aI737
aI738
aI739
aI740
aI741
aI742
aI743
aI744
aI745
aI746
aI747
aI748
aI749
aI750
aI751
aI752
aI753
aI754
aI755
aI756
aI757
aI758
aI759
aI760
aI761
aI762
aI763
aI764
aI765
aI766
aI767
aI768
aI769
aI770
aI771
aI772
aI773
aI774
aI775
aI776
aI777
aI778
aI779
aI780
aI781
aI782
aI783
aI784
aI785
aI786
aI787
aI788
aI789
aI790
aI791
aI792
aI793
aI794
aI795
aI796
aI797
aI798
aI799
aI800
aI801
aI802
aI803
aI804
aI805
aI806
aI807
aI808
aI809
aI810
aI811
aI812
aI813
aI814
aI815
aI816
aI817
aI818
aI819
aI820
aI821
aI822
aI823
aI824
aI825
aI826
aI827
aI828
aI829
aI830
aI831
aI832
aI833
aI834
aI835
aI836
aI837
aI838
aI839
aI840
aI841
aI842
aI843
aI844
aI845
aI846
aI847
aI848
aI849
aI850
aI851
aI852
aI853
aI854
aI855
aI856
aI857
aI858
aI859
aI860
aI861
aI862
aI863
aI864
aI865
aI866
aI867
aI868
aI869
aI870
aI871
aI872
aI873
aI874
aI875
aI876
aI877
aI878
aI879
aI880
aI881
aI882
aI883
aI884
aI885
aI886
aI887
aI888
aI889
aI890
aI891
aI892
aI893
aI894
aI895
aI896
aI897
aI898
aI899
aI900
aI901
aI902
aI903
aI904
aI905
aI906
aI907
aI908
aI909
aI910
aI911
aI912
aI913
aI914
aI915
aI916
aI917
aI918
aI919
aI920
aI921
aI922
aI923
aI924
aI925
aI926
aI927
aI928
aI929
aI930
aI931
aI932
aI933
aI934
aI935
aI936
aI937
aI938
aI939
aI940
aI941
aI942
aI943
aI944
aI945
aI946
aI947
aI948
aI949
aI950
aI951
aI952
aI953
aI954
aI955
aI956
aI957
aI958
aI959
aI960
aI961
aI962
aI963
aI964
aI965
aI966
aI967
aI968
aI969
aI970
aI971
aI972
aI973
aI974
aI975
aI976
aI977
aI978
aI979
aI980
aI981
aI982
aI983
aI984
aI985
aI986
aI987
aI988
aI989
aI990
aI991
aI992
aI993
aI994
aI995
aI996
aI997
aI998
aI999
aI1000
aI1001
aI1002
aI1003
aI1004
aI1005
aI1006
aI1007
aI1008
aI1009
aI1010
aI1011
aI1012
aI1013
aI1014
aI1015
aI1016
aI1017
aI1018
aI1019
aI1020
aI1021
aI1022
aI1023
aI1024
aI1025
aI1026
aI1027
aI1028
aI1029
aI1030
aI1031
aI1032
aI1033
aI1034
aI1035
aI1036
aI1037
aI1038
aI1039
aI1040
aI1041
aI1042
aI1043
aI1044
aI1045
aI1046
aI1047
aI1048
aI1049
aI1050
aI1051
aI1052
aI1053
aI1054
aI1055
aI1056
aI1057
aI1058
aI1059
aI1060
aI1061
aI1062
aI1063
aI1064
aI1065
aI1066
aI1067
aI1068
aI1069
aI1070
aI1071
aI1072
aI1073
aI1074
aI1075
aI1076
aI1077
aI1078
aI1079
aI1080
aI1081
aI1082
aI1083
aI1084
aI1085
aI1086
aI1087
aI1088
aI1089
aI1090
aI1091
aI1092
aI1093
aI1094
aI1095
aI1096
aI1097
aI1098
aI1099
aI1100
aI1101
aI1102
aI1103
aI1104
aI1105
aI1106
aI1107
aI1108
aI1109
aI1110
aI1111
aI1112
aI1113
aI1114
aI1115
aI1116
aI1117
aI1118
aI1119
aI1120
aI1121
aI1122
aI1123
aI1124
aI1125
aI1126
aI1127
aI1128
aI1129
aI1130
aI1131
aI1132
aI1133
aI1134
aI1135
aI1136
aI1137
aI1138
aI1139
aI1140
aI1141
aI1142
aI1143
aI1144
aI1145
aI1146
aI1147
aI1148
aI1149
aI1150
aI1151
aI1152
aI1153
aI1154
aI1155
aI1156
aI1157
aI1158
aI1159
aI1160
aI1161
aI1162
aI1163
aI1164
aI1165
aI1166
aI1167
aI1168
aI1169
aI1170
aI1171
aI1172
aI1173
aI1174
aI1175
aI1176
aI1177
aI1178
aI1179
aI1180
aI1181
aI1182
aI1183
aI1184
aI1185
aI1186
aI1187
aI1188
aI1189
aI1190
aI1191
aI1192
aI1193
aI1194
aI1195
aI1196
aI1197
aI1198
aI1199
aI1200
aI1201
aI1202
aI1203
aI1204
aI1205
aI1206
aI1207
aI1208
aI1209
aI1210
aI1211
aI1212
aI1213
aI1214
aI1215
aI1216
aI1217
aI1218
aI1219
aI1220
aI1221
aI1222
aI1223
aI1224
aI1225
aI1226
aI1227
aI1228
aI1229
aI1230
aI1231
aI1232
a.(lp0
I1004
aI1004
aI1004
aI1004
aI996
aI996
aI996
aI996
aI996
aI992
aI988
aI988
aI984
aI980
aI976
aI972
aI972
aI972
aI972
aI972
aI964
aI964
aI960
aI952
aI952
aI948
aI948
aI944
aI944
aI944
aI944
aI944
aI944
aI944
aI940
aI936
aI936
aI936
aI936
aI928
aI928
aI924
aI920
aI920
aI916
aI912
aI912
aI912
aI912
aI908
aI904
aI896
aI888
aI884
aI880
aI876
aI872
aI872
aI872
aI872
aI872
aI872
aI872
aI872
aI872
aI872
aI872
aI872
aI872
aI872
aI868
aI864
aI864
aI864
aI864
aI864
aI864
aI860
aI852
aI844
aI836
aI836
aI836
aI832
aI828
aI824
aI824
aI824
aI824
aI824
aI824
aI824
aI824
aI820
aI816
aI816
aI812
aI804
aI800
aI796
aI788
aI788
aI788
aI788
aI792
aI796
aI796
aI796
aI796
aI792
aI776
aI776
aI772
aI772
aI772
aI768
aI768
aI764
aI764
aI756
aI756
aI752
aI748
aI748
aI748
aI748
aI748
aI748
aI748
aI748
aI748
aI756
aI756
aI756
aI756
aI756
aI752
aI748
aI748
aI748
aI740
aI740
aI732
aI728
aI728
aI720
aI712
aI712
aI712
aI732
aI732
aI732
aI720
aI720
aI720
aI720
aI736
aI736
aI736
aI736
aI736
aI736
aI736
aI736
aI736
aI736
aI736
aI736
aI736
aI736
aI736
aI736
aI736
aI736
aI736
aI736
aI736
aI736
aI736
aI736
aI748
aI748
aI748
aI740
aI728
aI724
aI720
aI720
aI736
aI748
aI764
aI756
aI736
aI724
aI756
aI760
aI772
aI756
aI736
aI716
aI728
aI764
aI776
aI784
aI780
aI736
aI720
aI704
aI704
aI720
aI756
aI764
aI776
aI776
aI756
aI736
aI724
aI724
aI724
aI724
aI724
aI724
aI724
aI724
aI724
aI748
aI756
aI760
aI760
aI760
aI760
aI756
aI756
aI740
aI732
aI716
aI716
aI736
aI736
aI716
aI700
aI736
aI752
aI748
aI728
aI736
aI736
aI736
aI736
aI736
aI752
aI756
aI756
aI756
aI728
aI716
aI700
aI700
aI700
aI700
aI700
aI756
aI760
aI760
aI760
aI760
aI760
aI760
aI760
aI748
aI740
aI732
aI724
aI720
aI720
aI720
aI720
aI720
aI720
aI720
aI712
aI708
aI708
aI708
aI708
aI704
aI704
aI704
aI700
aI692
aI672
aI672
aI664
aI664
aI680
aI692
aI696
aI708
aI712
aI712
aI712
aI712
aI712
aI708
aI704
aI696
aI688
aI688
aI684
aI684
aI692
aI696
aI696
aI688
aI664
aI660
aI660
aI660
aI660
aI660
aI680
aI688
aI696
aI700
aI700
aI700
aI700
aI700
aI700
aI700
aI700
aI688
aI688
aI680
aI652
aI640
aI640
aI640
aI636
aI636
aI636
aI636
aI636
aI636
aI636
aI636
aI636
aI636
aI628
aI628
aI628
aI628
aI628
aI628
aI628
aI628
aI632
aI644
aI648
aI648
aI648
aI636
aI628
aI628
aI620
aI604
aI604
aI604
aI604
aI604
aI604
aI604
aI604
aI604
aI612
aI616
aI616
aI616
aI620
aI640
aI644
aI644
aI644
aI644
aI644
aI644
aI644
aI640
aI616
aI604
aI592
aI592
aI592
aI592
aI592
aI592
aI608
aI624
aI628
aI644
aI656
aI656
aI656
aI656
aI636
aI624
aI624
aI600
aI600
aI600
aI612
aI636
aI648
aI648
aI648
aI608
aI604
aI604
aI604
aI604
aI616
aI624
aI640
aI640
aI640
aI640
aI640
aI640
aI640
aI640
aI640
aI640
aI636
aI612
aI604
aI604
aI604
aI604
aI628
aI640
aI648
aI648
aI648
aI648
aI648
aI648
aI648
aI632
aI628
aI628
aI628
aI624
aI624
aI624
aI620
aI616
aI612
aI612
aI612
aI612
aI612
aI612
aI612
aI612
aI620
aI628
aI628
aI644
aI644
aI644
aI644
aI644
aI640
aI640
aI640
aI640
aI612
aI628
aI648
aI648
aI616
aI608
aI608
aI608
aI608
aI608
aI664
aI664
aI664
aI664
aI636
aI620
aI620
aI624
aI628
aI628
aI600
aI596
aI612
aI640
aI652
aI652
aI640
aI628
aI620
aI620
aI640
aI648
aI628
aI616
aI624
aI640
aI640
aI632
aI628
aI624
aI620
aI620
aI616
aI616
aI616
aI616
aI616
aI616
aI616
aI620
aI632
aI640
aI648
aI652
aI652
aI652
aI652
aI644
aI640
aI636
aI632
aI628
aI628
aI628
aI628
aI628
aI628
aI628
aI628
aI628
aI628
aI628
aI628
aI628
aI628
aI628
aI628
aI628
aI628
aI628
aI628
aI640
aI640
aI640
aI640
aI640
aI640
aI644
aI652
aI688
aI688
aI688
aI688
aI688
aI688
aI688
aI672
aI668
aI656
aI644
aI640
aI628
aI624
aI624
aI624
aI624
aI624
aI624
aI624
aI624
aI624
aI624
aI624
aI644
aI656
aI664
aI664
aI664
aI664
aI664
aI664
aI664
aI664
aI656
aI656
aI648
aI644
aI636
aI628
aI628
aI620
aI620
aI620
aI628
aI652
aI668
aI664
aI652
aI648
aI648
aI648
aI644
aI636
aI628
aI624
aI620
aI616
aI612
aI624
aI648
aI664
aI668
aI668
aI656
aI644
aI640
aI632
aI628
aI624
aI624
aI624
aI628
aI628
aI632
aI632
aI632
aI632
aI648
aI652
aI652
aI652
aI652
aI648
aI628
aI628
aI628
aI628
aI628
aI628
aI628
aI628
aI628
aI628
aI628
aI628
aI632
aI644
aI648
aI648
aI648
aI648
aI648
aI648
aI648
aI648
aI648
aI656
aI656
aI660
aI664
aI664
aI664
aI668
aI676
aI684
aI688
aI696
aI696
aI696
aI696
aI696
aI700
aI704
aI704
aI696
aI696
aI696
aI696
aI696
aI696
aI696
aI696
aI696
aI696
aI696
aI696
aI696
aI696
aI696
aI696
aI696
aI696
aI696
aI696
aI696
aI696
aI696
aI696
aI696
aI696
aI708
aI724
aI736
aI752
aI772
aI780
aI792
aI792
aI792
aI792
aI792
aI792
aI748
aI748
aI748
aI748
aI748
aI748
aI748
aI748
aI816
aI848
aI848
aI848
aI848
aI848
aI848
aI844
aI844
aI836
aI836
aI836
aI836
aI836
aI832
aI824
aI820
aI820
aI820
aI820
aI820
aI820
aI820
aI820
aI820
aI820
aI820
aI816
aI816
aI816
aI820
aI832
aI852
aI868
aI892
aI904
aI908
aI912
aI912
aI912
aI912
aI912
aI912
aI904
aI892
aI880
aI872
aI864
aI860
aI856
aI872
aI880
aI888
aI888
aI888
aI888
aI888
aI888
aI888
aI888
aI888
aI888
aI896
aI912
aI920
aI920
aI928
aI936
aI940
aI944
aI956
aI944
aI928
aI928
aI924
aI920
aI908
aI896
aI896
aI888
aI884
aI880
aI912
aI936
aI944
aI944
aI944
aI952
aI944
aI944
aI944
aI956
aI964
aI964
aI940
aI920
aI912
aI912
aI912
aI924
aI944
aI968
aI980
aI984
aI960
aI928
aI912
aI912
aI924
aI932
aI940
aI944
aI944
aI944
aI944
aI944
aI944
aI944
aI944
aI944
aI956
aI964
aI964
aI956
aI948
aI952
aI972
aI976
aI976
aI980
aI984
aI988
aI988
aI1004
aI1016
aI1016
aI1012
aI1004
aI996
aI1000
aI1000
aI964
aI944
aI952
aI1004
aI1020
aI1044
aI1036
aI996
aI980
aI996
aI1024
aI1036
aI1040
aI1052
aI1060
aI1048
aI1044
aI1044
aI1076
aI1080
aI1072
aI1040
aI1012
aI992
aI988
aI984
aI1012
aI1044
aI1044
aI1044
aI1044
aI1028
aI1020
aI1024
aI1024
aI1048
aI1052
aI1060
aI1088
aI1080
aI1072
aI1088
aI1088
aI1092
aI1092
aI1092
aI1092
aI1084
aI1084
aI1084
aI1084
aI1084
aI1096
aI1116
aI1124
aI1124
aI1108
aI1044
aI1044
aI1052
aI1096
aI1108
aI1108
aI1112
aI1112
aI1112
aI1112
aI1112
aI1104
aI1104
aI1112
aI1120
aI1120
aI1124
aI1136
aI1136
aI1132
aI1132
aI1152
aI1156
aI1156
aI1160
aI1160
aI1160
aI1160
aI1160
aI1160
aI1160
aI1160
aI1160
aI1160
aI1160
aI1160
aI1160
aI1160
aI1160
aI1160
aI1160
aI1160
aI1160
aI1160
aI1160
aI1160
aI1164
aI1164
aI1164
aI1164
aI1164
aI1164
aI1164
aI1164
aI1160
aI1160
aI1160
aI1148
aI1144
aI1140
aI1140
aI1140
aI1140
aI1140
aI1140
aI1140
aI1140
aI1140
aI1168
aI1172
aI1180
aI1196
aI1204
aI1208
aI1208
aI1208
aI1208
aI1204
aI1204
aI1204
aI1204
aI1204
aI1204
aI1204
aI1204
aI1200
aI1200
aI1200
aI1200
aI1200
aI1200
aI1200
aI1200
aI1200
aI1200
aI1200
aI1200
aI1200
aI1200
aI1200
aI1200
aI1200
aI1200
aI1200
aI1200
aI1200
aI1200
aI1200
aI1200
aI1196
aI1196
aI1192
aI1192
aI1192
aI1192
aI1192
aI1192
aI1200
aI1200
aI1204
aI1204
aI1204
aI1204
aI1208
aI1220
aI1228
aI1228
aI1228
aI1228
aI1228
aI1228
aI1236
aI1244
aI1244
aI1244
aI1244
aI1244
aI1244
aI1244
aI1236
aI1236
aI1236
aI1244
aI1252
aI1260
aI1268
aI1268
aI1268
aI1268
aI1268
aI1268
aI1268
aI1268
aI1268
aI1272
aI1276
aI1276
aI1268
aI1264
aI1260
aI1236
aI1224
aI1212
aI1212
aI1236
aI1256
aI1256
aI1256
aI1256
aI1256
aI1268
aI1284
aI1284
aI1284
aI1284
aI1292
aI1300
aI1304
aI1304
aI1304
aI1304
aI1304
aI1304
aI1304
aI1304
aI1296
aI1296
aI1296
aI1296
aI1296
aI1296
aI1292
aI1292
aI1292
aI1296
aI1304
aI1312
aI1312
aI1312
aI1312
aI1312
aI1304
aI1304
aI1304
aI1328
aI1340
aI1344
aI1344
aI1344
aI1344
aI1344
aI1344
aI1344
aI1344
aI1344
aI1352
aI1360
aI1364
aI1368
aI1368
aI1376
aI1376
aI1380
aI1380
aI1380
aI1380
aI1380
aI1380
aI1380
aI1400
aI1412
aI1416
aI1420
aI1424
aI1428
aI1428
aI1428
aI1428
aI1428
aI1428
aI1428
aI1428
aI1428
aI1428
aI1428
aI1428
aI1428
aI1436
aI1440
aI1440
aI1440
aI1440
aI1444
aI1444
aI1444
aI1444
aI1444
aI1444
aI1444
aI1444
aI1436
aI1436
aI1436
aI1436
aI1436
aI1448
aI1460
aI1464
aI1468
aI1468
aI1476
aI1484
aI1492
aI1500
aI1496
aI1496
aI1500
aI1504
aI1504
aI1508
aI1508
aI1512
aI1512
aI1476
aI1460
aI1452
aI1452
aI1464
aI1484
aI1496
aI1496
aI1496
aI1496
aI1496
aI1496
aI1496
aI1496
aI1504
a.(lp0
I256
aI256
aI256
aI256
aI256
aI252
aI252
aI252
aI256
aI272
aI272
aI272
aI276
aI288
aI296
aI304
aI316
aI316
aI324
aI340
aI368
aI380
aI380
aI388
aI388
aI388
aI396
aI400
aI408
aI412
aI420
aI420
aI424
aI432
aI448
aI460
aI476
aI480
aI488
aI496
aI500
aI504
aI512
aI516
aI520
aI520
aI520
aI520
aI520
aI528
aI544
aI556
aI564
aI576
aI580
aI588
aI604
aI616
aI620
aI620
aI620
aI620
aI620
aI624
aI628
aI636
aI644
aI648
aI656
aI664
aI676
aI688
aI696
aI704
aI708
aI712
aI724
aI736
aI752
aI764
aI780
aI788
aI800
aI812
aI828
aI836
aI844
aI844
aI844
aI844
aI844
aI844
aI844
aI872
aI880
aI884
aI896
aI924
aI936
aI944
aI960
aI980
aI980
aI996
aI1012
aI1024
aI1024
aI1028
aI1036
aI1044
aI1072
aI1080
aI1096
aI1104
aI1108
aI1112
aI1112
aI1116
aI1124
aI1136
aI1144
aI1152
aI1168
aI1176
aI1188
aI1188
aI1212
aI1228
aI1236
aI1252
aI1252
aI1268
aI1296
aI1308
aI1320
aI1328
aI1328
aI1336
aI1336
aI1336
aI1344
aI1348
aI1360
aI1360
aI1360
aI1376
aI1388
aI1388
aI1388
aI1376
aI1376
aI1376
aI1392
aI1392
aI1392
aI1396
aI1428
aI1428
aI1428
aI1428
aI1428
aI1428
aI1428
aI1428
aI1428
aI1428
aI1428
aI1428
aI1428
aI1428
aI1428
aI1428
aI1428
aI1428
aI1428
aI1428
aI1428
aI1428
aI1428
aI1428
aI1420
aI1420
aI1420
aI1428
aI1436
aI1420
aI1420
aI1420
aI1452
aI1432
aI1420
aI1408
aI1408
aI1440
aI1480
aI1484
aI1444
aI1404
aI1404
aI1432
aI1460
aI1472
aI1452
aI1420
aI1420
aI1448
aI1452
aI1452
aI1452
aI1448
aI1440
aI1440
aI1440
aI1440
aI1452
aI1456
aI1452
aI1452
aI1452
aI1452
aI1452
aI1452
aI1452
aI1452
aI1452
aI1448
aI1452
aI1452
aI1452
aI1452
aI1452
aI1472
aI1476
aI1492
aI1500
aI1500
aI1476
aI1436
aI1428
aI1420
aI1448
aI1468
aI1492
aI1496
aI1488
aI1468
aI1460
aI1460
aI1460
aI1460
aI1452
aI1452
aI1484
aI1484
aI1492
aI1484
aI1476
aI1476
aI1476
aI1476
aI1476
aI1500
aI1504
aI1504
aI1504
aI1504
aI1504
aI1504
aI1504
aI1508
aI1512
aI1516
aI1520
aI1524
aI1536
aI1544
aI1544
aI1544
aI1544
aI1544
aI1536
aI1528
aI1524
aI1520
aI1516
aI1504
aI1492
aI1492
aI1488
aI1484
aI1492
aI1492
aI1500
aI1512
aI1520
aI1520
aI1520
aI1528
aI1536
aI1544
aI1556
aI1564
aI1568
aI1568
aI1560
aI1544
aI1540
aI1536
aI1536
aI1524
aI1508
aI1500
aI1496
aI1500
aI1520
aI1524
aI1524
aI1528
aI1528
aI1528
aI1544
aI1544
aI1548
aI1552
aI1552
aI1552
aI1552
aI1552
aI1552
aI1552
aI1552
aI1564
aI1568
aI1568
aI1584
aI1584
aI1584
aI1568
aI1564
aI1564
aI1564
aI1564
aI1564
aI1564
aI1564
aI1564
aI1564
aI1564
aI1596
aI1608
aI1612
aI1612
aI1612
aI1612
aI1604
aI1604
aI1592
aI1588
aI1584
aI1584
aI1584
aI1592
aI1596
aI1596
aI1600
aI1604
aI1608
aI1608
aI1608
aI1608
aI1608
aI1608
aI1608
aI1608
aI1616
aI1620
aI1624
aI1624
aI1632
aI1652
aI1652
aI1652
aI1652
aI1652
aI1652
aI1652
aI1640
aI1628
aI1628
aI1628
aI1628
aI1628
aI1628
aI1628
aI1628
aI1628
aI1628
aI1628
aI1644
aI1644
aI1660
aI1664
aI1664
aI1664
aI1676
aI1680
aI1680
aI1664
aI1652
aI1636
aI1636
aI1632
aI1636
aI1636
aI1636
aI1664
aI1664
aI1664
aI1664
aI1664
aI1692
aI1708
aI1708
aI1708
aI1708
aI1708
aI1708
aI1708
aI1708
aI1708
aI1696
aI1692
aI1692
aI1696
aI1700
aI1700
aI1700
aI1700
aI1700
aI1708
aI1720
aI1720
aI1720
aI1720
aI1720
aI1720
aI1720
aI1704
aI1700
aI1700
aI1700
aI1700
aI1700
aI1700
aI1708
aI1708
aI1712
aI1712
aI1712
aI1712
aI1712
aI1716
aI1716
aI1724
aI1728
aI1736
aI1736
aI1744
aI1752
aI1752
aI1752
aI1752
aI1760
aI1760
aI1760
aI1760
aI1808
aI1800
aI1772
aI1748
aI1736
aI1736
aI1736
aI1736
aI1736
aI1736
aI1752
aI1752
aI1752
aI1752
aI1764
aI1776
aI1776
aI1752
aI1748
aI1736
aI1736
aI1736
aI1744
aI1768
aI1784
aI1784
aI1768
aI1752
aI1744
aI1744
aI1736
aI1760
aI1780
aI1792
aI1800
aI1788
aI1788
aI1784
aI1776
aI1776
aI1772
aI1768
aI1764
aI1760
aI1760
aI1760
aI1760
aI1760
aI1760
aI1756
aI1756
aI1752
aI1760
aI1760
aI1768
aI1776
aI1784
aI1792
aI1800
aI1804
aI1812
aI1816
aI1820
aI1820
aI1820
aI1820
aI1820
aI1820
aI1820
aI1820
aI1820
aI1820
aI1820
aI1820
aI1820
aI1820
aI1820
aI1820
aI1820
aI1820
aI1820
aI1820
aI1824
aI1824
aI1824
aI1824
aI1824
aI1824
aI1824
aI1836
aI1836
aI1836
aI1836
aI1836
aI1836
aI1836
aI1840
aI1844
aI1844
aI1852
aI1852
aI1840
aI1836
aI1836
aI1836
aI1836
aI1836
aI1836
aI1836
aI1836
aI1836
aI1836
aI1836
aI1836
aI1840
aI1840
aI1840
aI1840
aI1840
aI1840
aI1840
aI1840
aI1840
aI1844
aI1844
aI1848
aI1848
aI1848
aI1848
aI1848
aI1844
aI1840
aI1836
aI1836
aI1852
aI1860
aI1868
aI1880
aI1884
aI1888
aI1888
aI1884
aI1868
aI1852
aI1840
aI1840
aI1840
aI1860
aI1876
aI1876
aI1864
aI1852
aI1848
aI1836
aI1844
aI1844
aI1852
aI1860
aI1864
aI1864
aI1864
aI1864
aI1864
aI1864
aI1864
aI1864
aI1864
aI1868
aI1876
aI1876
aI1876
aI1876
aI1876
aI1892
aI1896
aI1896
aI1896
aI1896
aI1896
aI1896
aI1896
aI1896
aI1896
aI1896
aI1896
aI1884
aI1876
aI1876
aI1876
aI1876
aI1876
aI1872
aI1872
aI1872
aI1872
aI1872
aI1868
aI1868
aI1868
aI1864
aI1864
aI1860
aI1860
aI1848
aI1836
aI1828
aI1816
aI1812
aI1812
aI1808
aI1800
aI1788
aI1768
aI1752
aI1752
aI1752
aI1752
aI1752
aI1752
aI1752
aI1752
aI1752
aI1752
aI1752
aI1752
aI1752
aI1752
aI1752
aI1752
aI1752
aI1752
aI1752
aI1752
aI1752
aI1752
aI1752
aI1752
aI1752
aI1752
aI1752
aI1736
aI1712
aI1684
aI1660
aI1636
aI1608
aI1584
aI1584
aI1584
aI1584
aI1584
aI1580
aI1552
aI1548
aI1548
aI1548
aI1548
aI1548
aI1548
aI1548
aI1560
aI1584
aI1584
aI1584
aI1584
aI1584
aI1584
aI1584
aI1576
aI1572
aI1568
aI1556
aI1552
aI1504
aI1492
aI1476
aI1472
aI1472
aI1472
aI1472
aI1472
aI1472
aI1472
aI1472
aI1472
aI1472
aI1484
aI1492
aI1500
aI1508
aI1512
aI1512
aI1512
aI1516
aI1516
aI1504
aI1500
aI1500
aI1496
aI1488
aI1464
aI1452
aI1452
aI1444
aI1440
aI1440
aI1444
aI1452
aI1456
aI1468
aI1476
aI1476
aI1476
aI1476
aI1476
aI1476
aI1476
aI1476
aI1476
aI1476
aI1476
aI1476
aI1476
aI1464
aI1460
aI1452
aI1452
aI1444
aI1440
aI1436
aI1428
aI1436
aI1460
aI1476
aI1476
aI1476
aI1468
aI1444
aI1424
aI1412
aI1404
aI1400
aI1412
aI1432
aI1440
aI1440
aI1440
aI1412
aI1392
aI1384
aI1384
aI1376
aI1368
aI1364
aI1348
aI1340
aI1348
aI1368
aI1404
aI1412
aI1408
aI1400
aI1388
aI1368
aI1348
aI1344
aI1356
aI1360
aI1352
aI1344
aI1328
aI1324
aI1324
aI1352
aI1368
aI1372
aI1372
aI1372
aI1372
aI1372
aI1360
aI1344
aI1320
aI1300
aI1268
aI1268
aI1284
aI1296
aI1300
aI1316
aI1320
aI1328
aI1328
aI1328
aI1316
aI1296
aI1292
aI1288
aI1268
aI1252
aI1248
aI1244
aI1264
aI1268
aI1280
aI1292
aI1312
aI1340
aI1312
aI1276
aI1244
aI1228
aI1220
aI1220
aI1232
aI1244
aI1264
aI1264
aI1268
aI1268
aI1260
aI1236
aI1224
aI1228
aI1244
aI1256
aI1264
aI1264
aI1276
aI1276
aI1276
aI1276
aI1252
aI1228
aI1208
aI1204
aI1220
aI1260
aI1272
aI1256
aI1232
aI1208
aI1196
aI1220
aI1256
aI1260
aI1260
aI1252
aI1244
aI1244
aI1244
aI1244
aI1240
aI1232
aI1228
aI1224
aI1208
aI1204
aI1212
aI1212
aI1212
aI1204
aI1200
aI1188
aI1176
aI1176
aI1176
aI1176
aI1176
aI1200
aI1228
aI1240
aI1252
aI1252
aI1252
aI1220
aI1200
aI1196
aI1196
aI1216
aI1228
aI1228
aI1236
aI1244
aI1244
aI1244
aI1244
aI1244
aI1244
aI1244
aI1236
aI1228
aI1220
aI1216
aI1204
aI1204
aI1204
aI1204
aI1204
aI1204
aI1204
aI1204
aI1212
aI1228
aI1236
aI1240
aI1248
aI1252
aI1260
aI1260
aI1264
aI1264
aI1264
aI1264
aI1264
aI1252
aI1244
aI1244
aI1244
aI1244
aI1244
aI1244
aI1244
aI1244
aI1244
aI1244
aI1248
aI1248
aI1248
aI1248
aI1256
aI1260
aI1260
aI1268
aI1276
aI1288
aI1296
aI1300
aI1304
aI1304
aI1304
aI1304
aI1304
aI1312
aI1312
aI1312
aI1304
aI1304
aI1304
aI1304
aI1304
aI1304
aI1304
aI1304
aI1304
aI1304
aI1304
aI1304
aI1304
aI1304
aI1304
aI1304
aI1304
aI1304
aI1304
aI1304
aI1308
aI1328
aI1340
aI1348
aI1356
aI1360
aI1360
aI1360
aI1368
aI1388
aI1396
aI1404
aI1412
aI1412
aI1412
aI1412
aI1392
aI1364
aI1356
aI1352
aI1352
aI1352
aI1364
aI1396
aI1420
aI1420
aI1420
aI1420
aI1384
aI1368
aI1360
aI1352
aI1344
aI1344
aI1364
aI1388
aI1392
aI1392
aI1388
aI1388
aI1388
aI1388
aI1388
aI1388
aI1388
aI1388
aI1376
aI1372
aI1372
aI1360
aI1360
aI1352
aI1348
aI1356
aI1364
aI1368
aI1384
aI1392
aI1392
aI1392
aI1392
aI1392
aI1368
aI1332
aI1332
aI1332
aI1332
aI1344
aI1368
aI1376
aI1376
aI1376
aI1376
aI1376
aI1372
aI1352
aI1328
aI1320
aI1320
aI1320
aI1320
aI1328
aI1352
aI1380
aI1384
aI1376
aI1376
aI1360
aI1332
aI1328
aI1324
aI1324
aI1312
aI1312
aI1312
aI1312
aI1344
aI1364
aI1364
aI1364
aI1364
aI1364
aI1364
aI1356
aI1344
aI1336
aI1332
aI1324
aI1316
aI1312
aI1312
aI1304
aI1296
aI1296
aI1296
aI1296
aI1296
aI1296
aI1296
aI1296
aI1300
aI1328
aI1332
aI1332
aI1332
aI1336
aI1336
aI1336
aI1336
aI1336
aI1336
aI1336
aI1336
aI1336
aI1336
aI1336
aI1336
aI1328
aI1328
aI1320
aI1320
aI1316
aI1316
aI1312
aI1296
aI1296
aI1296
aI1296
aI1296
aI1296
aI1296
aI1288
aI1276
aI1276
aI1276
aI1276
aI1280
aI1284
aI1292
aI1300
aI1304
aI1308
aI1312
aI1312
aI1312
aI1336
aI1344
aI1344
aI1336
aI1324
aI1312
aI1292
aI1280
aI1268
aI1268
aI1276
aI1296
aI1304
aI1304
aI1308
aI1308
aI1324
aI1324
aI1324
aI1324
aI1324
aI1324
aI1324
aI1324
aI1324
a.