(lp0
I5330
aI5331
aI5332
aI5333
aI5334
aI5335
aI5336
aI5337
aI5338
aI5339
aI5340
aI5341
aI5342
aI5343
aI5344
aI5345
aI5346
aI5347
aI5348
aI5349
aI5350
aI5351
aI5352
aI5353
aI5354
aI5355
aI5356
aI5357
aI5358
aI5359
aI5360
aI5361
aI5362
aI5363
aI5364
aI5365
aI5366
aI5367
aI5368
aI5369
aI5370
aI5371
aI5372
aI5373
aI5374
aI5375
aI5376
aI5377
aI5378
aI5379
aI5380
aI5381
aI5382
aI5383
aI5384
aI5385
aI5386
aI5387
aI5388
aI5389
aI5390
aI5391
aI5392
aI5393
aI5394
aI5395
aI5396
aI5397
aI5398
aI5399
aI5400
aI5401
aI5402
aI5403
aI5404
aI5405
aI5406
aI5407
aI5408
aI5409
aI5410
aI5411
aI5412
aI5413
aI5414
aI5415
aI5416
aI5417
aI5418
aI5419
aI5420
aI5421
aI5422
aI5423
aI5424
aI5425
aI5426
aI5427
aI5428
aI5429
aI5430
aI5431
aI5432
aI5433
aI5434
aI5435
aI5436
aI5437
aI5438
aI5439
aI5440
aI5441
aI5442
aI5443
aI5444
aI5445
aI5446
aI5447
aI5448
aI5449
aI5450
aI5451
aI5452
aI5453
aI5454
aI5455
aI5456
aI5457
aI5458
aI5459
aI5460
aI5461
aI5462
aI5463
aI5464
aI5465
aI5466
aI5467
aI5468
aI5469
aI5470
aI5471
aI5472
aI5473
aI5474
aI5475
aI5476
aI5477
aI5478
aI5479
aI5480
aI5481
aI5482
aI5483
aI5484
aI5485
aI5486
aI5487
aI5488
aI5489
aI5490
aI5491
aI5492
aI5493
aI5494
aI5495
aI5496
aI5497
aI5498
aI5499
aI5500
aI5501
aI5502
aI5503
aI5504
aI5505
aI5506
aI5507
aI5508
aI5509
aI5510
aI5511
aI5512
aI5513
aI5514
aI5515
aI5516
aI5517
aI5518
aI5519
aI5520
aI5521
aI5522
a.(lp0
I2087
aI2100
aI2090
aI2073
aI2068
aI2068
aI2082
aI2082
aI2052
aI2052
aI2036
aI2014
aI2014
aI2014
aI2006
aI2006
aI1998
aI1998
aI1984
aI1979
aI1957
aI1955
aI1955
aI1955
aI1955
aI1947
aI1922
aI1922
aI1922
aI1922
aI1922
aI1922
aI1922
aI1922
aI1914
aI1909
aI1906
aI1906
aI1903
aI1892
aI1890
aI1890
aI1890
aI1890
aI1890
aI1890
aI1890
aI1868
aI1868
aI1852
aI1852
aI1838
aI1836
aI1828
aI1825
aI1809
aI1801
aI1779
aI1779
aI1779
aI1779
aI1779
aI1779
aI1779
aI1779
aI1776
aI1776
aI1776
aI1776
aI1776
aI1776
aI1790
aI1793
aI1793
aI1793
aI1793
aI1793
aI1798
aI1798
aI1798
aI1798
aI1798
aI1798
aI1793
aI1793
aI1787
aI1787
aI1795
aI1795
aI1787
aI1784
aI1784
aI1784
aI1784
aI1784
aI1782
aI1774
aI1774
aI1774
aI1782
aI1782
aI1782
aI1782
aI1784
aI1798
aI1790
aI1782
aI1795
aI1795
aI1801
aI1801
aI1801
aI1801
aI1806
aI1806
aI1806
aI1801
aI1798
aI1798
aI1798
aI1798
aI1798
aI1798
aI1798
aI1798
aI1798
aI1798
aI1798
aI1809
aI1820
aI1809
aI1806
aI1806
aI1795
aI1795
aI1795
aI1795
aI1795
aI1795
aI1790
aI1784
aI1782
aI1782
aI1782
aI1782
aI1782
aI1782
aI1782
aI1782
aI1782
aI1760
aI1755
aI1752
aI1752
aI1741
aI1741
aI1760
aI1760
aI1760
aI1760
aI1755
aI1755
aI1749
aI1744
aI1736
aI1736
aI1736
aI1725
aI1730
aI1730
aI1730
aI1730
aI1730
aI1730
aI1730
aI1730
aI1722
aI1706
aI1703
aI1698
aI1695
aI1695
aI1695
aI1695
aI1695
aI1695
aI1695
aI1695
aI1695
aI1695
aI1695
aI1695
aI1695
a.(lp0
I1350
aI1355
aI1336
aI1360
aI1368
aI1371
aI1363
aI1360
aI1374
aI1374
aI1390
aI1404
aI1406
aI1406
aI1406
aI1406
aI1393
aI1393
aI1398
aI1401
aI1409
aI1412
aI1420
aI1420
aI1420
aI1425
aI1436
aI1436
aI1436
aI1436
aI1436
aI1436
aI1436
aI1436
aI1439
aI1441
aI1441
aI1441
aI1431
aI1447
aI1452
aI1452
aI1452
aI1452
aI1452
aI1452
aI1452
aI1460
aI1460
aI1460
aI1460
aI1463
aI1466
aI1468
aI1471
aI1471
aI1476
aI1487
aI1487
aI1487
aI1487
aI1487
aI1487
aI1487
aI1501
aI1528
aI1528
aI1528
aI1528
aI1528
aI1528
aI1528
aI1560
aI1574
aI1574
aI1574
aI1574
aI1574
aI1574
aI1574
aI1574
aI1574
aI1574
aI1582
aI1582
aI1595
aI1603
aI1630
aI1647
aI1657
aI1665
aI1665
aI1665
aI1665
aI1665
aI1671
aI1679
aI1682
aI1682
aI1682
aI1682
aI1682
aI1682
aI1682
aI1690
aI1706
aI1736
aI1738
aI1738
aI1755
aI1755
aI1755
aI1755
aI1763
aI1763
aI1763
aI1773
aI1787
aI1787
aI1787
aI1787
aI1787
aI1787
aI1787
aI1787
aI1787
aI1803
aI1803
aI1803
aI1803
aI1803
aI1787
aI1787
aI1795
aI1795
aI1795
aI1795
aI1790
aI1790
aI1803
aI1811
aI1822
aI1822
aI1822
aI1822
aI1822
aI1822
aI1822
aI1822
aI1822
aI1825
aI1825
aI1827
aI1827
aI1849
aI1849
aI1836
aI1836
aI1836
aI1836
aI1836
aI1841
aI1846
aI1849
aI1860
aI1860
aI1860
aI1868
aI1868
aI1868
aI1868
aI1868
aI1868
aI1868
aI1868
aI1868
aI1868
aI1879
aI1881
aI1887
aI1890
aI1890
aI1890
aI1890
aI1890
aI1890
aI1884
aI1884
aI1884
aI1884
aI1884
aI1884
aI1884
a.