(lp0
I3964
aI3965
aI3966
aI3967
aI3968
aI3969
aI3970
aI3971
aI3972
aI3973
aI3974
aI3975
aI3976
aI3977
aI3978
aI3979
aI3980
aI3981
aI3982
aI3983
aI3984
aI3985
aI3986
aI3987
aI3988
aI3989
aI3990
aI3991
aI3992
aI3993
aI3994
aI3995
aI3996
aI3997
aI3998
aI3999
aI4000
aI4001
aI4002
aI4003
aI4004
aI4005
aI4006
aI4007
aI4008
aI4009
aI4010
aI4011
aI4012
aI4013
aI4014
aI4015
aI4016
aI4017
aI4018
aI4019
aI4020
aI4021
aI4022
aI4023
aI4024
aI4025
aI4026
aI4027
aI4028
aI4029
aI4030
aI4031
aI4032
aI4033
aI4034
aI4035
aI4036
aI4037
aI4038
aI4039
aI4040
aI4041
aI4042
aI4043
aI4044
aI4045
aI4046
aI4047
aI4048
aI4049
aI4050
aI4051
aI4052
aI4053
aI4054
aI4055
aI4056
aI4057
aI4058
aI4059
aI4060
aI4061
aI4062
aI4063
aI4064
aI4065
aI4066
aI4067
aI4068
aI4069
aI4070
aI4071
aI4072
aI4073
aI4074
aI4075
aI4076
aI4077
aI4078
aI4079
aI4080
aI4081
aI4082
aI4083
aI4084
aI4085
aI4086
aI4087
aI4088
aI4089
aI4090
aI4091
aI4092
aI4093
aI4094
aI4095
aI4096
aI4097
aI4098
aI4099
aI4100
aI4101
aI4102
aI4103
aI4104
aI4105
aI4106
aI4107
aI4108
aI4109
aI4110
aI4111
aI4112
aI4113
aI4114
aI4115
aI4116
aI4117
aI4118
aI4119
aI4120
aI4121
aI4122
aI4123
aI4124
aI4125
aI4126
aI4127
aI4128
aI4129
aI4130
aI4131
aI4132
aI4133
aI4134
aI4135
aI4136
aI4137
aI4138
aI4139
aI4140
aI4141
aI4142
aI4143
aI4144
aI4145
aI4146
aI4147
aI4148
aI4149
aI4150
aI4151
aI4152
aI4153
aI4154
aI4155
aI4156
aI4157
aI4158
aI4159
aI4160
aI4161
aI4162
aI4163
aI4164
aI4165
aI4166
aI4167
aI4168
aI4169
aI4170
aI4171
aI4172
aI4173
aI4174
aI4175
aI4176
aI4177
aI4178
aI4179
aI4180
aI4181
aI4182
aI4183
aI4184
aI4185
aI4186
aI4187
aI4188
aI4189
aI4190
aI4191
aI4192
aI4193
aI4194
aI4195
aI4196
aI4197
aI4198
aI4199
aI4200
aI4201
aI4202
aI4203
aI4204
aI4205
aI4206
aI4207
aI4208
aI4209
aI4210
aI4211
aI4212
aI4213
aI4214
aI4215
aI4216
aI4217
aI4218
aI4219
aI4220
aI4221
aI4222
aI4223
aI4224
aI4225
aI4226
aI4227
aI4228
aI4229
aI4230
aI4231
aI4232
aI4233
aI4234
aI4235
aI4236
aI4237
aI4238
aI4239
aI4240
aI4241
aI4242
aI4243
aI4244
aI4245
aI4246
aI4247
aI4248
aI4249
aI4250
aI4251
aI4252
aI4253
aI4254
aI4255
aI4256
aI4257
aI4258
aI4259
aI4260
aI4261
aI4262
aI4263
aI4264
aI4265
aI4266
aI4267
aI4268
aI4269
aI4270
aI4271
aI4272
aI4273
aI4274
aI4275
aI4276
aI4277
aI4278
aI4279
aI4280
aI4281
aI4282
aI4283
aI4284
aI4285
aI4286
aI4287
aI4288
aI4289
aI4290
aI4291
aI4292
aI4293
aI4294
aI4295
aI4296
aI4297
aI4298
aI4299
aI4300
aI4301
aI4302
aI4303
aI4304
aI4305
aI4306
aI4307
aI4308
aI4309
aI4310
aI4311
aI4312
aI4313
aI4314
aI4315
aI4316
aI4317
aI4318
aI4319
aI4320
aI4321
aI4322
aI4323
aI4324
aI4325
aI4326
aI4327
aI4328
aI4329
aI4330
aI4331
aI4332
aI4333
aI4334
aI4335
aI4336
aI4337
aI4338
aI4339
aI4340
aI4341
aI4342
aI4343
aI4344
aI4345
aI4346
aI4347
aI4348
aI4349
aI4350
aI4351
aI4352
aI4353
aI4354
aI4355
aI4356
aI4357
aI4358
aI4359
aI4360
aI4361
aI4362
aI4363
aI4364
aI4365
aI4366
aI4367
aI4368
aI4369
aI4370
aI4371
aI4372
aI4373
aI4374
aI4375
aI4376
aI4377
aI4378
aI4379
aI4380
aI4381
aI4382
aI4383
aI4384
aI4385
aI4386
aI4387
aI4388
aI4389
aI4390
aI4391
aI4392
aI4393
aI4394
aI4395
aI4396
aI4397
aI4398
aI4399
aI4400
aI4401
aI4402
aI4403
aI4404
aI4405
aI4406
aI4407
aI4408
aI4409
aI4410
aI4411
aI4412
aI4413
aI4414
aI4415
aI4416
aI4417
aI4418
aI4419
aI4420
aI4421
aI4422
aI4423
aI4424
aI4425
aI4426
aI4427
aI4428
aI4429
aI4430
aI4431
aI4432
aI4433
aI4434
aI4435
aI4436
aI4437
aI4438
aI4439
aI4440
aI4441
aI4442
aI4443
aI4444
aI4445
aI4446
aI4447
aI4448
aI4449
aI4450
aI4451
aI4452
aI4453
aI4454
aI4455
aI4456
aI4457
aI4458
aI4459
aI4460
aI4461
aI4462
aI4463
aI4464
aI4465
aI4466
aI4467
aI4468
aI4469
aI4470
aI4471
aI4472
aI4473
aI4474
aI4475
aI4476
aI4477
aI4478
aI4479
aI4480
aI4481
aI4482
aI4483
aI4484
aI4485
aI4486
aI4487
aI4488
aI4489
aI4490
aI4491
aI4492
aI4493
aI4494
aI4495
aI4496
aI4497
aI4498
aI4499
aI4500
aI4501
aI4502
aI4503
aI4504
aI4505
aI4506
aI4507
aI4508
aI4509
aI4510
aI4511
aI4512
aI4513
aI4514
aI4515
aI4516
aI4517
aI4518
aI4519
aI4520
aI4521
aI4522
aI4523
aI4524
aI4525
aI4526
aI4527
aI4528
aI4529
aI4530
aI4531
aI4532
aI4533
aI4534
aI4535
aI4536
aI4537
aI4538
aI4539
aI4540
aI4541
aI4542
aI4543
aI4544
aI4545
aI4546
aI4547
aI4548
aI4549
aI4550
aI4551
aI4552
aI4553
aI4554
aI4555
aI4556
aI4557
aI4558
aI4559
aI4560
aI4561
aI4562
aI4563
aI4564
aI4565
aI4566
aI4567
aI4568
aI4569
aI4570
aI4571
aI4572
aI4573
aI4574
a.(lp0
I2076
aI2076
aI2076
aI2076
aI2076
aI2076
aI2076
aI2076
aI2076
aI2076
aI2076
aI2064
aI2064
aI2064
aI2064
aI2084
aI2096
aI2096
aI2096
aI2096
aI2092
aI2076
aI2068
aI2068
aI2068
aI2068
aI2068
aI2068
aI2068
aI2068
aI2068
aI2068
aI2068
aI2068
aI2068
aI2068
aI2068
aI2064
aI2056
aI2040
aI2040
aI2036
aI2036
aI2032
aI2028
aI2028
aI2028
aI1992
aI1992
aI1992
aI1992
aI1992
aI1972
aI1972
aI1972
aI1972
aI1972
aI1972
aI1972
aI1972
aI1968
aI1968
aI1968
aI1968
aI1968
aI1960
aI1960
aI1960
aI1960
aI1968
aI1972
aI1972
aI1972
aI1964
aI1960
aI1956
aI1956
aI1952
aI1944
aI1932
aI1920
aI1900
aI1900
aI1884
aI1884
aI1884
aI1876
aI1872
aI1884
aI1884
aI1884
aI1884
aI1884
aI1884
aI1884
aI1884
aI1884
aI1884
aI1884
aI1884
aI1876
aI1868
aI1868
aI1868
aI1852
aI1840
aI1836
aI1836
aI1836
aI1836
aI1844
aI1844
aI1844
aI1844
aI1864
aI1864
aI1864
aI1864
aI1864
aI1864
aI1868
aI1892
aI1892
aI1892
aI1892
aI1892
aI1872
aI1868
aI1868
aI1864
aI1864
aI1864
aI1864
aI1864
aI1864
aI1860
aI1860
aI1860
aI1860
aI1860
aI1860
aI1860
aI1860
aI1860
aI1860
aI1860
aI1860
aI1860
aI1860
aI1860
aI1860
aI1860
aI1860
aI1876
aI1880
aI1880
aI1880
aI1880
aI1880
aI1880
aI1880
aI1876
aI1868
aI1868
aI1868
aI1868
aI1860
aI1860
aI1860
aI1860
aI1860
aI1852
aI1844
aI1844
aI1844
aI1844
aI1844
aI1844
aI1844
aI1844
aI1844
aI1844
aI1844
aI1844
aI1844
aI1848
aI1848
aI1852
aI1852
aI1852
aI1852
aI1852
aI1852
aI1852
aI1852
aI1852
aI1852
aI1852
aI1852
aI1860
aI1860
aI1860
aI1860
aI1860
aI1860
aI1860
aI1864
aI1864
aI1864
aI1864
aI1864
aI1864
aI1868
aI1868
aI1868
aI1868
aI1868
aI1868
aI1868
aI1876
aI1876
aI1876
aI1896
aI1896
aI1896
aI1896
aI1896
aI1896
aI1900
aI1900
aI1908
aI1928
aI1928
aI1928
aI1928
aI1928
aI1928
aI1928
aI1928
aI1928
aI1928
aI1928
aI1960
aI1960
aI1960
aI1956
aI1948
aI1948
aI1948
aI1948
aI1948
aI1948
aI1948
aI1948
aI1952
aI1956
aI1956
aI1956
aI1956
aI1960
aI1960
aI1960
aI1960
aI1960
aI1960
aI1968
aI1992
aI1992
aI1996
aI1996
aI1996
aI1996
aI1996
aI2032
aI2032
aI2032
aI2032
aI2032
aI2060
aI2060
aI2060
aI2060
aI2060
aI2060
aI2060
aI2060
aI2060
aI2064
aI2068
aI2068
aI2072
aI2088
aI2100
aI2100
aI2100
aI2100
aI2100
aI2100
aI2104
aI2108
aI2108
aI2112
aI2116
aI2116
aI2120
aI2120
aI2120
aI2120
aI2120
aI2120
aI2124
aI2128
aI2132
aI2136
aI2140
aI2140
aI2140
aI2140
aI2140
aI2148
aI2156
aI2160
aI2160
aI2160
aI2160
aI2160
aI2160
aI2160
aI2168
aI2176
aI2180
aI2180
aI2180
aI2180
aI2180
aI2188
aI2188
aI2192
aI2200
aI2204
aI2208
aI2208
aI2208
aI2208
aI2224
aI2224
aI2228
aI2232
aI2236
aI2236
aI2236
aI2244
aI2244
aI2244
aI2248
aI2248
aI2268
aI2268
aI2268
aI2268
aI2268
aI2292
aI2292
aI2292
aI2292
aI2292
aI2292
aI2292
aI2316
aI2340
aI2340
aI2340
aI2340
aI2340
aI2340
aI2340
aI2340
aI2340
aI2340
aI2344
aI2360
aI2360
aI2360
aI2360
aI2360
aI2360
aI2360
aI2360
aI2360
aI2360
aI2360
aI2360
aI2360
aI2380
aI2380
aI2392
aI2392
aI2392
aI2392
aI2392
aI2392
aI2392
aI2392
aI2392
aI2392
aI2392
aI2392
aI2392
aI2392
aI2396
aI2396
aI2396
aI2396
aI2408
aI2408
aI2412
aI2412
aI2416
aI2424
aI2424
aI2424
aI2424
aI2440
aI2444
aI2444
aI2444
aI2444
aI2424
aI2404
aI2404
aI2404
aI2404
aI2404
aI2404
aI2404
aI2400
aI2384
aI2384
aI2364
aI2340
aI2340
aI2340
aI2348
aI2364
aI2372
aI2372
aI2368
aI2360
aI2360
aI2332
aI2332
aI2332
aI2332
aI2332
aI2332
aI2332
aI2332
aI2332
aI2332
aI2332
aI2332
aI2332
aI2336
aI2352
aI2360
aI2368
aI2380
aI2452
aI2468
aI2468
aI2468
aI2468
aI2468
aI2456
aI2448
aI2432
aI2432
aI2428
aI2428
aI2428
aI2428
aI2424
aI2424
aI2424
aI2416
aI2416
aI2416
aI2416
aI2416
aI2416
aI2416
aI2416
aI2416
aI2416
aI2416
aI2416
aI2416
aI2384
aI2384
aI2384
aI2384
aI2384
aI2376
aI2376
aI2368
aI2368
aI2368
aI2368
aI2364
aI2356
aI2356
aI2356
aI2356
aI2352
aI2348
aI2348
aI2348
aI2348
aI2340
aI2328
aI2324
aI2324
aI2324
aI2300
aI2292
aI2292
aI2292
aI2292
aI2284
aI2276
aI2272
aI2268
aI2248
aI2248
aI2248
aI2248
aI2248
aI2248
aI2248
aI2240
aI2240
aI2240
aI2240
aI2240
aI2236
aI2236
aI2236
aI2236
aI2236
aI2236
aI2236
aI2248
aI2264
aI2264
aI2264
aI2264
aI2264
aI2264
aI2248
aI2248
aI2248
aI2248
aI2244
aI2252
aI2252
aI2260
aI2272
aI2276
aI2276
aI2276
aI2276
aI2292
aI2292
aI2292
aI2292
aI2292
aI2292
aI2292
aI2292
aI2296
aI2296
aI2296
aI2296
aI2300
aI2304
aI2304
aI2304
aI2308
aI2340
aI2352
aI2360
aI2368
aI2368
aI2348
aI2340
aI2348
aI2356
aI2360
aI2360
aI2368
aI2384
aI2384
aI2384
aI2384
aI2384
aI2384
aI2384
aI2384
aI2384
aI2384
aI2384
a.(lp0
I764
aI764
aI768
aI772
aI796
aI820
aI820
aI820
aI824
aI824
aI832
aI876
aI880
aI880
aI888
aI912
aI916
aI916
aI916
aI920
aI944
aI964
aI984
aI996
aI996
aI996
aI996
aI996
aI1000
aI1008
aI1020
aI1032
aI1036
aI1040
aI1044
aI1044
aI1044
aI1056
aI1076
aI1108
aI1108
aI1112
aI1120
aI1128
aI1136
aI1136
aI1136
aI1136
aI1136
aI1136
aI1136
aI1136
aI1124
aI1120
aI1120
aI1108
aI1104
aI1096
aI1096
aI1088
aI1088
aI1088
aI1088
aI1088
aI1112
aI1124
aI1128
aI1128
aI1132
aI1120
aI1108
aI1104
aI1104
aI1100
aI1088
aI1084
aI1084
aI1084
aI1084
aI1088
aI1096
aI1104
aI1104
aI1112
aI1112
aI1112
aI1084
aI1052
aI996
aI996
aI996
aI996
aI996
aI996
aI996
aI996
aI996
aI996
aI996
aI996
aI1012
aI1032
aI1032
aI1032
aI1016
aI996
aI980
aI972
aI964
aI964
aI952
aI948
aI948
aI948
aI928
aI928
aI928
aI912
aI912
aI908
aI904
aI880
aI876
aI876
aI872
aI872
aI864
aI864
aI864
aI864
aI864
aI864
aI864
aI864
aI856
aI848
aI844
aI844
aI844
aI844
aI844
aI844
aI844
aI844
aI844
aI836
aI824
aI824
aI820
aI804
aI796
aI792
aI780
aI756
aI740
aI740
aI740
aI740
aI740
aI740
aI740
aI740
aI736
aI736
aI736
aI736
aI720
aI716
aI716
aI716
aI716
aI712
aI712
aI712
aI712
aI700
aI680
aI680
aI680
aI680
aI676
aI664
aI664
aI664
aI660
aI656
aI652
aI640
aI640
aI640
aI636
aI636
aI636
aI636
aI636
aI636
aI636
aI636
aI636
aI636
aI636
aI636
aI636
aI632
aI620
aI620
aI612
aI608
aI608
aI620
aI628
aI632
aI640
aI640
aI640
aI644
aI644
aI644
aI644
aI648
aI648
aI652
aI660
aI664
aI664
aI664
aI676
aI688
aI696
aI704
aI720
aI772
aI772
aI768
aI768
aI768
aI768
aI768
aI768
aI768
aI768
aI768
aI780
aI780
aI784
aI788
aI804
aI804
aI804
aI804
aI812
aI812
aI812
aI812
aI824
aI828
aI832
aI832
aI840
aI852
aI852
aI852
aI856
aI856
aI856
aI856
aI872
aI872
aI880
aI880
aI880
aI880
aI880
aI904
aI904
aI904
aI904
aI904
aI896
aI896
aI896
aI896
aI896
aI896
aI896
aI896
aI896
aI888
aI880
aI880
aI876
aI864
aI848
aI848
aI848
aI848
aI848
aI848
aI844
aI828
aI828
aI824
aI816
aI812
aI804
aI804
aI804
aI804
aI804
aI804
aI796
aI788
aI788
aI780
aI780
aI780
aI780
aI780
aI780
aI780
aI780
aI780
aI780
aI780
aI780
aI780
aI780
aI780
aI772
aI764
aI764
aI764
aI764
aI764
aI760
aI748
aI744
aI736
aI736
aI732
aI728
aI728
aI720
aI720
aI716
aI712
aI712
aI712
aI712
aI708
aI708
aI708
aI708
aI708
aI708
aI708
aI708
aI708
aI708
aI708
aI708
aI708
aI708
aI708
aI708
aI708
aI708
aI708
aI704
aI696
aI696
aI696
aI688
aI680
aI680
aI680
aI664
aI664
aI664
aI660
aI648
aI648
aI648
aI648
aI648
aI648
aI648
aI648
aI648
aI648
aI648
aI648
aI648
aI648
aI648
aI644
aI644
aI644
aI644
aI644
aI644
aI644
aI644
aI644
aI644
aI644
aI644
aI656
aI668
aI672
aI672
aI672
aI672
aI680
aI680
aI680
aI680
aI676
aI672
aI672
aI672
aI672
aI684
aI688
aI692
aI692
aI692
aI736
aI772
aI776
aI776
aI780
aI780
aI784
aI788
aI804
aI828
aI832
aI852
aI872
aI872
aI872
aI872
aI872
aI856
aI856
aI872
aI884
aI884
aI964
aI928
aI928
aI928
aI928
aI928
aI928
aI928
aI928
aI928
aI952
aI960
aI960
aI960
aI960
aI960
aI960
aI960
aI1004
aI1008
aI1008
aI1008
aI1008
aI1012
aI1020
aI1028
aI1072
aI1080
aI1096
aI1096
aI1096
aI1104
aI1116
aI1120
aI1120
aI1156
aI1172
aI1172
aI1172
aI1172
aI1172
aI1172
aI1176
aI1176
aI1176
aI1176
aI1176
aI1176
aI1176
aI1176
aI1184
aI1184
aI1184
aI1184
aI1176
aI1168
aI1168
aI1160
aI1160
aI1160
aI1156
aI1156
aI1156
aI1156
aI1168
aI1176
aI1176
aI1176
aI1176
aI1188
aI1196
aI1196
aI1196
aI1196
aI1208
aI1212
aI1212
aI1212
aI1212
aI1212
aI1216
aI1208
aI1208
aI1188
aI1188
aI1188
aI1188
aI1188
aI1188
aI1188
aI1176
aI1176
aI1172
aI1172
aI1172
aI1160
aI1136
aI1128
aI1128
aI1128
aI1128
aI1124
aI1116
aI1104
aI1104
aI1104
aI1104
aI1104
aI1104
aI1108
aI1108
aI1108
aI1108
aI1112
aI1112
aI1112
aI1116
aI1116
aI1116
aI1116
aI1116
aI1116
aI1092
aI1088
aI1088
aI1088
aI1088
aI1088
aI1088
aI1088
aI1088
aI1088
aI1084
aI1084
aI1076
aI1072
aI1068
aI1068
aI1068
aI1068
aI1080
aI1080
aI1080
aI1080
aI1084
aI1092
aI1092
aI1088
aI1084
aI1084
aI1068
aI1060
aI1060
aI1060
aI1060
aI1060
aI1056
aI1056
aI1056
aI1056
aI1056
aI1052
a.