(lp0
I705
aI706
aI707
aI708
aI709
aI710
aI711
aI712
aI713
aI714
aI715
aI716
aI717
aI718
aI719
aI720
aI721
aI722
aI723
aI724
aI725
aI726
aI727
aI728
aI729
aI730
aI731
aI732
aI733
aI734
aI735
aI736
aI737
aI738
aI739
aI740
aI741
aI742
aI743
aI744
aI745
aI746
aI747
aI748
aI749
aI750
aI751
aI752
aI753
aI754
aI755
aI756
aI757
aI758
aI759
aI760
aI761
aI762
aI763
aI764
aI765
aI766
aI767
aI768
aI769
aI770
aI771
aI772
aI773
aI774
aI775
aI776
aI777
aI778
aI779
aI780
aI781
aI782
aI783
aI784
aI785
aI786
aI787
aI788
aI789
aI790
aI791
aI792
aI793
aI794
aI795
aI796
aI797
aI798
aI799
aI800
aI801
aI802
aI803
aI804
aI805
aI806
aI807
aI808
aI809
aI810
aI811
aI812
aI813
aI814
aI815
aI816
aI817
aI818
aI819
aI820
aI821
aI822
aI823
aI824
aI825
aI826
aI827
aI828
aI829
aI830
aI831
aI832
aI833
aI834
aI835
aI836
aI837
aI838
aI839
a.(lp0
I1972
aI1956
aI1940
aI1968
aI1996
aI1996
aI1996
aI1976
aI1976
aI1976
aI1976
aI1976
aI1976
aI1976
aI1976
aI1976
aI1976
aI1984
aI1984
aI1984
aI1976
aI1972
aI1972
aI1972
aI1972
aI1972
aI1972
aI1972
aI1968
aI1968
aI1968
aI1968
aI1968
aI1968
aI1964
aI1964
aI1964
aI1968
aI1964
aI1956
aI1944
aI1944
aI1944
aI1952
aI1952
aI1952
aI1952
aI1952
aI1952
aI1960
aI1960
aI1960
aI1960
aI1960
aI1960
aI1952
aI1952
aI1960
aI1960
aI1960
aI1960
aI1960
aI1960
aI1960
aI1960
aI1960
aI1960
aI1960
aI1960
aI1960
aI1960
aI1960
aI1960
aI1960
aI1960
aI1960
aI1960
aI1960
aI1960
aI1960
aI1960
aI1960
aI1960
aI1960
aI1956
aI1944
aI1932
aI1900
aI1900
aI1900
aI1900
aI1904
aI1952
aI1992
aI2000
aI2000
aI2000
aI2000
aI1992
aI1992
aI1992
aI1992
aI2008
aI2008
aI2008
aI2008
aI2008
aI2008
aI2008
aI2008
aI2008
aI2008
aI2008
aI2008
aI2008
aI2008
aI2008
aI2008
aI2008
aI2008
aI2008
aI2008
aI2008
aI2012
aI2012
aI2012
aI2008
aI1996
aI1988
aI1984
aI1984
aI1984
aI1984
aI1984
aI1984
a.(lp0
I328
aI344
aI356
aI348
aI340
aI336
aI336
aI352
aI352
aI352
aI352
aI352
aI352
aI352
aI352
aI352
aI356
aI380
aI380
aI392
aI404
aI404
aI404
aI404
aI404
aI404
aI404
aI412
aI420
aI424
aI424
aI440
aI440
aI444
aI448
aI452
aI452
aI460
aI476
aI484
aI488
aI492
aI492
aI492
aI496
aI496
aI496
aI512
aI512
aI524
aI532
aI544
aI548
aI552
aI560
aI564
aI568
aI580
aI588
aI604
aI612
aI612
aI612
aI612
aI612
aI612
aI612
aI612
aI612
aI612
aI616
aI620
aI620
aI620
aI624
aI624
aI624
aI624
aI628
aI628
aI628
aI628
aI628
aI636
aI640
aI656
aI692
aI764
aI772
aI776
aI780
aI800
aI836
aI864
aI864
aI868
aI868
aI868
aI872
aI872
aI872
aI880
aI896
aI900
aI900
aI900
aI900
aI900
aI900
aI900
aI900
aI900
aI900
aI900
aI900
aI900
aI900
aI900
aI900
aI900
aI900
aI900
aI900
aI900
aI900
aI900
aI896
aI880
aI868
aI852
aI844
aI844
aI844
aI844
aI844
a.