(lp0
I1308
aI1309
aI1310
aI1311
aI1312
aI1313
aI1314
aI1315
aI1316
aI1317
aI1318
aI1319
aI1320
aI1321
aI1322
aI1323
aI1324
aI1325
aI1326
aI1327
aI1328
aI1329
aI1330
aI1331
aI1332
aI1333
aI1334
aI1335
aI1336
aI1337
aI1338
aI1339
aI1340
aI1341
aI1342
aI1343
aI1344
aI1345
aI1346
aI1347
aI1348
aI1349
aI1350
aI1351
aI1352
aI1353
aI1354
aI1355
aI1356
aI1357
aI1358
aI1359
aI1360
aI1361
aI1362
aI1363
aI1364
aI1365
aI1366
aI1367
aI1368
aI1369
aI1370
aI1371
aI1372
aI1373
aI1374
aI1375
aI1376
aI1377
aI1378
aI1379
aI1380
aI1381
aI1382
aI1383
aI1384
aI1385
aI1386
aI1387
aI1388
aI1389
aI1390
aI1391
aI1392
aI1393
aI1394
aI1395
aI1396
aI1397
aI1398
aI1399
aI1400
aI1401
aI1402
aI1403
aI1404
aI1405
aI1406
aI1407
aI1408
aI1409
aI1410
aI1411
aI1412
aI1413
aI1414
aI1415
aI1416
aI1417
aI1418
aI1419
aI1420
aI1421
aI1422
aI1423
aI1424
aI1425
aI1426
aI1427
aI1428
aI1429
aI1430
aI1431
aI1432
aI1433
aI1434
aI1435
aI1436
aI1437
aI1438
aI1439
aI1440
aI1441
aI1442
aI1443
aI1444
aI1445
aI1446
aI1447
aI1448
aI1449
aI1450
aI1451
aI1452
aI1453
aI1454
aI1455
aI1456
aI1457
aI1458
aI1459
a.(lp0
I2107
aI2084
aI2115
aI2115
aI2115
aI2115
aI2079
aI2101
aI2101
aI2101
aI2101
aI2101
aI2101
aI2101
aI2101
aI2101
aI2101
aI2101
aI2101
aI2101
aI2101
aI2101
aI2101
aI2101
aI2090
aI2087
aI2087
aI2087
aI2087
aI2087
aI2087
aI2087
aI2087
aI2064
aI2064
aI2079
aI2079
aI2064
aI2064
aI2064
aI2076
aI2096
aI2087
aI2087
aI2087
aI2087
aI2087
aI2087
aI2067
aI2194
aI2101
aI2062
aI2062
aI2062
aI2062
aI2062
aI2062
aI2067
aI2067
aI2084
aI2064
aI2056
aI2056
aI2056
aI2056
aI2056
aI2056
aI2056
aI2076
aI2081
aI2050
aI2059
aI2062
aI2062
aI2062
aI2067
aI2067
aI2067
aI2067
aI2067
aI2067
aI2067
aI2067
aI2067
aI2067
aI2067
aI2067
aI2067
aI2073
aI2062
aI2059
aI2090
aI2070
aI2067
aI2067
aI2067
aI2079
aI2081
aI2081
aI2081
aI2062
aI2062
aI2084
aI2096
aI2081
aI2073
aI2107
aI2064
aI2073
aI2087
aI2087
aI2087
aI2087
aI2087
aI2087
aI2090
aI2090
aI2084
aI2084
aI2096
aI2098
aI2098
aI2084
aI2084
aI2084
aI2084
aI2084
aI2084
aI2084
aI2084
aI2084
aI2098
aI2098
aI2098
aI2098
aI2093
aI2087
aI2087
aI2110
aI2076
aI2067
aI2081
aI2110
aI2093
aI2093
aI2093
aI2093
aI2093
aI2093
aI2093
aI2093
aI2093
a.(lp0
I770
aI779
aI773
aI770
aI770
aI770
aI782
aI768
aI765
aI765
aI765
aI765
aI765
aI765
aI765
aI765
aI765
aI765
aI765
aI765
aI765
aI765
aI765
aI765
aI782
aI784
aI773
aI768
aI768
aI768
aI768
aI768
aI768
aI765
aI765
aI748
aI748
aI756
aI756
aI756
aI742
aI748
aI748
aI748
aI748
aI748
aI748
aI748
aI756
aI756
aI742
aI748
aI748
aI748
aI748
aI748
aI748
aI751
aI751
aI742
aI742
aI748
aI748
aI748
aI748
aI748
aI748
aI748
aI722
aI705
aI739
aI734
aI731
aI731
aI731
aI725
aI725
aI725
aI725
aI725
aI725
aI725
aI725
aI725
aI725
aI725
aI725
aI725
aI720
aI720
aI720
aI708
aI725
aI725
aI725
aI725
aI711
aI705
aI705
aI705
aI720
aI720
aI705
aI700
aI708
aI714
aI700
aI717
aI708
aI697
aI697
aI720
aI720
aI720
aI720
aI714
aI711
aI711
aI711
aI705
aI705
aI705
aI714
aI714
aI714
aI714
aI703
aI703
aI703
aI703
aI703
aI694
aI694
aI694
aI694
aI694
aI694
aI694
aI669
aI680
aI683
aI683
aI677
aI677
aI677
aI677
aI677
aI677
aI677
aI677
aI677
aI677
a.