(lp0
I1049
aI1050
aI1051
aI1052
aI1053
aI1054
aI1055
aI1056
aI1057
aI1058
aI1059
aI1060
aI1061
aI1062
aI1063
aI1064
aI1065
aI1066
aI1067
aI1068
aI1069
aI1070
aI1071
aI1072
aI1073
aI1074
aI1075
aI1076
aI1077
aI1078
aI1079
aI1080
aI1081
aI1082
aI1083
aI1084
aI1085
aI1086
aI1087
aI1088
aI1089
aI1090
aI1091
aI1092
aI1093
aI1094
aI1095
aI1096
aI1097
aI1098
aI1099
aI1100
aI1101
aI1102
aI1103
aI1104
aI1105
aI1106
aI1107
aI1108
aI1109
aI1110
aI1111
aI1112
aI1113
aI1114
aI1115
aI1116
aI1117
aI1118
aI1119
aI1120
aI1121
aI1122
aI1123
aI1124
aI1125
aI1126
aI1127
aI1128
aI1129
aI1130
aI1131
aI1132
aI1133
aI1134
aI1135
aI1136
aI1137
aI1138
aI1139
aI1140
aI1141
aI1142
aI1143
aI1144
aI1145
aI1146
aI1147
aI1148
aI1149
aI1150
aI1151
aI1152
aI1153
aI1154
aI1155
aI1156
aI1157
aI1158
aI1159
aI1160
aI1161
aI1162
aI1163
aI1164
aI1165
aI1166
aI1167
aI1168
aI1169
aI1170
aI1171
aI1172
aI1173
aI1174
aI1175
aI1176
aI1177
aI1178
aI1179
aI1180
aI1181
aI1182
aI1183
aI1184
aI1185
aI1186
aI1187
aI1188
aI1189
aI1190
aI1191
aI1192
aI1193
aI1194
aI1195
a.(lp0
I1092
aI1084
aI1084
aI1084
aI1084
aI1104
aI1112
aI1112
aI1112
aI1108
aI1104
aI1104
aI1096
aI1096
aI1096
aI1104
aI1108
aI1108
aI1108
aI1120
aI1120
aI1124
aI1128
aI1128
aI1144
aI1148
aI1180
aI1192
aI1192
aI1192
aI1192
aI1196
aI1196
aI1196
aI1196
aI1196
aI1196
aI1196
aI1204
aI1204
aI1204
aI1212
aI1212
aI1220
aI1224
aI1228
aI1228
aI1264
aI1288
aI1288
aI1300
aI1320
aI1328
aI1332
aI1340
aI1356
aI1388
aI1388
aI1392
aI1412
aI1412
aI1420
aI1420
aI1420
aI1420
aI1432
aI1504
aI1504
aI1504
aI1504
aI1512
aI1520
aI1528
aI1528
aI1528
aI1544
aI1556
aI1576
aI1576
aI1576
aI1576
aI1600
aI1604
aI1616
aI1632
aI1636
aI1636
aI1636
aI1652
aI1652
aI1652
aI1660
aI1688
aI1692
aI1692
aI1692
aI1704
aI1712
aI1712
aI1728
aI1728
aI1728
aI1728
aI1728
aI1736
aI1744
aI1748
aI1752
aI1752
aI1752
aI1752
aI1740
aI1736
aI1736
aI1736
aI1736
aI1744
aI1744
aI1744
aI1752
aI1752
aI1752
aI1760
aI1760
aI1760
aI1760
aI1760
aI1760
aI1752
aI1752
aI1760
aI1760
aI1764
aI1764
aI1764
aI1764
aI1764
aI1764
aI1764
aI1764
aI1764
aI1764
aI1764
aI1752
aI1744
aI1744
aI1740
a.(lp0
I612
aI624
aI628
aI644
aI644
aI656
aI664
aI664
aI664
aI672
aI676
aI680
aI692
aI696
aI700
aI720
aI720
aI736
aI740
aI744
aI744
aI748
aI748
aI748
aI764
aI768
aI796
aI804
aI804
aI804
aI804
aI804
aI804
aI804
aI804
aI808
aI808
aI812
aI820
aI820
aI820
aI828
aI828
aI836
aI840
aI844
aI844
aI868
aI880
aI880
aI880
aI872
aI864
aI860
aI852
aI844
aI840
aI844
aI848
aI860
aI860
aI860
aI880
aI896
aI908
aI908
aI908
aI908
aI908
aI908
aI896
aI892
aI888
aI888
aI888
aI888
aI896
aI896
aI896
aI896
aI896
aI908
aI912
aI928
aI940
aI940
aI940
aI940
aI952
aI960
aI960
aI960
aI980
aI980
aI980
aI988
aI996
aI996
aI996
aI996
aI996
aI996
aI996
aI996
aI996
aI996
aI1020
aI1024
aI1028
aI1036
aI1036
aI1040
aI1040
aI1040
aI1040
aI1040
aI1036
aI1032
aI1032
aI1044
aI1052
aI1052
aI1060
aI1064
aI1064
aI1064
aI1064
aI1060
aI1056
aI1056
aI1064
aI1068
aI1072
aI1076
aI1076
aI1076
aI1076
aI1076
aI1076
aI1080
aI1080
aI1080
aI1084
aI1096
aI1112
aI1112
aI1120
a.