(lp0
I893
aI894
aI895
aI896
aI897
aI898
aI899
aI900
aI901
aI902
aI903
aI904
aI905
aI906
aI907
aI908
aI909
aI910
aI911
aI912
aI913
aI914
aI915
aI916
aI917
aI918
aI919
aI920
aI921
aI922
aI923
aI924
aI925
aI926
aI927
aI928
aI929
aI930
aI931
aI932
aI933
aI934
aI935
aI936
aI937
aI938
aI939
aI940
aI941
aI942
aI943
aI944
aI945
aI946
aI947
aI948
aI949
aI950
aI951
aI952
aI953
aI954
aI955
aI956
aI957
aI958
aI959
aI960
aI961
aI962
aI963
aI964
aI965
aI966
aI967
aI968
aI969
aI970
aI971
aI972
aI973
aI974
aI975
aI976
aI977
aI978
aI979
aI980
aI981
aI982
aI983
aI984
aI985
aI986
aI987
aI988
aI989
aI990
aI991
aI992
aI993
aI994
aI995
aI996
aI997
aI998
aI999
aI1000
aI1001
aI1002
aI1003
aI1004
aI1005
aI1006
aI1007
aI1008
aI1009
aI1010
aI1011
aI1012
aI1013
aI1014
aI1015
aI1016
aI1017
aI1018
aI1019
aI1020
aI1021
aI1022
aI1023
aI1024
aI1025
aI1026
aI1027
aI1028
aI1029
aI1030
aI1031
aI1032
aI1033
aI1034
aI1035
aI1036
aI1037
aI1038
aI1039
aI1040
aI1041
aI1042
aI1043
aI1044
aI1045
aI1046
aI1047
aI1048
aI1049
aI1050
aI1051
aI1052
aI1053
aI1054
aI1055
aI1056
aI1057
aI1058
aI1059
aI1060
aI1061
aI1062
aI1063
aI1064
aI1065
aI1066
aI1067
aI1068
aI1069
aI1070
aI1071
aI1072
aI1073
aI1074
aI1075
aI1076
aI1077
aI1078
aI1079
aI1080
aI1081
aI1082
aI1083
aI1084
aI1085
aI1086
aI1087
aI1088
aI1089
aI1090
aI1091
aI1092
aI1093
aI1094
aI1095
aI1096
aI1097
aI1098
aI1099
aI1100
aI1101
aI1102
aI1103
aI1104
aI1105
aI1106
aI1107
aI1108
aI1109
aI1110
aI1111
aI1112
aI1113
aI1114
aI1115
aI1116
aI1117
aI1118
aI1119
aI1120
aI1121
aI1122
aI1123
aI1124
aI1125
aI1126
aI1127
aI1128
aI1129
aI1130
aI1131
aI1132
aI1133
aI1134
aI1135
aI1136
aI1137
aI1138
aI1139
aI1140
aI1141
aI1142
aI1143
aI1144
aI1145
aI1146
aI1147
aI1148
aI1149
aI1150
aI1151
aI1152
aI1153
aI1154
aI1155
aI1156
aI1157
aI1158
aI1159
aI1160
aI1161
aI1162
aI1163
aI1164
aI1165
aI1166
aI1167
aI1168
aI1169
aI1170
aI1171
aI1172
aI1173
aI1174
aI1175
aI1176
aI1177
aI1178
aI1179
aI1180
aI1181
aI1182
aI1183
aI1184
aI1185
aI1186
aI1187
aI1188
aI1189
aI1190
aI1191
aI1192
aI1193
aI1194
aI1195
aI1196
aI1197
aI1198
aI1199
aI1200
aI1201
aI1202
aI1203
aI1204
aI1205
aI1206
aI1207
aI1208
aI1209
aI1210
aI1211
aI1212
aI1213
aI1214
aI1215
aI1216
a.(lp0
I1536
aI1540
aI1544
aI1528
aI1520
aI1532
aI1536
aI1544
aI1544
aI1676
aI1748
aI1764
aI1784
aI1784
aI1852
aI1920
aI1836
aI1764
aI1752
aI1804
aI1808
aI1808
aI1808
aI1792
aI1768
aI1752
aI1740
aI1740
aI1740
aI1752
aI1760
aI1764
aI1768
aI1768
aI1772
aI1776
aI1788
aI1796
aI1800
aI1816
aI1820
aI1820
aI1808
aI1788
aI1772
aI1768
aI1768
aI1776
aI1784
aI1784
aI1784
aI1764
aI1728
aI1724
aI1720
aI1728
aI1768
aI1780
aI1796
aI1808
aI1808
aI1800
aI1796
aI1796
aI1808
aI1816
aI1820
aI1820
aI1820
aI1820
aI1820
aI1820
aI1820
aI1820
aI1820
aI1792
aI1776
aI1776
aI1776
aI1776
aI1776
aI1776
aI1796
aI1800
aI1800
aI1788
aI1788
aI1784
aI1784
aI1784
aI1784
aI1788
aI1796
aI1808
aI1808
aI1808
aI1796
aI1796
aI1792
aI1792
aI1792
aI1792
aI1792
aI1804
aI1812
aI1812
aI1812
aI1812
aI1812
aI1760
aI1752
aI1752
aI1756
aI1800
aI1820
aI1824
aI1824
aI1816
aI1804
aI1804
aI1804
aI1804
aI1804
aI1804
aI1800
aI1788
aI1784
aI1808
aI1824
aI1820
aI1816
aI1816
aI1812
aI1820
aI1820
aI1812
aI1800
aI1796
aI1800
aI1796
aI1788
aI1784
aI1784
aI1784
aI1800
aI1816
aI1832
aI1832
aI1836
aI1828
aI1820
aI1816
aI1816
aI1816
aI1816
aI1816
aI1816
aI1816
aI1816
aI1816
aI1816
aI1816
aI1816
aI1816
aI1816
aI1816
aI1816
aI1816
aI1816
aI1816
aI1816
aI1812
aI1808
aI1804
aI1792
aI1792
aI1824
aI1852
aI1852
aI1852
aI1852
aI1852
aI1852
aI1840
aI1836
aI1820
aI1828
aI1848
aI1848
aI1848
aI1848
aI1848
aI1848
aI1836
aI1828
aI1828
aI1828
aI1828
aI1836
aI1844
aI1844
aI1844
aI1844
aI1824
aI1820
aI1820
aI1820
aI1820
aI1820
aI1820
aI1820
aI1820
aI1820
aI1820
aI1820
aI1820
aI1820
aI1816
aI1808
aI1792
aI1776
aI1776
aI1776
aI1776
aI1776
aI1776
aI1776
aI1776
aI1776
aI1776
aI1776
aI1776
aI1776
aI1776
aI1776
aI1776
aI1776
aI1776
aI1776
aI1796
aI1808
aI1808
aI1808
aI1808
aI1808
aI1808
aI1808
aI1808
aI1808
aI1808
aI1808
aI1808
aI1808
aI1808
aI1808
aI1808
aI1828
aI1836
aI1840
aI1840
aI1856
aI1856
aI1856
aI1856
aI1856
aI1856
aI1856
aI1856
aI1856
aI1856
aI1856
aI1856
aI1856
aI1856
aI1856
aI1856
aI1856
aI1856
aI1856
aI1856
aI1856
aI1856
aI1856
aI1856
aI1856
aI1856
aI1856
aI1856
aI1856
aI1856
aI1856
aI1856
aI1848
aI1832
aI1820
aI1808
aI1808
aI1792
aI1792
aI1792
aI1792
aI1792
aI1792
aI1792
aI1792
aI1792
aI1788
aI1784
aI1784
aI1784
aI1784
aI1780
aI1776
aI1772
aI1768
aI1764
aI1764
aI1764
aI1760
aI1760
aI1760
aI1760
aI1760
aI1760
a.(lp0
I932
aI940
aI988
aI996
aI988
aI976
aI972
aI968
aI968
aI1004
aI1020
aI1020
aI1020
aI1020
aI996
aI968
aI960
aI972
aI984
aI1000
aI1004
aI1004
aI1004
aI1008
aI1012
aI1012
aI1012
aI1008
aI996
aI988
aI960
aI952
aI948
aI948
aI948
aI948
aI944
aI944
aI948
aI972
aI984
aI988
aI996
aI1000
aI1000
aI1000
aI992
aI964
aI944
aI940
aI940
aI940
aI924
aI920
aI920
aI920
aI948
aI960
aI972
aI980
aI980
aI980
aI980
aI964
aI952
aI944
aI940
aI940
aI940
aI940
aI940
aI940
aI940
aI940
aI940
aI916
aI912
aI912
aI912
aI912
aI912
aI912
aI916
aI920
aI920
aI912
aI908
aI912
aI912
aI912
aI912
aI912
aI932
aI936
aI936
aI944
aI952
aI932
aI912
aI912
aI912
aI912
aI912
aI904
aI900
aI900
aI900
aI900
aI900
aI896
aI888
aI888
aI888
aI904
aI908
aI912
aI912
aI936
aI956
aI956
aI960
aI960
aI960
aI960
aI960
aI984
aI1000
aI1004
aI996
aI988
aI980
aI980
aI988
aI1004
aI1012
aI1020
aI1020
aI1012
aI996
aI976
aI960
aI952
aI952
aI980
aI1004
aI1012
aI1024
aI1024
aI1028
aI1040
aI1052
aI1060
aI1060
aI1060
aI1060
aI1060
aI1060
aI1060
aI1060
aI1060
aI1060
aI1060
aI1060
aI1060
aI1060
aI1060
aI1060
aI1060
aI1060
aI1060
aI1060
aI1096
aI1112
aI1136
aI1160
aI1160
aI1160
aI1176
aI1176
aI1176
aI1176
aI1176
aI1176
aI1196
aI1204
aI1240
aI1228
aI1208
aI1208
aI1208
aI1204
aI1204
aI1204
aI1216
aI1220
aI1228
aI1228
aI1228
aI1228
aI1208
aI1200
aI1200
aI1200
aI1220
aI1224
aI1224
aI1224
aI1224
aI1224
aI1224
aI1224
aI1224
aI1224
aI1224
aI1224
aI1224
aI1184
aI1184
aI1176
aI1152
aI1128
aI1128
aI1128
aI1128
aI1128
aI1128
aI1128
aI1128
aI1128
aI1128
aI1128
aI1128
aI1128
aI1128
aI1128
aI1128
aI1128
aI1128
aI1128
aI1116
aI1112
aI1112
aI1112
aI1112
aI1112
aI1112
aI1112
aI1112
aI1112
aI1112
aI1112
aI1112
aI1112
aI1112
aI1112
aI1112
aI1100
aI1096
aI1092
aI1088
aI1068
aI1064
aI1064
aI1064
aI1064
aI1064
aI1064
aI1064
aI1064
aI1064
aI1064
aI1064
aI1064
aI1064
aI1064
aI1064
aI1064
aI1064
aI1064
aI1064
aI1064
aI1064
aI1064
aI1064
aI1064
aI1064
aI1052
aI1044
aI1032
aI1028
aI1028
aI1024
aI1020
aI1008
aI1000
aI992
aI992
aI976
aI972
aI972
aI972
aI972
aI972
aI972
aI968
aI960
aI956
aI952
aI952
aI952
aI948
aI944
aI940
aI936
aI932
aI920
aI920
aI920
aI920
aI920
aI920
aI912
aI912
aI912
a.