(lp0
I1541
aI1542
aI1543
aI1544
aI1545
aI1546
aI1547
aI1548
aI1549
aI1550
aI1551
aI1552
aI1553
aI1554
aI1555
aI1556
aI1557
aI1558
aI1559
aI1560
aI1561
aI1562
aI1563
aI1564
aI1565
aI1566
aI1567
aI1568
aI1569
aI1570
aI1571
aI1572
aI1573
aI1574
aI1575
aI1576
aI1577
aI1578
aI1579
aI1580
aI1581
aI1582
aI1583
aI1584
aI1585
aI1586
aI1587
aI1588
aI1589
aI1590
aI1591
aI1592
aI1593
aI1594
aI1595
aI1596
aI1597
aI1598
aI1599
aI1600
aI1601
aI1602
aI1603
aI1604
aI1605
aI1606
aI1607
aI1608
aI1609
aI1610
aI1611
aI1612
aI1613
aI1614
aI1615
aI1616
aI1617
aI1618
aI1619
aI1620
aI1621
aI1622
aI1623
aI1624
aI1625
aI1626
aI1627
aI1628
aI1629
aI1630
aI1631
aI1632
aI1633
aI1634
aI1635
aI1636
aI1637
aI1638
aI1639
aI1640
aI1641
aI1642
aI1643
aI1644
aI1645
aI1646
aI1647
aI1648
aI1649
aI1650
aI1651
aI1652
aI1653
aI1654
aI1655
aI1656
aI1657
aI1658
aI1659
aI1660
aI1661
aI1662
aI1663
aI1664
aI1665
aI1666
aI1667
aI1668
aI1669
aI1670
aI1671
aI1672
aI1673
aI1674
aI1675
aI1676
aI1677
aI1678
aI1679
aI1680
aI1681
aI1682
aI1683
aI1684
aI1685
aI1686
aI1687
aI1688
aI1689
aI1690
aI1691
aI1692
aI1693
aI1694
aI1695
aI1696
aI1697
aI1698
aI1699
aI1700
aI1701
aI1702
aI1703
aI1704
aI1705
aI1706
aI1707
aI1708
aI1709
aI1710
aI1711
aI1712
aI1713
aI1714
aI1715
aI1716
aI1717
aI1718
aI1719
aI1720
aI1721
aI1722
aI1723
aI1724
aI1725
aI1726
aI1727
aI1728
aI1729
aI1730
aI1731
aI1732
aI1733
aI1734
aI1735
aI1736
aI1737
aI1738
aI1739
aI1740
aI1741
aI1742
aI1743
aI1744
aI1745
aI1746
aI1747
aI1748
aI1749
aI1750
aI1751
aI1752
aI1753
aI1754
aI1755
aI1756
aI1757
aI1758
aI1759
aI1760
aI1761
aI1762
aI1763
aI1764
aI1765
aI1766
aI1767
aI1768
aI1769
aI1770
aI1771
aI1772
aI1773
aI1774
aI1775
aI1776
aI1777
aI1778
aI1779
aI1780
aI1781
aI1782
aI1783
aI1784
aI1785
aI1786
aI1787
aI1788
aI1789
aI1790
aI1791
aI1792
aI1793
aI1794
aI1795
aI1796
aI1797
aI1798
aI1799
aI1800
aI1801
aI1802
aI1803
aI1804
aI1805
aI1806
aI1807
aI1808
aI1809
aI1810
aI1811
aI1812
aI1813
aI1814
aI1815
aI1816
aI1817
aI1818
aI1819
aI1820
aI1821
aI1822
aI1823
aI1824
aI1825
aI1826
aI1827
aI1828
aI1829
aI1830
aI1831
aI1832
aI1833
aI1834
aI1835
aI1836
aI1837
aI1838
aI1839
aI1840
aI1841
aI1842
aI1843
aI1844
aI1845
aI1846
aI1847
aI1848
aI1849
aI1850
aI1851
aI1852
aI1853
aI1854
aI1855
aI1856
aI1857
aI1858
aI1859
aI1860
aI1861
aI1862
aI1863
aI1864
aI1865
aI1866
aI1867
aI1868
aI1869
aI1870
aI1871
aI1872
aI1873
aI1874
aI1875
aI1876
aI1877
aI1878
aI1879
aI1880
aI1881
aI1882
aI1883
aI1884
aI1885
aI1886
aI1887
aI1888
aI1889
aI1890
aI1891
aI1892
aI1893
aI1894
aI1895
aI1896
aI1897
aI1898
aI1899
aI1900
aI1901
aI1902
aI1903
aI1904
aI1905
aI1906
aI1907
aI1908
aI1909
aI1910
aI1911
aI1912
aI1913
aI1914
aI1915
aI1916
aI1917
aI1918
aI1919
aI1920
aI1921
aI1922
aI1923
aI1924
aI1925
aI1926
aI1927
aI1928
aI1929
aI1930
aI1931
aI1932
aI1933
aI1934
aI1935
aI1936
aI1937
aI1938
aI1939
aI1940
aI1941
aI1942
aI1943
aI1944
aI1945
aI1946
aI1947
aI1948
aI1949
aI1950
aI1951
aI1952
aI1953
aI1954
aI1955
aI1956
aI1957
aI1958
aI1959
aI1960
aI1961
aI1962
aI1963
aI1964
aI1965
aI1966
aI1967
aI1968
aI1969
aI1970
aI1971
aI1972
aI1973
aI1974
aI1975
aI1976
aI1977
aI1978
aI1979
aI1980
aI1981
aI1982
aI1983
aI1984
aI1985
aI1986
aI1987
aI1988
aI1989
aI1990
aI1991
aI1992
aI1993
aI1994
aI1995
aI1996
aI1997
aI1998
aI1999
aI2000
aI2001
aI2002
aI2003
aI2004
aI2005
aI2006
aI2007
aI2008
aI2009
aI2010
aI2011
aI2012
aI2013
aI2014
aI2015
aI2016
aI2017
aI2018
aI2035
aI2036
aI2037
aI2043
aI2044
aI2045
aI2046
aI2047
aI2048
aI2049
aI2050
aI2051
aI2052
aI2053
aI2054
aI2055
aI2056
aI2057
aI2058
aI2059
aI2060
aI2061
aI2062
aI2063
aI2064
aI2065
aI2066
aI2067
aI2068
aI2069
aI2070
aI2071
aI2072
aI2073
aI2074
aI2075
aI2076
aI2077
aI2078
aI2079
aI2080
aI2081
aI2082
aI2083
aI2084
aI2085
aI2086
aI2087
aI2088
aI2089
aI2090
aI2091
aI2092
aI2093
aI2094
aI2095
aI2096
aI2097
aI2098
aI2099
aI2100
aI2101
aI2102
aI2103
aI2104
aI2105
aI2106
aI2107
aI2108
aI2109
aI2110
aI2111
aI2112
aI2113
aI2114
aI2115
aI2116
aI2117
aI2118
aI2119
aI2120
aI2121
aI2122
aI2123
aI2124
aI2125
aI2126
aI2127
aI2128
aI2129
aI2130
aI2131
aI2132
aI2133
aI2134
aI2135
aI2136
aI2137
aI2138
aI2139
aI2140
aI2141
aI2142
aI2143
aI2144
aI2145
aI2146
aI2147
aI2148
aI2149
aI2150
aI2151
aI2152
aI2153
aI2154
aI2155
aI2156
aI2157
aI2158
aI2159
aI2160
aI2161
aI2162
aI2163
aI2164
aI2165
aI2166
aI2167
aI2168
aI2169
aI2170
aI2171
aI2172
aI2173
aI2174
aI2175
aI2176
aI2177
aI2178
aI2179
aI2180
aI2181
aI2182
aI2183
aI2184
aI2185
aI2186
aI2187
aI2188
aI2189
aI2190
aI2191
aI2192
aI2193
aI2194
aI2195
aI2196
aI2197
aI2198
aI2199
aI2200
aI2201
aI2202
aI2203
aI2204
aI2205
aI2206
aI2207
aI2208
aI2209
aI2210
aI2211
aI2212
aI2213
aI2214
aI2215
aI2216
aI2217
aI2218
aI2219
aI2220
aI2221
aI2222
aI2223
aI2224
aI2225
aI2226
aI2227
aI2228
aI2229
aI2230
aI2231
aI2232
aI2233
aI2234
aI2235
aI2236
aI2237
aI2238
aI2239
aI2240
aI2241
aI2242
aI2243
aI2244
aI2245
aI2246
aI2247
aI2248
aI2249
aI2250
aI2251
aI2252
aI2253
aI2254
aI2255
aI2256
aI2257
aI2258
aI2259
aI2260
aI2261
aI2262
aI2263
aI2264
aI2265
aI2266
aI2267
aI2268
aI2269
aI2270
aI2271
aI2272
aI2273
aI2274
aI2275
aI2276
aI2277
aI2278
aI2279
aI2280
aI2281
aI2282
aI2283
aI2284
aI2285
aI2286
aI2287
aI2288
aI2289
aI2290
aI2291
aI2292
aI2293
aI2294
aI2295
aI2296
aI2297
aI2298
aI2299
aI2300
aI2301
aI2302
aI2303
aI2304
aI2305
aI2306
aI2307
aI2308
aI2309
aI2310
aI2311
aI2312
aI2313
aI2314
aI2315
aI2316
aI2317
aI2318
aI2319
aI2320
aI2321
aI2322
aI2323
aI2324
aI2325
aI2326
aI2327
aI2328
aI2329
aI2330
aI2331
aI2332
aI2333
aI2334
aI2335
aI2336
aI2337
aI2338
aI2339
aI2340
aI2341
aI2342
aI2343
aI2344
aI2345
aI2346
aI2347
aI2348
aI2349
aI2350
aI2351
aI2352
aI2353
aI2354
aI2355
aI2356
aI2357
aI2358
aI2359
aI2360
aI2361
aI2362
aI2363
aI2364
aI2365
aI2366
aI2367
aI2368
aI2369
aI2370
aI2371
aI2372
aI2373
aI2374
aI2375
aI2376
aI2377
aI2378
aI2379
aI2380
aI2381
aI2382
aI2383
aI2384
aI2385
aI2386
aI2387
aI2388
aI2389
aI2390
aI2391
aI2392
aI2393
aI2394
aI2395
aI2396
aI2397
aI2398
aI2399
aI2400
aI2401
aI2402
aI2403
aI2404
aI2405
aI2406
aI2407
aI2408
aI2409
aI2410
aI2411
aI2412
aI2413
aI2414
aI2415
aI2416
aI2417
aI2418
aI2419
aI2420
aI2421
aI2422
aI2423
aI2424
aI2425
aI2426
aI2427
aI2428
aI2429
aI2430
aI2431
aI2432
aI2433
aI2434
aI2435
aI2436
aI2437
aI2438
aI2439
aI2440
aI2441
aI2442
aI2443
aI2444
aI2445
aI2446
aI2447
aI2448
aI2449
aI2450
aI2451
aI2452
aI2453
aI2454
aI2455
aI2456
aI2457
aI2458
aI2459
aI2460
aI2461
aI2462
aI2463
aI2464
aI2465
aI2466
aI2467
aI2468
aI2469
aI2470
aI2471
aI2472
aI2473
aI2474
aI2475
aI2476
aI2477
aI2478
aI2479
aI2480
aI2481
aI2482
aI2483
aI2484
aI2485
aI2486
aI2487
aI2488
aI2489
aI2490
aI2491
aI2492
aI2493
aI2494
aI2495
aI2496
aI2497
aI2498
aI2499
aI2500
aI2501
aI2502
aI2503
aI2504
aI2505
aI2506
aI2507
aI2508
aI2509
aI2510
aI2511
aI2512
aI2513
aI2514
aI2515
aI2516
aI2517
aI2518
aI2519
aI2520
aI2521
aI2522
aI2523
aI2524
aI2525
aI2526
aI2527
aI2528
aI2529
aI2530
aI2531
aI2532
aI2533
aI2534
aI2535
aI2536
aI2537
aI2538
aI2539
aI2540
aI2541
aI2542
aI2543
aI2544
aI2545
aI2546
aI2547
aI2548
aI2549
aI2550
aI2551
aI2552
aI2553
aI2554
aI2555
aI2556
aI2557
aI2558
aI2559
aI2560
aI2561
aI2562
aI2563
aI2564
aI2565
aI2566
aI2567
aI2568
aI2569
aI2570
aI2571
aI2572
aI2573
aI2574
aI2575
aI2576
aI2577
aI2578
aI2579
aI2580
aI2581
aI2582
aI2583
aI2584
aI2585
aI2586
aI2587
aI2588
aI2589
aI2590
aI2591
aI2592
aI2593
aI2594
aI2595
aI2596
aI2597
aI2598
aI2599
aI2600
aI2601
aI2602
aI2603
aI2604
aI2605
aI2606
aI2607
aI2608
aI2609
aI2610
aI2611
aI2612
aI2613
aI2614
aI2615
aI2616
aI2617
aI2618
aI2619
aI2620
aI2621
aI2622
aI2623
aI2624
aI2625
aI2626
aI2627
aI2628
aI2629
aI2630
aI2631
aI2632
aI2633
aI2634
aI2635
aI2636
aI2637
aI2638
aI2639
aI2640
aI2641
aI2642
aI2643
aI2644
aI2645
aI2646
aI2647
aI2648
aI2649
aI2650
aI2651
aI2652
aI2653
aI2654
aI2655
aI2656
aI2657
aI2658
aI2659
aI2660
aI2661
aI2662
aI2663
aI2664
aI2665
aI2666
aI2667
aI2668
aI2669
aI2670
aI2671
aI2672
aI2673
aI2674
aI2675
aI2676
aI2677
aI2678
aI2679
aI2680
aI2681
aI2682
aI2683
aI2684
aI2685
aI2686
aI2687
aI2688
aI2689
aI2690
aI2691
aI2692
aI2693
aI2694
aI2695
aI2696
aI2697
aI2698
aI2699
aI2700
aI2701
aI2702
aI2703
aI2704
aI2705
aI2706
aI2707
aI2708
aI2709
aI2710
aI2711
aI2712
aI2713
aI2714
aI2715
aI2716
aI2717
aI2718
aI2719
aI2720
aI2721
aI2722
aI2723
aI2724
aI2725
aI2726
aI2727
aI2728
aI2729
aI2730
aI2731
aI2732
aI2733
aI2734
aI2735
aI2736
aI2737
aI2738
aI2739
aI2740
aI2741
aI2742
aI2743
aI2744
aI2745
aI2746
aI2747
aI2748
aI2749
aI2750
aI2751
aI2752
aI2753
aI2754
aI2755
aI2756
aI2757
aI2758
aI2759
aI2760
aI2761
aI2762
aI2763
aI2764
aI2765
aI2766
aI2767
aI2768
aI2769
aI2770
aI2771
aI2772
aI2773
aI2774
aI2775
aI2776
aI2777
aI2778
aI2779
aI2780
aI2781
aI2782
aI2783
aI2784
aI2785
aI2786
aI2787
aI2788
aI2789
aI2790
aI2791
aI2792
aI2793
aI2794
aI2795
aI2796
aI2797
aI2798
aI2799
aI2800
aI2801
aI2802
aI2803
aI2804
aI2805
aI2806
aI2807
aI2808
aI2809
aI2810
aI2811
aI2812
aI2813
aI2814
aI2815
aI2816
aI2817
aI2818
aI2819
aI2820
aI2821
aI2822
aI2823
aI2824
aI2825
aI2826
aI2827
aI2828
aI2829
aI2830
aI2831
aI2832
aI2833
aI2834
aI2835
aI2836
aI2837
aI2838
aI2839
aI2840
aI2841
aI2842
aI2843
aI2844
aI2845
aI2846
aI2847
aI2848
aI2849
aI2850
aI2851
aI2852
aI2853
aI2854
aI2855
aI2856
aI2857
aI2858
aI2859
aI2860
aI2861
aI2862
aI2863
aI2864
aI2865
aI2866
aI2867
aI2868
aI2869
aI2870
aI2871
aI2872
aI2873
aI2874
aI2875
aI2876
aI2877
aI2878
aI2879
aI2880
aI2881
aI2882
aI2883
aI2884
aI2885
aI2886
aI2887
aI2888
aI2889
aI2890
aI2891
aI2892
aI2893
aI2894
aI2895
aI2896
aI2897
aI2898
aI2899
aI2900
aI2901
aI2902
aI2903
aI2904
aI2905
aI2906
aI2907
aI2908
aI2909
aI2910
aI2911
aI2912
aI2913
aI2914
aI2915
aI2916
aI2917
aI2918
aI2919
aI2920
aI2921
aI2922
aI2923
aI2924
aI2925
aI2926
aI2927
aI2928
aI2929
aI2930
aI2931
aI2932
aI2933
aI2934
aI2935
aI2936
aI2937
aI2938
aI2939
aI2940
aI2941
aI2942
aI2943
aI2944
aI2945
aI2946
aI2947
aI2948
aI2949
aI2950
aI2951
aI2952
aI2953
aI2954
aI2955
aI2956
aI2957
aI2958
aI2959
aI2960
aI2961
aI2962
aI2963
aI2964
aI2965
aI2966
aI2967
aI2968
aI2969
aI2970
aI2971
aI2972
aI2973
aI2974
aI2975
aI2976
aI2977
aI2978
aI2979
aI2980
aI2981
aI2982
aI2983
aI2984
aI2985
aI2986
aI2987
aI2988
aI2989
aI2990
aI2991
aI2992
aI2993
aI2994
aI2995
aI2996
aI2997
aI2998
aI2999
aI3000
aI3001
aI3002
aI3003
aI3004
aI3005
aI3006
aI3007
aI3008
aI3009
aI3010
aI3011
aI3012
aI3013
aI3014
aI3015
aI3016
aI3017
aI3018
aI3019
aI3020
aI3021
aI3022
aI3023
aI3024
aI3025
aI3026
aI3027
aI3028
aI3029
aI3030
aI3031
aI3032
aI3033
aI3034
aI3035
aI3036
aI3037
aI3038
aI3039
aI3040
aI3041
aI3042
aI3043
aI3044
aI3045
aI3046
aI3047
aI3048
aI3049
aI3050
aI3051
aI3052
aI3053
aI3054
aI3055
aI3056
aI3057
aI3058
aI3059
aI3060
aI3061
aI3062
aI3063
aI3064
aI3065
aI3066
aI3067
aI3068
aI3069
aI3070
aI3071
aI3072
aI3073
aI3074
aI3075
aI3076
aI3077
aI3078
aI3079
aI3080
aI3081
aI3082
aI3083
aI3084
aI3085
aI3086
aI3087
aI3088
aI3089
aI3090
aI3091
aI3092
aI3093
aI3094
aI3095
aI3096
aI3097
aI3098
aI3099
aI3100
aI3101
aI3102
aI3103
aI3104
aI3105
aI3106
aI3107
aI3108
aI3109
aI3110
aI3111
aI3112
aI3113
aI3114
aI3115
aI3116
aI3117
aI3118
aI3119
aI3120
aI3121
aI3122
aI3123
aI3124
aI3125
aI3126
aI3127
aI3128
aI3129
aI3130
aI3131
aI3132
aI3133
aI3134
aI3135
aI3136
aI3137
aI3138
aI3139
aI3140
aI3141
aI3142
aI3143
aI3144
aI3145
aI3146
aI3147
aI3148
aI3149
aI3150
aI3151
aI3152
aI3153
aI3154
aI3155
aI3156
aI3157
aI3158
aI3159
aI3160
aI3161
aI3162
aI3163
aI3164
aI3165
aI3166
aI3167
aI3168
aI3169
aI3170
aI3171
aI3172
aI3173
aI3174
aI3175
aI3176
aI3177
aI3178
aI3179
aI3180
aI3181
aI3182
aI3183
aI3184
aI3185
aI3186
aI3187
aI3188
aI3189
aI3190
aI3191
aI3192
aI3193
aI3194
aI3195
aI3196
aI3197
aI3198
aI3199
aI3200
aI3201
aI3202
aI3203
aI3204
aI3205
aI3206
aI3207
aI3208
aI3209
aI3210
aI3211
aI3212
aI3213
aI3214
aI3215
aI3216
aI3217
aI3218
aI3219
aI3220
aI3221
aI3222
aI3223
aI3224
aI3225
aI3226
aI3227
aI3228
aI3229
aI3230
aI3231
aI3232
aI3233
aI3234
aI3235
aI3236
aI3237
aI3238
aI3239
aI3240
aI3241
aI3242
aI3243
aI3244
aI3245
aI3246
aI3247
aI3248
aI3249
aI3250
aI3251
aI3252
aI3253
aI3254
aI3255
aI3256
aI3257
aI3258
aI3259
aI3260
aI3261
aI3262
aI3263
aI3264
aI3265
a.(lp0
I1740
aI1740
aI1740
aI1804
aI1896
aI2012
aI2016
aI2028
aI2056
aI2152
aI2212
aI2252
aI2268
aI2260
aI2256
aI2248
aI2232
aI2232
aI2244
aI2260
aI2260
aI2268
aI2268
aI2256
aI2252
aI2248
aI2244
aI2244
aI2252
aI2252
aI2252
aI2252
aI2244
aI2240
aI2232
aI2232
aI2232
aI2244
aI2256
aI2256
aI2252
aI2232
aI2200
aI2200
aI2208
aI2212
aI2212
aI2212
aI2212
aI2212
aI2208
aI2208
aI2208
aI2208
aI2188
aI2176
aI2168
aI2112
aI2084
aI2076
aI2068
aI2068
aI2068
aI2068
aI2052
aI2052
aI2044
aI2028
aI2016
aI2008
aI1984
aI1980
aI1960
aI1936
aI1936
aI1936
aI1936
aI1920
aI1900
aI1900
aI1892
aI1856
aI1856
aI1856
aI1856
aI1816
aI1776
aI1776
aI1752
aI1752
aI1732
aI1696
aI1692
aI1692
aI1684
aI1676
aI1672
aI1680
aI1720
aI1720
aI1720
aI1768
aI1784
aI1848
aI1848
aI1848
aI1848
aI1836
aI1836
aI1820
aI1820
aI1820
aI1828
aI1852
aI1856
aI1876
aI1880
aI1880
aI1884
aI1920
aI1952
aI1952
aI1960
aI1984
aI1984
aI1984
aI1984
aI1996
aI2000
aI2016
aI2028
aI2036
aI2036
aI2044
aI2052
aI2068
aI2080
aI2108
aI2124
aI2124
aI2124
aI2124
aI2124
aI2116
aI2116
aI2116
aI2128
aI2148
aI2168
aI2168
aI2176
aI2216
aI2224
aI2216
aI2204
aI2200
aI2200
aI2200
aI2208
aI2208
aI2224
aI2224
aI2216
aI2216
aI2212
aI2212
aI2228
aI2244
aI2244
aI2232
aI2208
aI2208
aI2220
aI2256
aI2256
aI2252
aI2232
aI2220
aI2220
aI2228
aI2248
aI2244
aI2236
aI2256
aI2260
aI2292
aI2288
aI2284
aI2280
aI2268
aI2268
aI2268
aI2268
aI2268
aI2268
aI2292
aI2276
aI2268
aI2268
aI2276
aI2280
aI2268
aI2276
aI2276
aI2272
aI2276
aI2276
aI2308
aI2300
aI2300
aI2300
aI2312
aI2284
aI2284
aI2260
aI2260
aI2260
aI2292
aI2316
aI2308
aI2300
aI2296
aI2308
aI2324
aI2308
aI2284
aI2280
aI2268
aI2284
aI2284
aI2272
aI2268
aI2244
aI2232
aI2208
aI2208
aI2208
aI2216
aI2224
aI2216
aI2200
aI2164
aI2164
aI2176
aI2216
aI2216
aI2220
aI2216
aI2220
aI2220
aI2192
aI2192
aI2172
aI2168
aI2152
aI2152
aI2152
aI2152
aI2152
aI2152
aI2152
aI2152
aI2152
aI2140
aI2140
aI2140
aI2140
aI2132
aI2104
aI2100
aI2100
aI2096
aI2092
aI2084
aI2060
aI2060
aI2060
aI2060
aI2060
aI2060
aI2060
aI2060
aI2060
aI2060
aI2060
aI2060
aI2084
aI2100
aI2100
aI2100
aI2092
aI2080
aI2076
aI2068
aI2068
aI2064
aI2052
aI2052
aI2052
aI2052
aI2052
aI2048
aI2044
aI2028
aI2028
aI2028
aI2028
aI2028
aI2024
aI2016
aI2016
aI2016
aI2036
aI2052
aI2060
aI2084
aI2084
aI2084
aI2084
aI2076
aI2068
aI2068
aI2068
aI2068
aI2068
aI2068
aI2068
aI2068
aI2068
aI2060
aI2044
aI2044
aI2036
aI2032
aI2032
aI2032
aI2032
aI2032
aI2032
aI2028
aI2028
aI2028
aI2028
aI2028
aI2028
aI2028
aI2028
aI2028
aI2044
aI2060
aI2044
aI2012
aI2000
aI2000
aI1992
aI1972
aI1916
aI1912
aI1884
aI1848
aI1848
aI1844
aI1836
aI1788
aI1732
aI1732
aI1732
aI1728
aI1728
aI1728
aI1720
aI1712
aI1692
aI1692
aI1692
aI1636
aI1636
aI1624
aI1612
aI1604
aI1600
aI1592
aI1580
aI1580
aI1552
aI1544
aI1544
aI1496
aI1496
aI1472
aI1464
aI1440
aI1440
aI1436
aI1448
aI1448
aI1448
aI1416
aI1412
aI1412
aI1412
aI1412
aI1400
aI1396
aI1360
aI1352
aI1336
aI1336
aI1344
aI1344
aI1348
aI1348
aI1328
aI1348
aI1352
aI1352
aI1344
aI1328
aI1312
aI1312
aI1312
aI1312
aI1312
aI1312
aI1308
aI1288
aI1288
aI1288
aI1288
aI1280
aI1280
aI1280
aI1280
aI1280
aI1280
aI1280
aI1304
aI1304
aI1288
aI1288
aI1312
aI1312
aI1320
aI1320
aI1320
aI1320
aI1320
aI1320
aI1324
aI1348
aI1348
aI1348
aI1348
aI1348
aI1348
aI1360
aI1360
aI1368
aI1396
aI1428
aI1440
aI1452
aI1452
aI1444
aI1444
aI1444
aI1448
aI1452
aI1480
aI1504
aI1512
aI1520
aI1528
aI1544
aI1544
aI1552
aI1584
aI1592
aI1812
aI1824
aI1876
aI1948
aI1948
aI1948
aI1952
aI1956
aI1980
aI1992
aI1976
aI1984
aI2032
aI2036
aI2036
aI2056
aI2056
aI2068
aI2072
aI2072
aI2072
aI2068
aI2072
aI2084
aI2092
aI2084
aI2084
aI2084
aI2084
aI2084
aI2084
aI2084
aI2084
aI2088
aI2088
aI2092
aI2100
aI2100
aI2100
aI2116
aI2120
aI2120
aI2124
aI2144
aI2168
aI2172
aI2172
aI2172
aI2172
aI2172
aI2176
aI2180
aI2180
aI2180
aI2184
aI2184
aI2184
aI2188
aI2184
aI2168
aI2168
aI2168
aI2168
aI2168
aI2152
aI2152
aI2160
aI2172
aI2192
aI2192
aI2192
aI2200
aI2200
aI2216
aI2232
aI2236
aI2236
aI2236
aI2212
aI2208
aI2208
aI2204
aI2200
aI2176
aI2168
aI2168
aI2168
aI2168
aI2168
aI2156
aI2144
aI2144
aI2144
aI2140
aI2124
aI2124
aI2124
aI2124
aI2124
aI2124
aI2132
aI2132
aI2124
aI2116
aI2104
aI2100
aI2100
aI2100
aI2100
aI2100
aI2100
aI2100
aI2068
aI2036
aI2036
aI2036
aI2036
aI2040
aI2040
aI2040
aI2040
aI2000
aI2000
aI1996
aI1992
aI1984
aI1984
aI1968
aI1936
aI1936
aI1936
aI1928
aI1912
aI1896
aI1868
aI1864
aI1816
aI1808
aI1808
aI1808
aI1800
aI1784
aI1744
aI1740
aI1740
aI1736
aI1736
aI1736
aI1732
aI1732
aI1728
aI1712
aI1692
aI1692
aI1684
aI1672
aI1668
aI1668
aI1676
aI1712
aI1712
aI1712
aI1696
aI1656
aI1628
aI1616
aI1616
aI1588
aI1568
aI1536
aI1520
aI1520
aI1520
aI1520
aI1500
aI1500
aI1496
aI1472
aI1472
aI1472
aI1468
aI1456
aI1444
aI1444
aI1444
aI1440
aI1424
aI1420
aI1420
aI1420
aI1444
aI1452
aI1456
aI1460
aI1460
aI1460
aI1460
aI1460
aI1460
aI1460
aI1460
aI1460
aI1468
aI1492
aI1508
aI1512
aI1512
aI1540
aI1616
aI1616
aI1616
aI1616
aI1616
aI1632
aI1636
aI1644
aI1652
aI1672
aI1700
aI1716
aI1720
aI1728
aI1728
aI1728
aI1736
aI1760
aI1772
aI1772
aI1792
aI1804
aI1820
aI1856
aI1892
aI1920
aI1936
aI1944
aI1952
aI1952
aI1960
aI1964
aI1968
aI1992
aI1968
aI1956
aI1996
aI2008
aI2008
aI2068
aI2080
aI2084
aI2092
aI2100
aI2100
aI2116
aI2116
aI2116
aI2116
aI2180
aI2180
aI2168
aI2160
aI2152
aI2148
aI2144
aI2152
aI2156
aI2164
aI2168
aI2204
aI2208
aI2208
aI2208
aI2216
aI2276
aI2276
aI2236
aI2224
aI2212
aI2212
aI2208
aI2208
aI2204
aI2200
aI2192
aI2156
aI2152
aI2152
aI2120
aI2112
aI2100
aI2100
aI2120
aI2152
aI2168
aI2084
aI2084
aI2104
aI2144
aI2152
aI2156
aI2092
aI2092
aI2124
aI2120
aI2112
aI2144
aI2144
aI2088
aI2080
aI2044
aI1976
aI1976
aI1980
aI1988
aI1984
aI1980
aI1980
aI1936
aI1936
aI1936
aI1936
aI1936
aI1944
aI1952
aI1956
aI1956
aI1960
aI1960
aI1960
aI1924
aI1920
aI1920
aI1920
aI1880
aI1844
aI1844
aI1844
aI1844
aI1832
aI1808
aI1800
aI1800
aI1792
aI1788
aI1768
aI1768
aI1720
aI1692
aI1692
aI1692
aI1676
aI1656
aI1656
aI1656
aI1656
aI1656
aI1656
aI1656
aI1656
aI1656
aI1656
aI1656
aI1652
aI1644
aI1644
aI1644
aI1644
aI1644
aI1644
aI1644
aI1652
aI1660
aI1712
aI1720
aI1720
aI1720
aI1720
aI1700
aI1684
aI1668
aI1664
aI1660
aI1660
aI1660
aI1660
aI1668
aI1668
aI1672
aI1672
aI1672
aI1672
aI1676
aI1696
aI1696
aI1696
aI1696
aI1708
aI1716
aI1728
aI1728
aI1728
aI1728
aI1728
aI1728
aI1720
aI1720
aI1720
aI1720
aI1720
aI1720
aI1720
aI1716
aI1712
aI1712
aI1712
aI1712
aI1656
aI1668
aI1668
aI1668
aI1652
aI1616
aI1612
aI1612
aI1596
aI1588
aI1588
aI1588
aI1588
aI1588
aI1588
aI1588
aI1620
aI1652
aI1660
aI1664
aI1664
aI1576
aI1584
aI1596
aI1596
aI1604
aI1604
aI1568
aI1520
aI1520
aI1520
aI1520
aI1496
aI1496
aI1496
aI1536
aI1536
aI1536
aI1488
aI1480
aI1476
aI1452
aI1452
aI1452
aI1460
aI1476
aI1480
aI1512
aI1532
aI1532
aI1536
aI1520
aI1500
aI1464
aI1444
aI1444
aI1444
aI1456
aI1464
aI1476
aI1488
aI1488
aI1492
aI1480
aI1476
aI1476
aI1476
aI1496
aI1516
aI1528
aI1536
aI1540
aI1540
aI1540
aI1540
aI1580
aI1592
aI1600
aI1588
aI1592
aI1592
aI1592
aI1604
aI1608
aI1608
aI1608
aI1608
aI1608
aI1656
aI1660
aI1648
aI1612
aI1604
aI1648
aI1652
aI1652
aI1652
aI1672
aI1720
aI1736
aI1752
aI1752
aI1752
aI1760
aI1776
aI1776
aI1776
aI1776
aI1784
aI1784
aI1836
aI1836
aI1844
aI1868
aI1868
aI1868
aI1916
aI1920
aI1920
aI1920
aI1944
aI1948
aI1948
aI1948
aI1952
aI1956
aI1956
aI1944
aI1944
aI1956
aI1956
aI1960
aI2060
aI2068
aI2056
aI2064
aI2108
aI2096
aI2060
aI2060
aI2060
aI2060
aI2060
aI2060
aI2060
aI2068
aI2156
aI2156
aI2168
aI2168
aI2152
aI2152
aI2152
aI2124
aI2116
aI2112
aI2084
aI2076
aI2092
aI2100
aI2084
aI2116
aI2120
aI2128
aI2128
aI2132
aI2072
aI2072
aI2080
aI2108
aI2108
aI2132
aI2116
aI2144
aI2152
aI2140
aI2140
aI2124
aI2120
aI2084
aI2084
aI2064
aI2044
aI2052
aI2004
aI2016
aI2028
aI2012
aI1996
aI1984
aI1968
aI1952
aI1952
aI1952
aI1952
aI1952
aI1952
aI1952
aI1952
aI1952
aI1952
aI1952
aI1968
aI1976
aI1980
aI1984
aI1984
aI1984
aI1984
aI1956
aI1948
aI1912
aI1908
aI1908
aI1908
aI1904
aI1884
aI1884
aI1880
aI1868
aI1828
aI1820
aI1820
aI1820
aI1800
aI1772
aI1768
aI1764
aI1756
aI1752
aI1752
aI1752
aI1768
aI1788
aI1788
aI1768
aI1728
aI1724
aI1724
aI1724
aI1720
aI1708
aI1692
aI1676
aI1676
aI1664
aI1660
aI1660
aI1652
aI1648
aI1640
aI1636
aI1636
aI1636
aI1636
aI1644
aI1644
aI1644
aI1644
aI1652
aI1656
aI1660
aI1660
aI1660
aI1652
aI1632
aI1596
aI1536
aI1512
aI1500
aI1500
aI1500
aI1500
aI1500
aI1504
aI1568
aI1576
aI1576
aI1576
aI1576
aI1576
aI1568
aI1564
aI1564
aI1564
aI1564
aI1568
aI1576
aI1576
aI1576
aI1576
aI1576
aI1564
aI1544
aI1544
aI1544
aI1544
aI1552
aI1552
aI1552
aI1552
aI1560
aI1560
aI1564
aI1568
aI1592
aI1592
aI1632
aI1640
aI1640
aI1640
aI1640
aI1676
aI1692
aI1692
aI1692
aI1692
aI1692
aI1724
aI1720
aI1724
aI1724
aI1724
aI1716
aI1700
aI1696
aI1696
aI1696
aI1684
aI1676
aI1676
aI1676
aI1676
aI1736
aI1744
aI1764
aI1764
aI1768
aI1756
aI1756
aI1724
aI1720
aI1708
aI1704
aI1700
aI1692
aI1648
aI1644
aI1644
aI1604
aI1596
aI1596
aI1596
aI1596
aI1596
aI1596
aI1596
aI1592
aI1588
aI1576
aI1552
aI1552
aI1544
aI1544
aI1528
aI1512
aI1512
aI1512
aI1504
aI1488
aI1464
aI1452
aI1452
aI1452
aI1432
aI1428
aI1428
aI1428
aI1440
aI1452
aI1404
aI1404
aI1404
aI1404
aI1420
aI1420
aI1420
aI1404
aI1404
aI1404
aI1404
aI1404
aI1404
aI1412
aI1432
aI1432
aI1440
aI1452
aI1452
aI1452
aI1464
aI1480
aI1492
aI1504
aI1512
aI1536
aI1540
aI1540
aI1540
aI1564
aI1564
aI1564
aI1564
aI1564
aI1564
aI1612
aI1620
aI1636
aI1636
aI1636
aI1652
aI1668
aI1612
aI1580
aI1612
aI1640
aI1640
aI1640
aI1636
aI1640
aI1660
aI1660
aI1676
aI1676
aI1728
aI1752
aI1752
aI1744
aI1728
aI1728
aI1744
aI1792
aI1796
aI1796
aI1796
aI1796
aI1840
aI1852
aI1852
aI1852
aI1860
aI1860
aI1860
aI1868
aI1868
aI1876
aI1876
aI1880
aI1880
aI1880
aI1880
aI1880
aI1880
aI1880
aI1916
aI1928
aI1928
aI1928
aI1928
aI1920
aI1876
aI1876
aI1880
aI1884
aI1884
aI1892
aI1920
aI1928
aI1928
aI1928
aI1932
aI1936
aI1936
aI1940
aI1944
aI1944
aI1944
aI1944
aI1948
aI1968
aI1976
aI1980
aI1960
aI1952
aI1948
aI1960
aI1976
aI1984
aI1996
aI1996
aI2016
aI2008
aI2008
aI2020
aI1992
aI1992
aI1992
aI1984
aI1984
aI1992
aI1996
aI1996
aI1996
aI1996
aI1996
aI1996
aI1996
aI1996
aI1996
aI1996
aI1996
aI1996
aI1996
aI1996
aI1996
aI2000
aI2020
aI2024
aI2024
aI2016
aI2016
aI2016
aI2008
aI2004
aI2000
aI2000
aI2000
aI2000
aI2000
aI1996
aI1996
aI1996
aI1992
aI1992
aI1992
aI2000
aI2000
aI2000
aI2000
aI2000
aI2000
aI2000
aI1992
aI1992
aI1992
aI1988
aI1988
aI1988
aI1988
aI1988
aI1968
aI1964
aI1952
aI1936
aI1904
aI1892
aI1892
aI1876
aI1864
aI1860
aI1856
aI1848
aI1844
aI1840
aI1836
aI1836
aI1832
aI1828
aI1828
aI1792
aI1704
aI1704
aI1704
aI1704
aI1704
aI1704
aI1668
aI1664
aI1664
aI1692
aI1736
aI1736
aI1736
aI1736
aI1728
aI1728
aI1728
aI1704
aI1704
aI1704
aI1704
aI1688
aI1684
aI1684
aI1656
aI1636
aI1624
aI1612
aI1588
aI1584
aI1560
aI1536
aI1536
aI1536
aI1544
aI1544
aI1556
aI1568
aI1588
aI1588
aI1596
aI1600
aI1600
aI1604
aI1604
aI1604
aI1604
aI1604
aI1604
aI1584
aI1584
aI1604
aI1628
aI1636
aI1660
aI1672
aI1672
aI1672
aI1672
aI1676
aI1684
aI1688
aI1692
aI1692
aI1692
aI1704
aI1720
aI1732
aI1740
aI1740
aI1752
aI1760
aI1792
aI1832
aI1844
aI1844
aI1844
aI1848
aI1856
aI1872
aI1892
aI1904
aI1928
aI1936
aI1944
aI1980
aI1980
aI1984
aI1984
aI1984
aI1984
aI1988
aI1992
aI1992
aI2000
aI2000
aI2000
aI2000
aI2000
aI2000
aI2000
aI2012
aI2016
aI2020
aI2028
aI2036
aI2036
aI2036
aI2036
aI2036
aI2036
aI2036
aI2040
aI2044
aI2044
aI2052
aI2060
aI2068
aI2068
aI2068
aI2068
aI2052
aI2052
aI2048
aI2036
aI1992
aI1992
aI1992
aI2004
aI2012
aI2016
aI2016
aI2016
aI2016
aI2016
aI2016
aI2016
aI1944
aI1936
aI1936
aI1932
aI1884
aI1848
aI1840
aI1840
aI1840
aI1800
aI1768
aI1768
aI1768
aI1736
aI1736
aI1732
aI1728
aI1720
aI1716
aI1716
aI1716
aI1712
aI1712
aI1716
aI1716
aI1716
aI1716
aI1716
aI1712
aI1692
aI1692
aI1692
aI1692
aI1692
aI1696
aI1704
aI1708
aI1692
aI1656
aI1648
aI1648
aI1648
aI1672
aI1728
aI1732
aI1732
aI1732
aI1756
aI1764
aI1764
aI1764
aI1760
aI1752
aI1752
aI1752
aI1764
aI1800
aI1832
aI1836
aI1840
aI1860
aI1868
aI1884
aI1892
aI1908
aI1912
aI1912
aI1920
aI1928
aI1932
aI1932
aI1932
aI1940
aI1944
aI1944
aI1952
aI1952
aI1952
aI1952
aI1960
aI1960
aI1964
aI1984
aI1996
aI2016
aI2036
aI2040
aI2052
aI2060
aI2068
aI2076
aI2076
aI2084
a.(lp0
I840
aI840
aI840
aI824
aI788
aI780
aI780
aI780
aI792
aI836
aI844
aI844
aI844
aI844
aI844
aI844
aI852
aI852
aI860
aI896
aI904
aI920
aI944
aI960
aI972
aI972
aI1008
aI1020
aI1020
aI1020
aI1020
aI1020
aI1028
aI1032
aI1044
aI1044
aI1044
aI1044
aI1048
aI1048
aI1048
aI1048
aI1028
aI1024
aI1008
aI960
aI960
aI960
aI960
aI968
aI984
aI984
aI988
aI988
aI1004
aI1020
aI1024
aI1000
aI988
aI988
aI1008
aI1012
aI1020
aI1024
aI1036
aI1036
aI1040
aI1052
aI1060
aI1060
aI1080
aI1080
aI1084
aI1084
aI1084
aI1084
aI1084
aI1068
aI1052
aI1052
aI1048
aI1036
aI1036
aI1036
aI1036
aI1040
aI1048
aI1048
aI1052
aI1052
aI1060
aI1068
aI1068
aI1068
aI1080
aI1088
aI1092
aI1080
aI948
aI948
aI944
aI928
aI928
aI896
aI896
aI896
aI888
aI872
aI872
aI864
aI864
aI852
aI824
aI808
aI804
aI788
aI788
aI788
aI784
aI764
aI756
aI756
aI752
aI740
aI740
aI740
aI732
aI732
aI732
aI728
aI728
aI728
aI728
aI728
aI724
aI720
aI720
aI716
aI712
aI712
aI712
aI712
aI712
aI712
aI712
aI712
aI708
aI704
aI700
aI700
aI700
aI704
aI688
aI656
aI636
aI636
aI632
aI628
aI616
aI616
aI580
aI572
aI572
aI572
aI572
aI572
aI580
aI592
aI592
aI592
aI600
aI600
aI600
aI600
aI600
aI600
aI608
aI636
aI636
aI628
aI620
aI620
aI600
aI612
aI628
aI656
aI660
aI660
aI664
aI696
aI680
aI680
aI680
aI680
aI680
aI664
aI664
aI672
aI672
aI672
aI672
aI688
aI688
aI688
aI728
aI740
aI740
aI748
aI764
aI764
aI764
aI764
aI756
aI756
aI780
aI780
aI788
aI804
aI836
aI884
aI888
aI888
aI876
aI876
aI884
aI860
aI860
aI860
aI860
aI872
aI888
aI920
aI948
aI964
aI980
aI980
aI996
aI1004
aI1004
aI1004
aI1004
aI996
aI996
aI992
aI1004
aI1004
aI1004
aI996
aI984
aI984
aI984
aI984
aI980
aI980
aI1004
aI1008
aI1016
aI1028
aI1032
aI1032
aI1032
aI1032
aI1032
aI1036
aI1028
aI1020
aI1020
aI1020
aI1024
aI1024
aI1024
aI1024
aI1028
aI1028
aI1028
aI1028
aI1028
aI1028
aI1028
aI1028
aI1028
aI1028
aI1028
aI1028
aI1028
aI1028
aI1028
aI1028
aI1028
aI1028
aI1020
aI1000
aI1000
aI996
aI996
aI996
aI988
aI984
aI984
aI980
aI976
aI972
aI972
aI960
aI960
aI960
aI960
aI960
aI956
aI948
aI944
aI944
aI936
aI928
aI928
aI928
aI928
aI928
aI924
aI924
aI920
aI912
aI888
aI872
aI872
aI872
aI872
aI872
aI872
aI856
aI852
aI848
aI840
aI836
aI836
aI832
aI832
aI832
aI832
aI860
aI900
aI900
aI900
aI892
aI880
aI872
aI852
aI852
aI852
aI884
aI892
aI900
aI864
aI860
aI852
aI864
aI896
aI896
aI896
aI896
aI896
aI904
aI920
aI940
aI952
aI952
aI952
aI952
aI952
aI952
aI952
aI952
aI936
aI936
aI936
aI932
aI932
aI932
aI944
aI944
aI944
aI952
aI952
aI952
aI952
aI952
aI952
aI952
aI952
aI960
aI964
aI972
aI972
aI984
aI996
aI996
aI996
aI988
aI988
aI988
aI988
aI980
aI932
aI932
aI944
aI948
aI972
aI976
aI980
aI980
aI960
aI960
aI944
aI908
aI908
aI892
aI880
aI880
aI888
aI892
aI888
aI872
aI844
aI836
aI828
aI768
aI768
aI768
aI768
aI796
aI796
aI796
aI796
aI792
aI792
aI792
aI784
aI784
aI816
aI816
aI780
aI776
aI732
aI732
aI728
aI728
aI680
aI680
aI660
aI616
aI612
aI612
aI612
aI588
aI588
aI564
aI564
aI560
aI560
aI552
aI540
aI512
aI504
aI468
aI464
aI444
aI424
aI412
aI396
aI380
aI372
aI348
aI340
aI304
aI300
aI268
aI236
aI232
aI240
aI240
aI228
aI232
aI232
aI232
aI260
aI268
aI268
aI296
aI280
aI280
aI324
aI332
aI388
aI456
aI456
aI448
aI448
aI448
aI456
aI492
aI504
aI536
aI548
aI572
aI584
aI584
aI584
aI588
aI588
aI600
aI604
aI604
aI612
aI628
aI636
aI636
aI640
aI680
aI712
aI756
aI796
aI892
aI936
aI936
aI936
aI936
aI936
aI936
aI944
aI948
aI952
aI952
aI972
aI972
aI980
aI988
aI1016
aI1036
aI1040
aI1044
aI1048
aI1052
aI1028
aI1024
aI1024
aI1036
aI1060
aI1060
aI1060
aI1084
aI1088
aI1112
aI1160
aI1176
aI1180
aI1200
aI1252
aI1260
aI1260
aI1268
aI1268
aI1356
aI1432
aI1432
aI1432
aI1432
aI1432
aI1432
aI1412
aI1412
aI1412
aI1388
aI1352
aI1352
aI1352
aI1352
aI1352
aI1352
aI1352
aI1352
aI1344
aI1328
aI1300
aI1296
aI1264
aI1256
aI1252
aI1240
aI1224
aI1224
aI1224
aI1216
aI1216
aI1216
aI1204
aI1196
aI1196
aI1196
aI1196
aI1168
aI1168
aI1168
aI1172
aI1172
aI1172
aI1176
aI1180
aI1180
aI1180
aI1180
aI1192
aI1212
aI1232
aI1236
aI1268
aI1276
aI1276
aI1276
aI1280
aI1280
aI1268
aI1268
aI1268
aI1268
aI1268
aI1268
aI1284
aI1292
aI1296
aI1312
aI1320
aI1320
aI1328
aI1336
aI1336
aI1336
aI1352
aI1384
aI1384
aI1408
aI1412
aI1404
aI1384
aI1364
aI1360
aI1344
aI1336
aI1332
aI1328
aI1328
aI1328
aI1328
aI1312
aI1312
aI1312
aI1304
aI1304
aI1304
aI1304
aI1300
aI1292
aI1292
aI1292
aI1292
aI1288
aI1284
aI1284
aI1276
aI1236
aI1216
aI1212
aI1208
aI1208
aI1188
aI1176
aI1176
aI1176
aI1176
aI1176
aI1164
aI1156
aI1124
aI1112
aI1108
aI1104
aI1096
aI1060
aI1060
aI1060
aI1060
aI1060
aI1048
aI1044
aI1044
aI1036
aI1028
aI1008
aI988
aI984
aI980
aI976
aI976
aI964
aI944
aI924
aI920
aI900
aI888
aI872
aI852
aI836
aI816
aI808
aI804
aI804
aI812
aI828
aI828
aI828
aI828
aI868
aI896
aI888
aI896
aI900
aI928
aI932
aI932
aI924
aI924
aI924
aI932
aI932
aI932
aI932
aI984
aI988
aI988
aI988
aI992
aI996
aI1020
aI1052
aI1064
aI1076
aI1080
aI1096
aI1096
aI1120
aI1120
aI1120
aI1112
aI1108
aI1140
aI1156
aI1176
aI1176
aI1184
aI1204
aI1240
aI1244
aI1244
aI1248
aI1248
aI1248
aI1252
aI1284
aI1356
aI1360
aI1384
aI1408
aI1420
aI1440
aI1440
aI1412
aI1392
aI1392
aI1392
aI1404
aI1384
aI1348
aI1344
aI1344
aI1296
aI1276
aI1284
aI1260
aI1260
aI1236
aI1236
aI1236
aI1216
aI1188
aI1176
aI1152
aI1088
aI1088
aI1088
aI1088
aI1084
aI1064
aI1052
aI1044
aI1040
aI984
aI976
aI972
aI916
aI912
aI912
aI912
aI864
aI824
aI824
aI824
aI824
aI812
aI772
aI744
aI744
aI724
aI720
aI700
aI700
aI672
aI656
aI656
aI652
aI620
aI604
aI604
aI600
aI600
aI600
aI600
aI600
aI600
aI600
aI600
aI600
aI600
aI600
aI600
aI608
aI620
aI624
aI648
aI648
aI664
aI672
aI740
aI748
aI748
aI748
aI748
aI764
aI796
aI820
aI840
aI888
aI888
aI896
aI936
aI960
aI960
aI960
aI960
aI960
aI960
aI968
aI1020
aI1020
aI1020
aI1020
aI1044
aI1080
aI1116
aI1116
aI1116
aI1116
aI1116
aI1120
aI1156
aI1180
aI1184
aI1184
aI1184
aI1184
aI1184
aI1192
aI1232
aI1260
aI1260
aI1260
aI1236
aI1244
aI1244
aI1244
aI1240
aI1240
aI1240
aI1240
aI1260
aI1296
aI1328
aI1336
aI1336
aI1336
aI1336
aI1336
aI1340
aI1328
aI1320
aI1312
aI1308
aI1284
aI1272
aI1252
aI1252
aI1228
aI1228
aI1220
aI1204
aI1204
aI1204
aI1204
aI1188
aI1188
aI1188
aI1136
aI1136
aI1136
aI1108
aI1100
aI1100
aI1096
aI1092
aI1092
aI1060
aI1036
aI1028
aI1036
aI1064
aI1068
aI1068
aI1040
aI1020
aI1008
aI1016
aI1016
aI1016
aI1000
aI972
aI952
aI928
aI924
aI908
aI896
aI892
aI892
aI888
aI884
aI888
aI892
aI872
aI872
aI872
aI872
aI872
aI876
aI872
aI864
aI872
aI864
aI860
aI860
aI844
aI824
aI824
aI824
aI824
aI824
aI876
aI876
aI872
aI860
aI868
aI880
aI880
aI880
aI880
aI884
aI896
aI884
aI860
aI852
aI832
aI828
aI824
aI824
aI824
aI824
aI820
aI820
aI820
aI820
aI816
aI804
aI804
aI804
aI772
aI772
aI772
aI772
aI772
aI772
aI772
aI772
aI772
aI772
aI772
aI756
aI756
aI756
aI756
aI756
aI812
aI792
aI768
aI756
aI720
aI720
aI740
aI744
aI744
aI744
aI744
aI744
aI744
aI744
aI836
aI836
aI900
aI900
aI888
aI888
aI900
aI944
aI944
aI948
aI972
aI988
aI1064
aI1076
aI1080
aI1036
aI1020
aI996
aI992
aI964
aI976
aI976
aI976
aI996
aI1040
aI1064
aI1080
aI1088
aI1112
aI1140
aI1148
aI1148
aI1152
aI1152
aI1152
aI1160
aI1176
aI1212
aI1208
aI1196
aI1196
aI1196
aI1200
aI1200
aI1192
aI1164
aI1148
aI1148
aI1148
aI1148
aI1148
aI1148
aI1148
aI1148
aI1148
aI1148
aI1156
aI1160
aI1152
aI1132
aI1132
aI1120
aI1112
aI1060
aI1044
aI1012
aI1012
aI1012
aI1012
aI1004
aI996
aI996
aI992
aI992
aI992
aI988
aI988
aI988
aI984
aI980
aI980
aI980
aI980
aI980
aI980
aI980
aI996
aI1000
aI1004
aI1012
aI1012
aI1012
aI1012
aI1012
aI1012
aI1016
aI1028
aI1040
aI1044
aI1044
aI1044
aI1048
aI1052
aI1052
aI1056
aI1056
aI1060
aI1060
aI1060
aI1060
aI1060
aI1052
aI1052
aI1044
aI1040
aI1036
aI1036
aI1036
aI1044
aI1048
aI1048
aI1048
aI1044
aI1040
aI1040
aI1040
aI1040
aI1040
aI1036
aI1024
aI1024
aI1024
aI1024
aI1024
aI1024
aI1016
aI988
aI988
aI988
aI988
aI976
aI960
aI960
aI960
aI960
aI960
aI948
aI936
aI936
aI936
aI924
aI920
aI920
aI916
aI912
aI908
aI908
aI892
aI880
aI864
aI864
aI852
aI852
aI852
aI852
aI852
aI828
aI820
aI820
aI820
aI820
aI820
aI832
aI852
aI860
aI864
aI872
aI888
aI904
aI912
aI912
aI912
aI936
aI980
aI980
aI980
aI980
aI1028
aI1040
aI1100
aI1100
aI1112
aI1144
aI1144
aI1148
aI1148
aI1148
aI1160
aI1164
aI1180
aI1244
aI1252
aI1252
aI1256
aI1256
aI1256
aI1256
aI1256
aI1256
aI1256
aI1256
aI1256
aI1260
aI1264
aI1276
aI1276
aI1280
aI1284
aI1308
aI1340
aI1360
aI1368
aI1376
aI1376
aI1376
aI1376
aI1376
aI1376
aI1368
aI1368
aI1344
aI1320
aI1304
aI1296
aI1276
aI1228
aI1228
aI1220
aI1188
aI1188
aI1180
aI1156
aI1148
aI1116
aI1116
aI1116
aI1112
aI1104
aI1088
aI1088
aI1060
aI1012
aI1012
aI1012
aI1000
aI988
aI972
aI964
aI952
aI920
aI912
aI912
aI912
aI904
aI904
aI904
aI904
aI904
aI904
aI892
aI888
aI880
aI880
aI880
aI888
aI888
aI884
aI852
aI844
aI856
aI856
aI856
aI864
aI872
aI888
aI900
aI920
aI932
aI984
aI972
aI972
aI956
aI932
aI932
aI920
aI936
aI936
aI936
aI936
aI936
aI952
aI936
aI936
aI936
aI928
aI928
aI928
aI928
aI928
aI928
aI928
aI964
aI972
aI972
aI972
aI972
aI972
aI972
aI1020
aI1044
aI1044
aI1044
aI1044
aI1044
aI1032
aI1020
aI1016
aI1012
aI1012
aI1024
aI1068
aI1080
aI1080
aI1080
aI1080
aI1080
aI1080
aI1104
aI1104
aI1104
aI1104
aI1104
aI1124
aI1148
aI1176
aI1176
aI1168
aI1168
aI1156
aI1164
aI1188
aI1188
aI1192
aI1192
aI1192
aI1212
aI1216
aI1212
aI1216
aI1216
aI1220
aI1256
aI1260
aI1260
aI1260
aI1260
aI1260
aI1260
aI1260
aI1260
aI1260
aI1260
aI1260
aI1260
aI1260
aI1260
aI1260
aI1260
aI1260
aI1264
aI1304
aI1308
aI1312
aI1316
aI1316
aI1320
aI1328
aI1352
aI1356
aI1364
aI1368
aI1368
aI1368
aI1380
aI1392
aI1404
aI1420
aI1420
aI1428
aI1472
aI1472
aI1472
aI1472
aI1472
aI1472
aI1472
aI1472
aI1472
aI1472
aI1476
aI1476
aI1476
aI1476
aI1476
aI1496
aI1504
aI1512
aI1520
aI1532
aI1536
aI1536
aI1536
aI1536
aI1540
aI1544
aI1548
aI1556
aI1560
aI1568
aI1568
aI1576
aI1576
aI1576
aI1584
aI1552
aI1548
aI1548
aI1548
aI1548
aI1548
aI1548
aI1544
aI1544
aI1552
aI1556
aI1556
aI1556
aI1556
aI1556
aI1556
aI1556
aI1560
aI1560
aI1568
aI1568
aI1544
aI1544
aI1544
aI1520
aI1480
aI1468
aI1468
aI1484
aI1492
aI1496
aI1496
aI1492
aI1492
aI1484
aI1484
aI1484
aI1480
aI1476
aI1476
aI1468
aI1464
aI1460
aI1444
aI1416
aI1404
aI1400
aI1400
aI1400
aI1360
aI1352
aI1340
aI1328
aI1320
aI1296
aI1260
aI1260
aI1260
aI1260
aI1256
aI1236
aI1232
aI1216
aI1196
aI1184
aI1156
aI1112
aI1092
aI1076
aI1072
aI1056
aI1036
aI1008
aI984
aI976
aI972
aI972
aI964
aI960
aI944
aI928
aI916
aI904
aI900
aI888
aI856
aI856
aI852
aI844
aI828
aI824
aI820
aI816
aI812
aI808
aI804
aI804
aI804
aI804
aI804
aI804
aI788
aI776
aI772
aI760
aI736
aI736
aI732
aI728
aI728
aI728
aI736
aI736
aI736
aI732
aI728
aI744
aI756
aI756
aI756
aI756
aI760
aI764
aI764
aI744
aI740
aI740
aI740
aI756
aI792
aI804
aI804
aI804
aI804
aI804
aI804
aI804
aI840
aI844
aI844
aI848
aI880
aI904
aI904
aI904
aI904
aI888
aI880
aI880
aI880
aI900
aI900
aI904
aI904
aI908
aI912
aI912
aI912
aI912
aI912
aI916
aI916
aI916
aI916
aI916
aI912
aI896
aI896
aI896
aI896
aI884
aI864
aI836
aI804
aI800
aI780
aI764
aI764
aI760
aI756
aI764
aI768
aI768
aI768
aI744
aI736
aI732
aI712
aI684
aI628
aI628
aI628
aI604
aI588
aI572
aI572
aI568
aI544
aI536
aI528
aI524
aI516
aI512
aI512
aI512
aI504
aI500
aI500
aI496
aI488
aI488
aI476
aI468
aI468
aI468
aI468
aI456
aI452
aI448
aI444
aI440
aI444
aI448
aI448
aI448
aI444
aI444
aI440
aI440
aI432
a.