(lp0
I5332
aI5333
aI5334
aI5335
aI5336
aI5337
aI5338
aI5339
aI5340
aI5341
aI5342
aI5343
aI5344
aI5345
aI5346
aI5347
aI5348
aI5349
aI5350
aI5351
aI5352
aI5353
aI5354
aI5355
aI5356
aI5357
aI5358
aI5359
aI5360
aI5361
aI5362
aI5363
aI5364
aI5365
aI5366
aI5367
aI5368
aI5369
aI5370
aI5371
aI5372
aI5373
aI5374
aI5375
aI5376
aI5377
aI5378
aI5379
aI5380
aI5381
aI5382
aI5383
aI5384
aI5385
aI5386
aI5387
aI5388
aI5389
aI5390
aI5391
aI5392
aI5393
aI5394
aI5395
aI5396
aI5397
aI5398
aI5399
aI5400
aI5401
aI5402
aI5403
aI5404
aI5405
aI5406
aI5407
aI5408
aI5409
aI5410
aI5411
aI5412
aI5413
aI5414
aI5415
aI5416
aI5417
aI5418
aI5419
aI5420
aI5421
aI5422
aI5423
aI5424
aI5425
aI5426
aI5427
aI5428
aI5429
aI5430
aI5431
aI5432
aI5433
aI5434
aI5435
aI5436
aI5437
aI5438
aI5439
aI5440
aI5441
aI5442
aI5443
aI5444
aI5445
aI5446
aI5447
aI5448
aI5449
aI5450
aI5451
aI5452
aI5453
aI5454
aI5455
aI5456
aI5457
aI5458
aI5459
aI5460
aI5461
aI5462
aI5463
aI5464
aI5465
aI5466
aI5467
aI5468
aI5469
aI5470
aI5471
aI5472
aI5473
aI5474
aI5475
aI5476
aI5477
aI5478
aI5479
aI5480
aI5481
aI5482
aI5483
aI5484
aI5485
aI5486
aI5487
aI5488
aI5489
aI5490
aI5491
aI5492
aI5493
aI5494
aI5495
aI5496
aI5497
aI5498
aI5499
aI5500
aI5501
aI5502
aI5503
aI5504
aI5505
aI5506
aI5507
aI5508
aI5509
aI5510
aI5511
aI5512
aI5513
aI5514
aI5515
aI5516
aI5517
aI5518
aI5519
aI5520
aI5521
aI5522
aI5523
aI5524
aI5525
aI5526
aI5527
aI5528
aI5529
aI5530
aI5531
aI5532
aI5533
aI5534
aI5535
aI5536
aI5537
aI5538
aI5539
aI5540
aI5541
aI5542
aI5543
aI5544
aI5545
aI5546
aI5547
aI5548
aI5549
aI5550
aI5551
aI5552
aI5553
aI5554
aI5555
aI5556
aI5557
aI5558
aI5559
aI5560
aI5561
aI5562
aI5563
aI5564
aI5565
aI5566
aI5567
aI5568
aI5569
aI5570
aI5571
aI5572
aI5573
aI5574
aI5575
aI5576
aI5577
aI5578
aI5579
aI5580
aI5581
aI5582
aI5583
aI5584
aI5585
aI5586
aI5587
aI5588
aI5589
aI5590
aI5591
aI5592
aI5593
aI5594
aI5595
aI5596
aI5597
aI5598
aI5599
aI5600
aI5601
aI5602
aI5603
aI5604
aI5605
aI5606
aI5607
aI5608
aI5609
aI5610
aI5611
aI5612
aI5613
aI5614
aI5615
aI5616
aI5617
aI5618
aI5619
aI5620
aI5621
aI5622
aI5623
aI5624
aI5625
aI5626
aI5627
aI5628
aI5629
aI5630
aI5631
aI5632
aI5633
aI5634
aI5635
aI5636
aI5637
aI5638
aI5639
aI5640
aI5641
aI5642
aI5643
aI5644
aI5645
aI5646
aI5647
aI5648
aI5649
aI5650
aI5651
aI5652
aI5653
aI5654
aI5655
aI5656
aI5657
aI5658
aI5659
aI5660
aI5661
aI5662
aI5663
aI5664
aI5665
aI5666
aI5667
aI5668
aI5669
aI5670
aI5671
aI5672
aI5673
aI5674
aI5675
aI5676
aI5677
aI5678
aI5679
aI5680
aI5681
aI5682
aI5683
aI5684
aI5685
aI5686
aI5687
aI5688
aI5689
aI5690
aI5691
aI5692
aI5693
aI5694
aI5695
aI5696
aI5697
aI5698
aI5699
aI5700
aI5701
aI5702
aI5703
aI5704
aI5705
aI5706
aI5707
aI5708
aI5709
aI5710
aI5711
aI5712
aI5713
aI5714
aI5715
aI5716
aI5717
aI5718
aI5719
aI5720
aI5721
aI5722
aI5723
aI5724
aI5725
aI5726
aI5727
aI5728
aI5729
aI5730
aI5731
aI5732
aI5733
aI5734
aI5735
aI5736
aI5737
aI5738
aI5739
aI5740
aI5741
aI5742
aI5743
aI5744
aI5745
aI5746
aI5747
aI5748
aI5749
aI5750
aI5751
aI5752
aI5753
aI5754
aI5755
aI5756
aI5757
aI5758
aI5759
aI5760
aI5761
aI5762
aI5763
aI5764
aI5765
aI5766
aI5767
aI5768
aI5769
aI5770
aI5771
aI5772
aI5773
aI5774
aI5775
aI5776
aI5777
aI5778
aI5779
aI5780
aI5781
aI5782
aI5783
aI5784
aI5785
aI5786
aI5787
aI5788
aI5789
aI5790
aI5791
aI5792
aI5793
aI5794
aI5795
aI5796
aI5797
aI5798
aI5799
aI5800
aI5801
aI5802
aI5803
aI5804
aI5805
aI5806
aI5807
aI5808
aI5809
aI5810
aI5811
aI5812
aI5813
aI5814
aI5815
aI5816
aI5817
aI5818
aI5819
aI5820
aI5821
aI5822
aI5823
aI5824
aI5825
aI5826
aI5827
aI5828
aI5829
aI5830
aI5831
aI5832
aI5833
aI5834
aI5835
aI5836
aI5837
aI5838
aI5839
aI5840
aI5841
aI5842
aI5843
aI5844
aI5845
aI5846
aI5847
aI5848
aI5849
aI5850
aI5851
aI5852
aI5853
aI5854
aI5855
aI5856
aI5857
aI5858
a.(lp0
I2208
aI2208
aI2208
aI2184
aI2184
aI2184
aI2184
aI2184
aI2184
aI2184
aI2184
aI2196
aI2200
aI2172
aI2164
aI2128
aI2112
aI2112
aI2112
aI2112
aI2112
aI2108
aI2100
aI2076
aI2076
aI2076
aI2064
aI2044
aI2008
aI2008
aI2040
aI2040
aI2036
aI2028
aI2028
aI2028
aI2028
aI1976
aI1976
aI1976
aI1968
aI1964
aI1960
aI1960
aI1960
aI1960
aI1968
aI1968
aI1968
aI1980
aI1992
aI1992
aI2012
aI2016
aI2016
aI2016
aI2028
aI2028
aI2028
aI2028
aI2036
aI2028
aI2012
aI2016
aI2028
aI2028
aI2028
aI2028
aI2028
aI2036
aI2036
aI2036
aI2036
aI2028
aI2016
aI2016
aI2036
aI2036
aI2036
aI2028
aI2028
aI2028
aI2044
aI2044
aI2044
aI2044
aI2044
aI2040
aI2036
aI2036
aI2036
aI2024
aI2024
aI2024
aI2024
aI2024
aI2024
aI2024
aI2024
aI2016
aI2008
aI2008
aI2008
aI2008
aI2020
aI2020
aI2028
aI2028
aI2028
aI2028
aI2028
aI2008
aI2008
aI2008
aI2008
aI2036
aI2036
aI2036
aI2044
aI2052
aI2032
aI2020
aI2008
aI2008
aI2024
aI2028
aI2028
aI2028
aI2028
aI2028
aI2028
aI2028
aI2036
aI2044
aI2044
aI2044
aI2052
aI2056
aI2056
aI2056
aI2036
aI2016
aI2016
aI2016
aI2032
aI2048
aI2052
aI2060
aI2064
aI2064
aI2064
aI2064
aI2040
aI2040
aI2048
aI2060
aI2060
aI2076
aI2072
aI2068
aI2056
aI2044
aI2044
aI2044
aI2044
aI2044
aI2044
aI2044
aI2044
aI2044
aI2044
aI2044
aI2056
aI2064
aI2068
aI2068
aI2068
aI2072
aI2076
aI2076
aI2076
aI2080
aI2084
aI2084
aI2092
aI2092
aI2092
aI2092
aI2092
aI2092
aI2092
aI2092
aI2092
aI2092
aI2096
aI2100
aI2108
aI2112
aI2112
aI2112
aI2112
aI2112
aI2112
aI2112
aI2112
aI2112
aI2112
aI2112
aI2100
aI2096
aI2096
aI2096
aI2096
aI2096
aI2096
aI2092
aI2092
aI2092
aI2092
aI2092
aI2092
aI2092
aI2092
aI2092
aI2092
aI2092
aI2092
aI2088
aI2088
aI2088
aI2088
aI2088
aI2084
aI2076
aI2076
aI2076
aI2076
aI2076
aI2076
aI2076
aI2076
aI2072
aI2064
aI2060
aI2056
aI2056
aI2056
aI2056
aI2056
aI2056
aI2048
aI2048
aI2048
aI2048
aI2044
aI2044
aI2044
aI2044
aI2044
aI2044
aI2044
aI2044
aI2044
aI2044
aI2044
aI2044
aI2040
aI2032
aI2024
aI2008
aI2008
aI2004
aI2004
aI2004
aI2004
aI2004
aI1992
aI1984
aI1976
aI1972
aI1972
aI1972
aI1972
aI1972
aI1980
aI1980
aI1972
aI1968
aI1968
aI1968
aI1968
aI1980
aI1980
aI1972
aI1972
aI1972
aI1968
aI1960
aI1960
aI1960
aI1960
aI1956
aI1952
aI1952
aI1968
aI1980
aI1980
aI1976
aI1960
aI1952
aI1944
aI1940
aI1940
aI1940
aI1940
aI1940
aI1944
aI1944
aI1944
aI1944
aI1944
aI1944
aI1940
aI1940
aI1940
aI1936
aI1936
aI1952
aI1952
aI1952
aI1952
aI1952
aI1952
aI1952
aI1944
aI1944
aI1944
aI1944
aI1956
aI1956
aI1960
aI1968
aI1968
aI1968
aI1968
aI1968
aI1968
aI1968
aI1968
aI1976
aI1976
aI1984
aI1984
aI1984
aI1984
aI1984
aI1976
aI1976
aI1992
aI1984
aI1984
aI1984
aI1984
aI1984
aI1980
aI1980
aI1980
aI1992
aI1992
aI1992
aI1984
aI1984
aI1984
aI1984
aI1984
aI1984
aI1984
aI1984
aI1988
aI1988
aI1984
aI2000
aI2012
aI2032
aI2036
aI2036
aI2036
aI2048
aI2048
aI2048
aI2048
aI2048
aI2060
aI2064
aI2056
aI2056
aI2060
aI2060
aI2060
aI2060
aI2060
aI2052
aI2052
aI2052
aI2032
aI2020
aI2020
aI2016
aI2008
aI2000
aI1996
aI1996
aI1996
aI1996
aI1996
aI1996
aI1992
aI1992
aI1988
aI1984
aI1976
aI1956
aI1948
aI1948
aI1936
aI1924
aI1920
aI1920
aI1908
aI1868
aI1868
aI1868
aI1868
aI1868
aI1860
aI1832
aI1732
aI1720
aI1720
aI1720
aI1720
aI1720
aI1720
aI1716
aI1712
aI1680
aI1672
aI1672
aI1672
aI1672
aI1672
aI1668
aI1668
aI1668
aI1668
aI1668
aI1668
aI1668
aI1668
aI1668
aI1668
aI1668
aI1692
aI1692
aI1692
aI1692
aI1692
aI1712
aI1716
aI1736
aI1744
aI1752
aI1760
aI1760
aI1760
aI1764
aI1772
aI1776
aI1792
aI1792
aI1792
aI1792
aI1792
aI1800
aI1804
aI1812
aI1820
aI1820
aI1828
aI1828
aI1832
aI1832
aI1832
aI1832
aI1836
aI1836
aI1836
aI1836
aI1836
aI1836
aI1836
aI1852
aI1852
aI1852
aI1836
aI1820
aI1820
aI1816
aI1816
aI1812
aI1812
aI1808
aI1808
aI1808
aI1808
aI1800
aI1800
aI1800
aI1800
aI1800
aI1800
aI1796
aI1792
aI1792
aI1792
aI1792
aI1784
a.(lp0
I1200
aI1200
aI1200
aI1200
aI1200
aI1200
aI1200
aI1200
aI1200
aI1200
aI1200
aI1172
aI1164
aI1164
aI1164
aI1168
aI1172
aI1172
aI1172
aI1172
aI1172
aI1172
aI1172
aI1152
aI1140
aI1116
aI1116
aI1116
aI1104
aI1104
aI1104
aI1104
aI1104
aI1104
aI1104
aI1104
aI1104
aI1088
aI1084
aI1084
aI1080
aI1060
aI1044
aI1044
aI1044
aI1044
aI1052
aI1060
aI1064
aI1076
aI1080
aI1080
aI1064
aI1060
aI1060
aI1060
aI1060
aI1060
aI1060
aI1060
aI1052
aI1044
aI1024
aI1016
aI1040
aI1040
aI1040
aI1040
aI1040
aI1032
aI1024
aI1024
aI1020
aI1020
aI1020
aI1020
aI1004
aI1000
aI1000
aI1016
aI1016
aI1016
aI1028
aI1028
aI1016
aI1016
aI1008
aI996
aI996
aI996
aI980
aI980
aI980
aI980
aI980
aI980
aI980
aI964
aI956
aI956
aI960
aI964
aI964
aI964
aI948
aI944
aI936
aI936
aI936
aI936
aI936
aI952
aI952
aI952
aI952
aI944
aI944
aI944
aI936
aI916
aI928
aI932
aI944
aI948
aI936
aI928
aI920
aI920
aI920
aI920
aI920
aI920
aI928
aI932
aI932
aI932
aI920
aI912
aI912
aI912
aI924
aI936
aI940
aI936
aI920
aI908
aI908
aI904
aI904
aI904
aI904
aI904
aI904
aI904
aI900
aI900
aI900
aI900
aI912
aI916
aI924
aI936
aI936
aI936
aI936
aI936
aI936
aI936
aI936
aI936
aI936
aI936
aI936
aI928
aI928
aI924
aI924
aI920
aI920
aI916
aI912
aI904
aI904
aI896
aI888
aI884
aI884
aI884
aI880
aI880
aI880
aI880
aI880
aI880
aI880
aI880
aI880
aI884
aI884
aI884
aI884
aI884
aI884
aI884
aI888
aI888
aI888
aI888
aI888
aI888
aI888
aI888
aI888
aI880
aI880
aI880
aI876
aI876
aI876
aI876
aI876
aI876
aI876
aI876
aI876
aI876
aI868
aI856
aI852
aI852
aI852
aI852
aI852
aI860
aI860
aI860
aI860
aI860
aI860
aI860
aI860
aI860
aI852
aI852
aI844
aI840
aI840
aI840
aI840
aI844
aI852
aI856
aI856
aI856
aI864
aI864
aI864
aI864
aI864
aI864
aI864
aI864
aI864
aI864
aI864
aI864
aI864
aI864
aI864
aI852
aI852
aI852
aI852
aI852
aI852
aI852
aI860
aI864
aI872
aI872
aI872
aI880
aI888
aI888
aI896
aI896
aI908
aI912
aI920
aI920
aI920
aI928
aI928
aI928
aI920
aI920
aI920
aI920
aI920
aI916
aI912
aI912
aI912
aI912
aI928
aI936
aI936
aI936
aI936
aI928
aI924
aI924
aI924
aI924
aI924
aI924
aI944
aI952
aI960
aI964
aI964
aI964
aI968
aI972
aI972
aI988
aI988
aI988
aI988
aI988
aI988
aI988
aI988
aI992
aI1000
aI1004
aI1004
aI1004
aI1000
aI1000
aI1000
aI1004
aI1004
aI1004
aI1004
aI1004
aI1004
aI1012
aI1012
aI1012
aI1012
aI1008
aI1008
aI1008
aI1008
aI1008
aI1008
aI1008
aI1008
aI1008
aI1008
aI1008
aI1008
aI1008
aI1020
aI1032
aI1032
aI1020
aI1016
aI1016
aI1028
aI1028
aI1028
aI1028
aI1028
aI1028
aI1028
aI1020
aI1020
aI1020
aI1036
aI1036
aI1028
aI1020
aI1020
aI1020
aI1020
aI1020
aI1032
aI1032
aI1036
aI1044
aI1052
aI1064
aI1064
aI1064
aI1060
aI1060
aI1060
aI1060
aI1060
aI1072
aI1072
aI1072
aI1072
aI1072
aI1072
aI1044
aI1036
aI1032
aI1032
aI1032
aI1032
aI1032
aI1032
aI1032
aI1032
aI1032
aI1032
aI1032
aI1032
aI1036
aI1040
aI1040
aI1044
aI1044
aI1044
aI1048
aI1048
aI1048
aI1048
aI1048
aI1048
aI1048
aI1048
aI1048
aI1020
aI1020
aI1020
aI1020
aI1020
aI1020
aI1020
aI1024
aI1032
aI1044
aI1048
aI1048
aI1048
aI1052
aI1052
aI1060
aI1064
aI1068
aI1068
aI1068
aI1068
aI1048
aI1044
aI1044
aI1044
aI1044
aI1032
aI1032
aI1032
aI1028
aI1028
aI1020
aI1016
aI1008
aI1004
aI1004
aI996
aI996
aI996
aI996
aI996
aI992
aI988
aI988
aI984
aI984
aI984
aI972
aI960
aI952
aI948
aI944
aI936
aI928
aI920
aI920
aI920
aI920
aI916
aI916
aI912
aI912
aI912
aI912
aI912
aI888
aI884
aI884
aI884
aI884
aI884
aI884
aI872
aI864
aI864
aI856
aI856
aI856
aI848
aI840
aI832
aI832
aI828
aI816
aI816
aI812
aI812
aI812
aI812
aI812
aI796
a.