(lp0
I3811
aI3812
aI3813
aI3814
aI3815
aI3816
aI3817
aI3818
aI3819
aI3820
aI3821
aI3822
aI3823
aI3824
aI3825
aI3826
aI3827
aI3828
aI3829
aI3830
aI3831
aI3832
aI3833
aI3834
aI3835
aI3836
aI3837
aI3838
aI3839
aI3840
aI3841
aI3842
aI3843
aI3844
aI3845
aI3846
aI3847
aI3848
aI3849
aI3850
aI3851
aI3852
aI3853
aI3854
aI3855
aI3856
aI3857
aI3858
aI3859
aI3860
aI3861
aI3862
aI3863
aI3864
aI3865
aI3866
aI3867
aI3868
aI3869
aI3870
aI3871
aI3872
aI3873
aI3874
aI3875
aI3876
aI3877
aI3878
aI3879
aI3880
aI3881
aI3882
aI3883
aI3884
aI3885
aI3886
aI3887
aI3888
aI3889
aI3890
aI3891
aI3892
aI3893
aI3894
aI3895
aI3896
aI3897
aI3898
aI3899
aI3900
aI3901
aI3902
aI3903
aI3904
aI3905
aI3906
aI3907
aI3908
aI3909
aI3910
aI3911
aI3912
aI3913
aI3914
aI3915
aI3916
aI3917
aI3918
aI3919
aI3920
aI3921
aI3922
aI3923
aI3924
aI3925
aI3926
aI3927
aI3928
aI3929
aI3930
aI3931
aI3932
aI3933
aI3934
aI3935
aI3936
aI3937
aI3938
aI3939
aI3940
aI3941
aI3942
aI3943
aI3944
aI3945
aI3946
aI3947
aI3948
aI3949
aI3950
aI3951
aI3952
aI3953
aI3954
aI3955
aI3956
aI3957
aI3958
aI3959
aI3960
aI3961
aI3962
aI3963
aI3964
aI3965
aI3966
aI3967
aI3968
aI3969
aI3970
aI3971
aI3972
aI3973
aI3974
aI3975
aI3976
aI3977
aI3978
aI3979
aI3980
aI3981
aI3982
aI3983
aI3984
aI3985
aI3986
aI3987
aI3988
aI3989
aI3990
aI3991
aI3992
aI3993
aI3994
aI3995
aI3996
aI3997
aI3998
aI3999
aI4000
aI4001
aI4002
aI4003
aI4004
aI4005
aI4006
aI4007
aI4008
aI4009
aI4010
aI4011
aI4012
aI4013
aI4014
aI4015
aI4016
aI4017
aI4018
aI4019
aI4020
aI4021
aI4022
aI4023
aI4024
aI4025
aI4026
aI4027
aI4028
aI4029
aI4030
aI4031
aI4032
aI4033
aI4034
aI4035
aI4036
aI4037
aI4038
aI4039
aI4040
aI4041
aI4042
aI4043
aI4044
aI4045
aI4046
aI4047
aI4048
aI4049
aI4050
aI4051
aI4052
aI4053
aI4054
aI4055
aI4056
aI4057
aI4058
aI4059
aI4060
aI4061
aI4062
aI4063
aI4064
aI4065
aI4066
aI4067
aI4068
aI4069
aI4070
aI4071
aI4072
aI4073
aI4074
aI4075
aI4076
aI4077
aI4078
aI4079
aI4080
aI4081
aI4082
aI4083
aI4084
aI4085
aI4086
aI4087
aI4088
aI4089
aI4090
aI4091
aI4092
aI4093
aI4094
aI4095
aI4096
aI4097
aI4098
aI4099
aI4100
aI4101
aI4102
aI4103
aI4104
aI4105
aI4106
aI4107
aI4108
aI4109
aI4110
aI4111
aI4112
aI4113
aI4114
aI4115
aI4116
aI4117
aI4118
aI4119
aI4120
aI4121
aI4122
aI4123
aI4124
aI4125
aI4126
aI4127
aI4128
aI4129
aI4130
aI4131
aI4132
aI4133
aI4134
aI4135
aI4136
aI4137
aI4138
aI4139
aI4140
aI4141
aI4142
aI4143
aI4144
aI4145
aI4146
aI4147
aI4148
aI4149
aI4150
aI4151
aI4152
aI4153
aI4154
aI4155
aI4156
aI4157
aI4158
aI4159
aI4160
aI4161
aI4162
aI4163
aI4164
aI4165
aI4166
aI4167
aI4168
aI4169
aI4170
aI4171
aI4172
aI4173
aI4174
aI4175
aI4176
aI4177
aI4178
aI4179
aI4180
aI4181
aI4182
aI4183
aI4184
aI4185
aI4186
aI4187
aI4188
aI4189
aI4190
aI4191
aI4192
aI4193
aI4194
aI4195
aI4196
aI4197
aI4198
aI4199
aI4200
aI4201
aI4202
aI4203
aI4204
aI4205
aI4206
aI4207
aI4208
aI4209
aI4210
aI4211
aI4212
aI4213
aI4214
aI4215
aI4216
aI4217
aI4218
aI4219
aI4220
aI4221
aI4222
aI4223
aI4224
aI4225
aI4226
aI4227
aI4228
aI4229
aI4230
aI4231
aI4232
aI4233
aI4234
aI4235
aI4236
aI4237
aI4238
aI4239
aI4240
aI4241
aI4242
aI4243
aI4244
aI4245
aI4246
aI4247
aI4248
aI4249
aI4250
aI4251
aI4252
aI4253
aI4254
aI4255
aI4256
aI4257
aI4258
aI4259
aI4260
aI4261
aI4262
aI4263
aI4264
aI4265
aI4266
aI4267
aI4268
aI4269
aI4270
aI4271
aI4272
aI4273
aI4274
aI4275
aI4276
aI4277
aI4278
aI4279
aI4280
aI4281
aI4282
aI4283
aI4284
aI4285
aI4286
aI4287
aI4288
aI4289
aI4290
aI4291
aI4292
aI4293
aI4294
aI4295
aI4296
aI4297
aI4298
aI4299
aI4300
aI4301
aI4302
aI4303
aI4304
aI4305
aI4306
aI4307
aI4308
aI4309
aI4310
aI4311
aI4312
aI4313
aI4314
aI4315
aI4316
aI4317
aI4318
aI4319
aI4320
aI4321
aI4322
aI4323
aI4324
aI4325
aI4326
aI4327
aI4328
aI4329
aI4330
aI4331
aI4332
aI4333
aI4334
aI4335
aI4336
a.(lp0
I1838
aI1803
aI1814
aI1830
aI1830
aI1830
aI1838
aI1844
aI1844
aI1844
aI1844
aI1844
aI1844
aI1844
aI1844
aI1844
aI1844
aI1844
aI1830
aI1828
aI1828
aI1828
aI1828
aI1828
aI1828
aI1828
aI1828
aI1828
aI1828
aI1828
aI1828
aI1828
aI1849
aI1849
aI1844
aI1841
aI1838
aI1838
aI1838
aI1838
aI1838
aI1838
aI1838
aI1838
aI1838
aI1830
aI1822
aI1817
aI1811
aI1811
aI1811
aI1811
aI1811
aI1795
aI1795
aI1774
aI1768
aI1766
aI1766
aI1760
aI1760
aI1760
aI1760
aI1755
aI1755
aI1744
aI1730
aI1730
aI1730
aI1730
aI1730
aI1720
aI1712
aI1703
aI1703
aI1712
aI1728
aI1736
aI1739
aI1763
aI1768
aI1768
aI1768
aI1768
aI1768
aI1768
aI1768
aI1774
aI1779
aI1795
aI1806
aI1806
aI1806
aI1806
aI1809
aI1809
aI1809
aI1809
aI1809
aI1809
aI1809
aI1809
aI1809
aI1811
aI1811
aI1811
aI1817
aI1817
aI1811
aI1809
aI1809
aI1809
aI1809
aI1809
aI1809
aI1809
aI1809
aI1809
aI1809
aI1809
aI1809
aI1809
aI1809
aI1809
aI1809
aI1809
aI1809
aI1809
aI1809
aI1809
aI1809
aI1814
aI1820
aI1814
aI1814
aI1811
aI1801
aI1798
aI1795
aI1795
aI1795
aI1795
aI1795
aI1795
aI1795
aI1795
aI1795
aI1795
aI1795
aI1795
aI1795
aI1795
aI1795
aI1795
aI1795
aI1795
aI1801
aI1801
aI1801
aI1801
aI1801
aI1801
aI1801
aI1801
aI1801
aI1801
aI1763
aI1763
aI1790
aI1790
aI1790
aI1790
aI1790
aI1790
aI1790
aI1790
aI1790
aI1790
aI1790
aI1790
aI1790
aI1790
aI1790
aI1790
aI1790
aI1790
aI1790
aI1790
aI1790
aI1790
aI1790
aI1790
aI1790
aI1790
aI1798
aI1811
aI1836
aI1855
aI1857
aI1860
aI1860
aI1860
aI1860
aI1860
aI1860
aI1860
aI1860
aI1860
aI1860
aI1860
aI1860
aI1860
aI1855
aI1855
aI1855
aI1855
aI1874
aI1874
aI1874
aI1874
aI1874
aI1874
aI1874
aI1874
aI1874
aI1874
aI1874
aI1874
aI1874
aI1874
aI1874
aI1874
aI1874
aI1874
aI1874
aI1874
aI1874
aI1874
aI1874
aI1874
aI1874
aI1874
aI1860
aI1860
aI1860
aI1860
aI1860
aI1860
aI1860
aI1860
aI1860
aI1860
aI1860
aI1860
aI1860
aI1860
aI1860
aI1860
aI1860
aI1860
aI1860
aI1860
aI1860
aI1860
aI1860
aI1860
aI1860
aI1860
aI1882
aI1879
aI1838
aI1825
aI1814
aI1795
aI1784
aI1784
aI1784
aI1784
aI1790
aI1790
aI1790
aI1774
aI1768
aI1766
aI1766
aI1766
aI1766
aI1766
aI1766
aI1766
aI1766
aI1766
aI1766
aI1766
aI1766
aI1766
aI1766
aI1766
aI1766
aI1766
aI1766
aI1766
aI1766
aI1766
aI1766
aI1766
aI1771
aI1774
aI1774
aI1768
aI1768
aI1768
aI1768
aI1768
aI1768
aI1768
aI1768
aI1768
aI1768
aI1768
aI1768
aI1768
aI1768
aI1768
aI1768
aI1768
aI1768
aI1768
aI1768
aI1768
aI1768
aI1768
aI1768
aI1755
aI1706
aI1687
aI1658
aI1649
aI1649
aI1649
aI1649
aI1649
aI1649
aI1649
aI1649
aI1649
aI1649
aI1649
aI1649
aI1649
aI1649
aI1649
aI1649
aI1649
aI1649
aI1649
aI1649
aI1649
aI1666
aI1717
aI1728
aI1728
aI1695
aI1682
aI1682
aI1679
aI1668
aI1666
aI1658
aI1655
aI1655
aI1655
aI1655
aI1655
aI1655
aI1652
aI1644
aI1633
aI1633
aI1633
aI1644
aI1663
aI1668
aI1671
aI1682
aI1685
aI1685
aI1685
aI1690
aI1690
aI1695
aI1698
aI1703
aI1709
aI1712
aI1714
aI1714
aI1722
aI1736
aI1741
aI1747
aI1755
aI1766
aI1771
aI1774
aI1782
aI1782
aI1784
aI1798
aI1809
aI1820
aI1825
aI1836
aI1836
aI1836
aI1849
aI1852
aI1852
aI1852
aI1852
aI1860
aI1874
aI1876
aI1879
aI1882
aI1884
aI1884
aI1892
aI1892
aI1898
aI1901
aI1901
aI1901
aI1901
aI1901
aI1901
aI1906
aI1911
aI1914
aI1917
aI1920
aI1920
aI1920
aI1922
aI1922
aI1922
aI1922
aI1922
aI1922
aI1922
aI1922
aI1928
aI1930
aI1930
aI1930
aI1933
aI1941
aI1949
aI1957
aI1957
aI1957
aI1963
aI1974
aI1982
aI1987
aI1987
aI1987
aI1987
aI1987
aI1987
aI1995
aI2003
aI2009
aI2009
aI2022
aI2022
aI2022
aI2022
aI2022
aI2030
aI2044
aI2046
aI2068
aI2068
aI2068
aI2068
aI2068
aI2068
aI2071
aI2082
aI2092
aI2100
aI2100
aI2100
aI2106
aI2106
aI2106
aI2106
aI2106
aI2106
aI2106
aI2106
aI2092
aI2092
aI2106
aI2130
aI2125
aI2125
aI2125
aI2125
aI2141
aI2146
aI2146
aI2141
aI2141
aI2141
aI2141
aI2141
aI2141
aI2146
aI2146
aI2146
aI2138
aI2138
aI2138
aI2138
a.(lp0
I1404
aI1239
aI1274
aI1285
aI1285
aI1285
aI1309
aI1341
aI1341
aI1341
aI1341
aI1336
aI1333
aI1328
aI1328
aI1328
aI1323
aI1314
aI1293
aI1285
aI1285
aI1285
aI1285
aI1285
aI1285
aI1285
aI1285
aI1285
aI1285
aI1285
aI1285
aI1277
aI1258
aI1258
aI1244
aI1242
aI1242
aI1242
aI1242
aI1242
aI1242
aI1242
aI1242
aI1242
aI1242
aI1242
aI1242
aI1239
aI1231
aI1231
aI1231
aI1231
aI1231
aI1231
aI1231
aI1231
aI1231
aI1231
aI1231
aI1252
aI1252
aI1252
aI1252
aI1260
aI1263
aI1271
aI1274
aI1274
aI1274
aI1274
aI1274
aI1282
aI1290
aI1293
aI1293
aI1304
aI1317
aI1320
aI1320
aI1314
aI1314
aI1314
aI1314
aI1314
aI1320
aI1323
aI1323
aI1328
aI1331
aI1341
aI1341
aI1341
aI1341
aI1341
aI1341
aI1344
aI1344
aI1344
aI1344
aI1344
aI1344
aI1344
aI1344
aI1347
aI1347
aI1341
aI1325
aI1309
aI1298
aI1298
aI1298
aI1298
aI1298
aI1298
aI1298
aI1298
aI1298
aI1298
aI1298
aI1298
aI1298
aI1298
aI1298
aI1298
aI1298
aI1298
aI1298
aI1298
aI1298
aI1298
aI1296
aI1296
aI1269
aI1242
aI1209
aI1182
aI1163
aI1155
aI1142
aI1142
aI1142
aI1142
aI1142
aI1142
aI1142
aI1142
aI1142
aI1142
aI1142
aI1142
aI1142
aI1142
aI1142
aI1142
aI1142
aI1142
aI1142
aI1142
aI1142
aI1142
aI1142
aI1142
aI1142
aI1142
aI1142
aI1142
aI1128
aI1128
aI1144
aI1144
aI1144
aI1144
aI1144
aI1144
aI1144
aI1144
aI1144
aI1144
aI1144
aI1144
aI1144
aI1144
aI1144
aI1144
aI1144
aI1144
aI1144
aI1144
aI1144
aI1144
aI1144
aI1144
aI1144
aI1150
aI1209
aI1225
aI1252
aI1274
aI1274
aI1274
aI1274
aI1274
aI1274
aI1274
aI1274
aI1274
aI1274
aI1274
aI1274
aI1274
aI1274
aI1274
aI1274
aI1269
aI1274
aI1277
aI1285
aI1285
aI1285
aI1285
aI1285
aI1285
aI1285
aI1285
aI1285
aI1285
aI1277
aI1277
aI1277
aI1277
aI1277
aI1277
aI1277
aI1277
aI1277
aI1277
aI1277
aI1277
aI1277
aI1277
aI1277
aI1277
aI1271
aI1242
aI1242
aI1242
aI1242
aI1242
aI1242
aI1242
aI1242
aI1242
aI1242
aI1242
aI1242
aI1242
aI1242
aI1242
aI1242
aI1242
aI1242
aI1242
aI1242
aI1242
aI1242
aI1242
aI1242
aI1242
aI1233
aI1236
aI1252
aI1239
aI1239
aI1231
aI1217
aI1217
aI1217
aI1217
aI1212
aI1212
aI1209
aI1193
aI1179
aI1169
aI1169
aI1169
aI1169
aI1169
aI1169
aI1169
aI1169
aI1169
aI1169
aI1169
aI1169
aI1169
aI1169
aI1169
aI1169
aI1169
aI1169
aI1169
aI1169
aI1169
aI1169
aI1166
aI1223
aI1233
aI1228
aI1225
aI1225
aI1225
aI1225
aI1225
aI1225
aI1225
aI1225
aI1225
aI1225
aI1225
aI1225
aI1225
aI1225
aI1225
aI1225
aI1225
aI1225
aI1225
aI1225
aI1225
aI1225
aI1225
aI1225
aI1225
aI1215
aI1215
aI1220
aI1220
aI1220
aI1220
aI1220
aI1220
aI1220
aI1220
aI1220
aI1220
aI1220
aI1220
aI1220
aI1220
aI1220
aI1220
aI1220
aI1220
aI1220
aI1220
aI1220
aI1220
aI1204
aI1163
aI1158
aI1166
aI1188
aI1198
aI1198
aI1198
aI1198
aI1188
aI1171
aI1171
aI1171
aI1171
aI1171
aI1171
aI1171
aI1171
aI1177
aI1193
aI1193
aI1204
aI1206
aI1217
aI1228
aI1242
aI1255
aI1258
aI1258
aI1269
aI1287
aI1298
aI1309
aI1320
aI1331
aI1344
aI1358
aI1377
aI1395
aI1401
aI1409
aI1422
aI1433
aI1439
aI1452
aI1458
aI1458
aI1466
aI1466
aI1471
aI1482
aI1495
aI1509
aI1514
aI1520
aI1522
aI1522
aI1528
aI1528
aI1528
aI1528
aI1528
aI1541
aI1549
aI1557
aI1557
aI1560
aI1566
aI1566
aI1566
aI1566
aI1560
aI1560
aI1555
aI1552
aI1552
aI1552
aI1552
aI1547
aI1541
aI1539
aI1525
aI1525
aI1514
aI1509
aI1495
aI1485
aI1479
aI1476
aI1476
aI1466
aI1463
aI1460
aI1449
aI1447
aI1444
aI1444
aI1441
aI1436
aI1431
aI1428
aI1428
aI1428
aI1428
aI1422
aI1420
aI1414
aI1412
aI1412
aI1412
aI1412
aI1409
aI1393
aI1385
aI1377
aI1374
aI1366
aI1363
aI1363
aI1363
aI1363
aI1360
aI1355
aI1355
aI1350
aI1350
aI1350
aI1350
aI1350
aI1350
aI1350
aI1350
aI1350
aI1350
aI1350
aI1350
aI1347
aI1347
aI1347
aI1347
aI1347
aI1347
aI1347
aI1347
aI1306
aI1306
aI1325
aI1320
aI1320
aI1320
aI1320
aI1320
aI1317
aI1317
aI1317
aI1325
aI1328
aI1331
aI1341
aI1347
aI1347
aI1352
aI1352
aI1352
aI1355
aI1355
aI1355
aI1355
a.