(lp0
I20
aI21
aI22
aI23
aI24
aI25
aI26
aI27
aI28
aI29
aI30
aI31
aI32
aI33
aI34
aI35
aI36
aI37
aI38
aI39
aI40
aI41
aI42
aI43
aI44
aI45
aI46
aI47
aI48
aI49
aI59
aI60
aI61
aI62
aI63
aI64
aI65
aI66
aI67
aI68
aI69
aI70
aI71
aI72
aI73
aI74
aI75
aI76
aI117
aI118
aI119
aI120
aI130
aI131
aI132
aI133
aI134
aI135
aI136
aI137
aI138
aI139
aI140
aI141
aI142
aI143
aI144
aI145
aI148
aI149
aI150
aI151
aI152
aI153
aI154
aI155
aI156
aI157
aI158
aI159
aI160
aI161
aI162
aI163
aI164
aI165
aI166
aI167
aI168
aI169
aI170
aI171
aI172
aI173
aI174
aI175
aI176
aI177
aI178
aI179
aI180
aI181
aI182
aI183
aI184
aI185
aI186
aI187
aI188
aI189
aI190
aI191
aI192
aI193
aI194
aI195
aI196
aI197
aI198
aI202
aI203
aI204
aI205
aI206
aI207
aI208
aI209
aI210
aI211
aI212
aI213
aI214
aI215
aI216
aI217
aI218
aI219
aI220
aI221
aI222
aI223
aI224
aI225
aI226
aI227
aI228
aI229
aI230
aI231
aI232
aI233
aI234
aI235
aI236
aI237
aI238
aI239
aI240
aI241
aI242
aI243
aI244
aI245
aI246
aI247
aI248
aI249
aI250
aI251
aI252
aI253
aI254
aI255
aI256
aI257
aI258
aI259
aI260
aI261
aI262
aI263
aI264
aI265
aI266
aI267
aI268
aI269
aI270
aI271
aI272
aI273
aI274
aI275
aI276
aI277
aI278
aI279
aI280
aI281
aI282
aI283
aI284
aI285
aI286
aI287
aI288
aI289
aI290
aI291
aI292
aI293
aI294
aI295
aI296
aI297
aI298
aI299
aI300
aI301
aI302
aI303
aI304
aI305
aI306
aI307
aI308
aI309
aI310
aI311
aI312
aI313
aI314
aI315
aI316
aI317
aI318
aI319
aI320
aI321
aI322
aI323
aI324
aI325
aI326
aI327
aI328
aI329
aI330
aI331
aI332
aI333
aI334
aI335
aI336
aI337
aI338
aI339
aI340
aI341
aI342
aI343
aI344
aI345
aI346
aI347
aI348
aI349
aI350
aI351
aI352
aI353
aI354
aI355
aI356
aI357
aI358
aI359
aI360
aI361
aI362
aI363
aI364
aI365
aI366
aI367
aI368
aI369
aI370
aI371
aI372
aI373
aI374
aI375
aI376
aI377
aI378
aI379
aI380
aI381
aI382
aI383
aI384
aI385
aI386
aI387
aI388
aI389
aI390
aI391
aI392
aI393
aI394
aI395
aI396
aI397
aI398
aI399
aI400
aI401
aI402
aI403
aI404
aI405
aI406
aI407
aI408
aI409
aI410
aI411
aI412
aI413
aI414
aI415
aI416
aI417
aI418
aI419
aI420
aI421
aI422
aI423
aI424
aI425
aI426
aI427
aI428
aI429
aI430
aI431
aI432
aI433
aI434
aI435
aI436
aI437
aI438
aI439
aI440
aI441
aI442
aI443
aI444
aI445
aI446
aI447
aI448
aI449
aI450
aI451
aI452
aI453
aI454
aI455
aI456
aI457
aI458
aI459
aI460
aI461
aI462
aI463
aI464
aI465
aI466
aI467
aI468
aI469
aI470
aI471
aI472
aI473
aI474
aI475
aI476
aI477
aI478
aI479
aI480
aI481
aI482
aI483
aI484
aI485
aI486
aI487
aI488
aI489
aI490
aI491
aI492
aI493
aI494
aI495
aI496
aI497
aI498
aI499
aI500
aI501
aI502
aI503
aI504
aI505
aI506
aI507
aI508
aI509
aI510
aI511
aI512
aI513
aI514
aI515
aI516
aI517
aI518
aI519
aI520
aI521
aI522
aI523
aI524
aI525
aI526
aI527
aI528
aI529
aI530
aI531
aI532
aI533
aI534
aI535
aI536
aI537
aI538
aI539
aI540
aI541
aI542
aI543
aI544
aI545
aI546
aI547
aI548
aI549
aI550
aI551
aI552
aI553
aI554
a.(lp0
I2389
aI2389
aI2389
aI2389
aI2389
aI2389
aI2389
aI2389
aI2389
aI2389
aI2389
aI2389
aI2389
aI2389
aI2389
aI2389
aI2389
aI2389
aI2389
aI2389
aI2389
aI2393
aI2393
aI2393
aI2393
aI2393
aI2393
aI2393
aI2393
aI2393
aI2368
aI2368
aI2368
aI2368
aI2368
aI2368
aI2368
aI2368
aI2368
aI2368
aI2368
aI2368
aI2368
aI2368
aI2368
aI2368
aI2368
aI2368
aI2414
aI2414
aI2419
aI2474
aI2487
aI2487
aI2487
aI2487
aI2487
aI2487
aI2487
aI2487
aI2487
aI2487
aI2487
aI2487
aI2487
aI2487
aI2487
aI2513
aI2564
aI2564
aI2538
aI2534
aI2534
aI2534
aI2457
aI2397
aI2304
aI2244
aI2171
aI2180
aI2231
aI2363
aI2444
aI2496
aI2560
aI2615
aI2658
aI2675
aI2705
aI2705
aI2696
aI2602
aI2594
aI2513
aI2478
aI2470
aI2470
aI2470
aI2470
aI2470
aI2470
aI2470
aI2470
aI2470
aI2470
aI2470
aI2470
aI2470
aI2470
aI2470
aI2470
aI2470
aI2470
aI2470
aI2470
aI2470
aI2470
aI2461
aI2449
aI2402
aI2393
aI2393
aI2393
aI2385
aI2385
aI2376
aI2372
aI2359
aI2359
aI2312
aI2257
aI2231
aI2218
aI2222
aI2222
aI2222
aI2222
aI2222
aI2222
aI2222
aI2205
aI2184
aI2180
aI2180
aI2180
aI2180
aI2180
aI2180
aI2180
aI2180
aI2180
aI2176
aI2184
aI2188
aI2201
aI2257
aI2295
aI2299
aI2240
aI2197
aI2197
aI2188
aI2180
aI2188
aI2214
aI2261
aI2278
aI2363
aI2372
aI2376
aI2397
aI2410
aI2410
aI2410
aI2410
aI2410
aI2410
aI2419
aI2419
aI2419
aI2419
aI2419
aI2419
aI2419
aI2419
aI2414
aI2402
aI2393
aI2393
aI2389
aI2385
aI2385
aI2385
aI2385
aI2380
aI2376
aI2372
aI2372
aI2363
aI2355
aI2355
aI2338
aI2333
aI2329
aI2321
aI2321
aI2321
aI2321
aI2321
aI2321
aI2321
aI2321
aI2321
aI2321
aI2321
aI2321
aI2321
aI2321
aI2321
aI2325
aI2325
aI2325
aI2325
aI2325
aI2325
aI2325
aI2325
aI2325
aI2325
aI2325
aI2325
aI2325
aI2325
aI2325
aI2325
aI2325
aI2325
aI2325
aI2316
aI2312
aI2312
aI2312
aI2312
aI2295
aI2291
aI2291
aI2291
aI2291
aI2291
aI2291
aI2291
aI2291
aI2291
aI2291
aI2291
aI2291
aI2291
aI2286
aI2286
aI2308
aI2316
aI2316
aI2316
aI2316
aI2316
aI2316
aI2316
aI2316
aI2316
aI2316
aI2329
aI2346
aI2346
aI2346
aI2338
aI2338
aI2338
aI2338
aI2338
aI2338
aI2338
aI2338
aI2338
aI2338
aI2338
aI2338
aI2333
aI2312
aI2312
aI2312
aI2308
aI2308
aI2308
aI2308
aI2308
aI2308
aI2308
aI2308
aI2308
aI2308
aI2308
aI2308
aI2308
aI2308
aI2308
aI2308
aI2308
aI2308
aI2308
aI2308
aI2308
aI2308
aI2308
aI2308
aI2304
aI2286
aI2265
aI2265
aI2265
aI2265
aI2304
aI2321
aI2338
aI2325
aI2321
aI2321
aI2321
aI2321
aI2316
aI2291
aI2265
aI2282
aI2291
aI2291
aI2295
aI2295
aI2295
aI2295
aI2295
aI2291
aI2291
aI2291
aI2274
aI2261
aI2261
aI2261
aI2257
aI2257
aI2257
aI2244
aI2227
aI2214
aI2205
aI2205
aI2205
aI2205
aI2205
aI2197
aI2184
aI2180
aI2180
aI2180
aI2180
aI2180
aI2180
aI2158
aI2150
aI2146
aI2141
aI2137
aI2129
aI2129
aI2129
aI2133
aI2146
aI2146
aI2146
aI2150
aI2197
aI2218
aI2231
aI2231
aI2231
aI2248
aI2265
aI2269
aI2269
aI2222
aI2167
aI2158
aI2137
aI2133
aI2124
aI2129
aI2218
aI2252
aI2274
aI2278
aI2214
aI2158
aI2133
aI2133
aI2129
aI2176
aI2252
aI2291
aI2295
aI2278
aI2222
aI2150
aI2120
aI2094
aI2082
aI2073
aI2197
aI2214
aI2244
aI2248
aI2257
aI2252
aI2171
aI2137
aI2116
aI2112
aI2107
aI2103
aI2116
aI2124
aI2150
aI2176
aI2167
aI2176
aI2184
aI2201
aI2210
aI2214
aI2214
aI2222
aI2210
aI2210
aI2214
aI2214
aI2214
aI2227
aI2227
aI2240
aI2240
aI2240
aI2231
aI2227
aI2222
aI2222
aI2222
aI2222
aI2222
aI2222
aI2218
aI2205
aI2205
aI2201
aI2197
aI2205
aI2205
aI2222
aI2248
aI2248
aI2252
aI2240
aI2214
aI2188
aI2184
aI2180
a.(lp0
I1252
aI1236
aI1220
aI1212
aI1200
aI1192
aI1192
aI1192
aI1192
aI1192
aI1192
aI1192
aI1192
aI1192
aI1192
aI1192
aI1192
aI1192
aI1192
aI1192
aI1216
aI1236
aI1236
aI1252
aI1252
aI1252
aI1252
aI1252
aI1252
aI1252
aI1252
aI1252
aI1252
aI1252
aI1252
aI1252
aI1252
aI1252
aI1252
aI1252
aI1252
aI1252
aI1252
aI1252
aI1252
aI1252
aI1252
aI1252
aI1344
aI1344
aI1352
aI1452
aI1460
aI1444
aI1436
aI1436
aI1436
aI1436
aI1436
aI1436
aI1436
aI1436
aI1436
aI1436
aI1456
aI1456
aI1456
aI1480
aI1484
aI1484
aI1484
aI1484
aI1484
aI1484
aI1468
aI1468
aI1460
aI1460
aI1460
aI1460
aI1456
aI1448
aI1424
aI1420
aI1420
aI1420
aI1428
aI1428
aI1428
aI1428
aI1428
aI1408
aI1416
aI1400
aI1396
aI1396
aI1396
aI1396
aI1396
aI1396
aI1396
aI1396
aI1396
aI1396
aI1396
aI1396
aI1396
aI1396
aI1396
aI1396
aI1396
aI1396
aI1396
aI1396
aI1396
aI1396
aI1448
aI1492
aI1552
aI1520
aI1500
aI1500
aI1500
aI1508
aI1508
aI1512
aI1512
aI1532
aI1532
aI1540
aI1544
aI1544
aI1544
aI1548
aI1556
aI1556
aI1556
aI1556
aI1556
aI1556
aI1556
aI1548
aI1544
aI1544
aI1544
aI1544
aI1544
aI1544
aI1544
aI1544
aI1544
aI1536
aI1520
aI1520
aI1508
aI1480
aI1476
aI1476
aI1496
aI1512
aI1512
aI1512
aI1512
aI1448
aI1380
aI1340
aI1332
aI1356
aI1368
aI1400
aI1428
aI1428
aI1428
aI1428
aI1428
aI1428
aI1428
aI1420
aI1420
aI1420
aI1420
aI1420
aI1420
aI1420
aI1412
aI1404
aI1392
aI1392
aI1388
aI1380
aI1368
aI1352
aI1360
aI1348
aI1360
aI1348
aI1344
aI1336
aI1328
aI1328
aI1320
aI1300
aI1292
aI1280
aI1272
aI1268
aI1264
aI1260
aI1256
aI1252
aI1248
aI1244
aI1228
aI1216
aI1208
aI1196
aI1192
aI1192
aI1188
aI1188
aI1188
aI1188
aI1188
aI1184
aI1184
aI1184
aI1184
aI1184
aI1184
aI1184
aI1184
aI1184
aI1184
aI1184
aI1184
aI1184
aI1184
aI1176
aI1164
aI1156
aI1156
aI1156
aI1156
aI1144
aI1136
aI1136
aI1136
aI1136
aI1136
aI1136
aI1136
aI1136
aI1136
aI1136
aI1136
aI1136
aI1136
aI1136
aI1136
aI1136
aI1128
aI1128
aI1128
aI1128
aI1128
aI1128
aI1128
aI1128
aI1128
aI1128
aI1128
aI1128
aI1128
aI1136
aI1144
aI1144
aI1144
aI1144
aI1144
aI1144
aI1144
aI1144
aI1144
aI1144
aI1144
aI1144
aI1148
aI1156
aI1160
aI1164
aI1176
aI1176
aI1176
aI1176
aI1176
aI1176
aI1176
aI1176
aI1176
aI1176
aI1176
aI1176
aI1176
aI1176
aI1176
aI1176
aI1176
aI1176
aI1176
aI1176
aI1176
aI1176
aI1176
aI1176
aI1188
aI1192
aI1196
aI1196
aI1196
aI1196
aI1196
aI1196
aI1176
aI1144
aI1112
aI1088
aI1088
aI1088
aI1092
aI1104
aI1144
aI1168
aI1188
aI1212
aI1228
aI1240
aI1244
aI1240
aI1236
aI1244
aI1248
aI1248
aI1244
aI1212
aI1168
aI1148
aI1132
aI1128
aI1128
aI1144
aI1176
aI1196
aI1224
aI1252
aI1268
aI1272
aI1272
aI1252
aI1220
aI1200
aI1180
aI1156
aI1144
aI1128
aI1128
aI1164
aI1188
aI1204
aI1228
aI1252
aI1280
aI1284
aI1284
aI1280
aI1244
aI1220
aI1188
aI1176
aI1168
aI1164
aI1160
aI1160
aI1160
aI1160
aI1160
aI1168
aI1168
aI1172
aI1176
aI1176
aI1184
aI1196
aI1188
aI1188
aI1212
aI1220
aI1228
aI1228
aI1228
aI1228
aI1232
aI1236
aI1236
aI1248
aI1248
aI1248
aI1248
aI1248
aI1252
aI1268
aI1280
aI1300
aI1304
aI1312
aI1312
aI1320
aI1320
aI1320
aI1320
aI1320
aI1344
aI1344
aI1344
aI1344
aI1344
aI1344
aI1344
aI1356
aI1372
aI1380
aI1384
aI1384
aI1384
aI1384
aI1376
aI1372
aI1368
aI1368
aI1364
aI1364
aI1364
aI1364
aI1364
aI1360
aI1340
aI1320
aI1304
aI1296
aI1284
aI1276
aI1260
aI1252
aI1244
aI1240
aI1240
aI1240
aI1240
aI1260
aI1268
aI1276
aI1292
aI1308
aI1300
aI1300
aI1292
aI1276
aI1264
aI1256
aI1252
aI1252
aI1252
aI1252
a.(lp0
I1200
aI1200
aI1200
aI1200
aI1200
aI1200
aI1200
aI1200
aI1200
aI1200
aI1200
aI1200
aI1200
aI1200
aI1200
aI1200
aI1200
aI1200
aI1200
aI1200
aI1200
aI1200
aI1200
aI1200
aI1200
aI1200
aI1200
aI1200
aI1200
aI1200
aI1200
aI1200
aI1200
aI1200
aI1200
aI1200
aI1200
aI1200
aI1200
aI1200
aI1200
aI1200
aI1200
aI1200
aI1200
aI1200
aI1200
aI1200
aI900
aI900
aI900
aI900
aI900
aI900
aI900
aI900
aI900
aI900
aI900
aI900
aI900
aI900
aI900
aI900
aI900
aI900
aI900
aI900
aI900
aI900
aI900
aI900
aI900
aI900
aI900
aI900
aI900
aI900
aI900
aI900
aI900
aI900
aI900
aI900
aI900
aI900
aI900
aI900
aI900
aI900
aI900
aI900
aI900
aI900
aI900
aI900
aI900
aI900
aI900
aI900
aI900
aI900
aI900
aI900
aI900
aI900
aI900
aI900
aI900
aI900
aI900
aI900
aI900
aI800
aI800
aI800
aI800
aI800
aI800
aI800
aI800
aI800
aI800
aI800
aI700
aI700
aI700
aI700
aI700
aI700
aI700
aI700
aI700
aI700
aI700
aI700
aI700
aI700
aI700
aI700
aI700
aI700
aI700
aI700
aI700
aI700
aI600
aI600
aI600
aI600
aI600
aI600
aI600
aI600
aI600
aI600
aI600
aI600
aI600
aI600
aI600
aI600
aI600
aI600
aI600
aI600
aI600
aI600
aI600
aI600
aI600
aI600
aI600
aI600
aI600
aI600
aI600
aI600
aI600
aI500
aI500
aI500
aI500
aI500
aI500
aI500
aI500
aI500
aI500
aI500
aI500
aI500
aI500
aI500
aI500
aI500
aI500
aI500
aI500
aI500
aI500
aI500
aI500
aI500
aI500
aI500
aI500
aI500
aI500
aI500
aI500
aI500
aI500
aI500
aI500
aI500
aI500
aI500
aI500
aI500
aI500
aI500
aI500
aI500
aI500
aI500
aI500
aI500
aI500
aI500
aI500
aI500
aI500
aI500
aI500
aI500
aI400
aI400
aI400
aI400
aI400
aI400
aI400
aI400
aI400
aI400
aI400
aI400
aI400
aI400
aI400
aI400
aI400
aI400
aI400
aI400
aI400
aI400
aI400
aI400
aI400
aI400
aI400
aI400
aI400
aI400
aI400
aI400
aI400
aI400
aI400
aI400
aI400
aI400
aI400
aI400
aI400
aI400
aI400
aI400
aI400
aI400
aI300
aI300
aI300
aI300
aI300
aI300
aI300
aI300
aI300
aI300
aI300
aI300
aI300
aI300
aI300
aI300
aI300
aI300
aI300
aI300
aI300
aI300
aI300
aI300
aI300
aI300
aI300
aI300
aI300
aI300
aI300
aI300
aI300
aI300
aI300
aI300
aI300
aI300
aI300
aI300
aI300
aI300
aI300
aI300
aI300
aI300
aI300
aI300
aI300
aI300
aI300
aI300
aI300
aI300
aI300
aI300
aI300
aI300
aI300
aI300
aI300
aI300
aI300
aI300
aI300
aI300
aI300
aI300
aI300
aI300
aI300
aI300
aI300
aI300
aI300
aI300
aI300
aI300
aI300
aI300
aI300
aI300
aI300
aI300
aI300
aI300
aI300
aI300
aI300
aI300
aI300
aI300
aI300
aI300
aI300
aI300
aI300
aI300
aI300
aI300
aI300
aI300
aI300
aI300
aI300
aI300
aI300
aI300
aI300
aI300
aI300
aI300
aI300
aI300
aI300
aI300
aI300
aI300
aI300
aI300
aI300
aI300
aI300
aI300
aI300
aI300
aI300
aI300
aI300
aI300
aI300
aI300
aI300
aI300
aI300
aI300
aI300
aI300
aI300
aI300
aI300
aI300
aI300
aI300
aI300
aI300
aI300
aI300
aI300
aI300
aI300
aI300
aI300
aI300
aI300
aI300
aI300
aI300
aI300
aI300
aI300
aI300
aI300
aI300
aI300
aI300
aI300
aI300
aI300
aI300
aI300
aI300
aI300
aI300
aI300
aI300
aI300
aI300
aI300
aI300
aI300
aI300
aI300
aI300
aI300
aI300
aI300
aI300
aI300
aI300
a.