(lp0
I935
aI936
aI937
aI938
aI939
aI940
aI941
aI942
aI943
aI944
aI945
aI946
aI947
aI948
aI949
aI963
aI964
aI965
aI966
aI967
aI968
aI969
aI970
aI983
aI984
aI985
aI986
aI1193
aI1194
aI1195
aI1196
aI1197
aI1198
aI1199
aI1200
aI1201
aI1202
aI1203
aI1204
aI1205
aI1206
aI1207
aI1208
aI1209
aI1216
aI1217
aI1218
aI1219
aI1220
aI1221
aI1222
aI1223
aI1224
aI1225
aI1226
aI1227
aI1228
aI1229
aI1230
aI1231
aI1232
aI1233
aI1234
aI1235
aI1236
aI1241
aI1242
aI1243
aI1244
aI1245
aI1246
aI1247
aI1248
aI1249
aI1250
aI1251
aI1252
aI1253
aI1254
aI1255
aI1256
aI1257
aI1258
aI1259
aI1260
aI1261
aI1266
aI1267
aI1268
aI1269
aI1270
aI1271
aI1272
aI1273
aI1274
aI1275
aI1276
aI1277
aI1278
aI1279
aI1280
aI1281
aI1282
aI1283
aI1284
aI1285
aI1293
aI1294
aI1295
aI1296
aI1297
aI1298
aI1299
aI1300
aI1301
aI1306
aI1308
aI1309
aI1310
aI1311
aI1312
aI1313
aI1314
aI1315
aI1316
aI1317
aI1318
aI1319
aI1325
aI1326
aI1327
aI1328
aI1329
aI1330
aI1331
aI1332
aI1333
aI1334
aI1335
aI1336
aI1337
aI1338
aI1339
aI1340
aI1341
aI1342
aI1343
aI1344
aI1345
aI1346
aI1347
aI1348
aI1349
aI1350
aI1351
aI1352
aI1353
aI1354
aI1355
aI1356
aI1357
aI1358
aI1359
aI1360
aI1361
aI1362
aI1363
aI1364
aI1365
aI1366
aI1367
aI1368
aI1369
aI1370
aI1371
a.(lp0
I2504
aI2508
aI2508
aI2508
aI2508
aI2508
aI2508
aI2500
aI2476
aI2440
aI2436
aI2432
aI2420
aI2408
aI2392
aI2392
aI2384
aI2360
aI2352
aI2352
aI2340
aI2324
aI2308
aI2340
aI2344
aI2344
aI2344
aI2092
aI2096
aI2100
aI2104
aI2104
aI2104
aI2104
aI2104
aI2124
aI2124
aI2124
aI2124
aI2128
aI2136
aI2136
aI2136
aI2136
aI2184
aI2184
aI2192
aI2192
aI2192
aI2192
aI2192
aI2204
aI2240
aI2300
aI2412
aI2556
aI2576
aI2548
aI2548
aI2612
aI2632
aI2632
aI2600
aI2512
aI2468
aI2476
aI2448
aI2432
aI2408
aI2316
aI2188
aI2108
aI2012
aI1912
aI1880
aI1836
aI1804
aI1756
aI1784
aI1852
aI1940
aI2024
aI2136
aI2192
aI2208
aI2224
aI2240
aI2236
aI2232
aI2232
aI2232
aI2292
aI2316
aI2316
aI2316
aI2280
aI2272
aI2272
aI2272
aI2272
aI2272
aI2272
aI2272
aI2272
aI2272
aI2260
aI2164
aI2216
aI2284
aI2332
aI2340
aI2340
aI2332
aI2300
aI2216
aI2004
aI1884
aI1684
aI1684
aI1684
aI1700
aI1828
aI1916
aI1960
aI2020
aI2076
aI2168
aI2228
aI2100
aI2044
aI1968
aI1944
aI1892
aI1800
aI1796
aI1852
aI1912
aI1932
aI1944
aI1944
aI1944
aI1944
aI1944
aI1944
aI1944
aI1944
aI1944
aI1944
aI1944
aI1944
aI1944
aI1944
aI1944
aI1944
aI1944
aI1944
aI1944
aI1944
aI1944
aI1944
aI1944
aI1944
aI1912
aI1840
aI1768
aI1728
aI1632
aI1604
aI1504
aI1476
aI1436
aI1436
aI1468
aI1512
aI1556
a.(lp0
I1152
aI1152
aI1152
aI1152
aI1152
aI1152
aI1152
aI1152
aI1152
aI1160
aI1172
aI1188
aI1204
aI1220
aI1244
aI1228
aI1208
aI1180
aI1164
aI1164
aI1180
aI1216
aI1240
aI1236
aI1236
aI1236
aI1236
aI1256
aI1252
aI1240
aI1236
aI1236
aI1236
aI1236
aI1236
aI1224
aI1220
aI1220
aI1220
aI1232
aI1252
aI1252
aI1252
aI1252
aI1244
aI1228
aI1204
aI1204
aI1204
aI1204
aI1204
aI1204
aI1212
aI1244
aI1248
aI1252
aI1252
aI1216
aI1188
aI1152
aI1152
aI1152
aI1172
aI1220
aI1248
aI1256
aI1208
aI1172
aI1172
aI1192
aI1212
aI1220
aI1212
aI1220
aI1228
aI1244
aI1252
aI1240
aI1204
aI1192
aI1216
aI1228
aI1244
aI1244
aI1252
aI1252
aI1240
aI1212
aI1176
aI1176
aI1176
aI1176
aI1176
aI1176
aI1176
aI1224
aI1236
aI1236
aI1236
aI1236
aI1236
aI1236
aI1236
aI1236
aI1236
aI1252
aI1256
aI1224
aI1220
aI1212
aI1212
aI1212
aI1220
aI1236
aI1252
aI1252
aI1252
aI1232
aI1232
aI1232
aI1232
aI1232
aI1244
aI1244
aI1244
aI1240
aI1252
aI1256
aI1252
aI1256
aI1256
aI1256
aI1252
aI1252
aI1252
aI1248
aI1244
aI1240
aI1240
aI1240
aI1240
aI1240
aI1240
aI1240
aI1240
aI1240
aI1240
aI1240
aI1240
aI1240
aI1240
aI1240
aI1240
aI1240
aI1240
aI1240
aI1240
aI1240
aI1240
aI1240
aI1240
aI1240
aI1248
aI1248
aI1252
aI1252
aI1252
aI1256
aI1248
aI1248
aI1244
aI1244
aI1236
aI1244
aI1244
a.(lp0
I300
aI300
aI1200
aI1200
aI1200
aI1200
aI1200
aI1200
aI1200
aI1200
aI1200
aI1200
aI1200
aI1200
aI1200
aI1200
aI1200
aI1200
aI1200
aI1200
aI1200
aI1200
aI1200
aI1200
aI1200
aI1200
aI1200
aI1200
aI1200
aI1200
aI1200
aI1200
aI1200
aI1200
aI1200
aI1200
aI1200
aI1200
aI1200
aI1200
aI1200
aI1200
aI1200
aI1200
aI1200
aI1200
aI1200
aI1200
aI1200
aI1200
aI1200
aI1200
aI1200
aI1200
aI1200
aI1200
aI1200
aI1200
aI1200
aI1200
aI1200
aI1200
aI1200
aI1200
aI1200
aI1200
aI1200
aI1200
aI1200
aI1200
aI1200
aI1200
aI1200
aI1200
aI1200
aI1200
aI1200
aI1200
aI1200
aI1200
aI1200
aI1200
aI1200
aI1200
aI1200
aI1200
aI1200
aI1200
aI1200
aI1200
aI1200
aI1200
aI1200
aI1200
aI1200
aI1200
aI1200
aI1200
aI1200
aI1200
aI1200
aI1200
aI1200
aI1200
aI1200
aI1200
aI1200
aI1200
aI1200
aI1200
aI1200
aI1200
aI1200
aI1200
aI1200
aI1200
aI1200
aI1200
aI1200
aI1200
aI1200
aI1200
aI1200
aI1200
aI1200
aI1200
aI1200
aI1200
aI1200
aI1200
aI1200
aI1200
aI1200
aI1200
aI1200
aI1200
aI1200
aI1200
aI1200
aI1200
aI1200
aI1200
aI1200
aI1200
aI1200
aI1200
aI1200
aI1200
aI1200
aI1200
aI1200
aI1200
aI1200
aI1200
aI1200
aI1200
aI1200
aI1200
aI1200
aI1200
aI1200
aI1200
aI1200
aI1200
aI1200
aI1200
aI1200
aI1200
aI1200
aI1200
aI1200
aI1200
aI1200
aI1200
aI1200
a.