(lp0
I4563
aI4564
aI4565
aI4566
aI4567
aI4568
aI4569
aI4570
aI4571
aI4580
aI4581
aI4582
aI4583
aI4584
aI4585
aI4586
aI4692
aI4693
aI4694
aI4705
aI4706
aI4707
aI4708
aI4709
aI4710
aI4711
aI4717
aI4718
aI4719
aI4720
aI4721
aI4722
aI4723
aI4724
aI4725
aI4726
a.(lp0
I2476
aI2460
aI2440
aI2404
aI2400
aI2396
aI2400
aI2420
aI2424
aI2440
aI2440
aI2448
aI2448
aI2448
aI2448
aI2448
aI1976
aI1972
aI1972
aI1796
aI1792
aI1792
aI1792
aI1792
aI1792
aI1792
aI1780
aI1776
aI1772
aI1772
aI1772
aI1772
aI1772
aI1772
aI1768
aI1768
a.(lp0
I1240
aI1220
aI1196
aI1160
aI1160
aI1160
aI1196
aI1240
aI1248
aI1256
aI1256
aI1248
aI1240
aI1240
aI1240
aI1240
aI1196
aI1196
aI1196
aI1212
aI1196
aI1196
aI1204
aI1232
aI1232
aI1244
aI1244
aI1216
aI1212
aI1212
aI1220
aI1236
aI1236
aI1240
aI1244
aI1244
a.(lp0
I1200
aI1200
aI1200
aI1200
aI1200
aI1200
aI1200
aI1200
aI1200
aI1200
aI1200
aI1200
aI1200
aI1200
aI1200
aI1200
aI1200
aI1200
aI1200
aI1200
aI1200
aI1200
aI1200
aI1200
aI1200
aI1200
aI1200
aI1200
aI1200
aI1200
aI1200
aI1200
aI1200
aI1200
aI1200
aI1200
a.