(lp0
I6
aI7
aI8
aI9
aI10
aI11
aI12
aI13
aI14
aI15
aI16
aI17
aI18
aI19
aI20
aI21
aI22
aI23
aI24
aI25
aI26
aI27
aI28
aI29
aI30
aI31
aI32
aI33
aI34
aI35
aI36
aI37
aI38
aI39
aI40
aI41
aI42
aI43
aI44
aI45
aI46
aI47
aI48
aI49
aI50
aI51
aI52
aI53
aI54
aI55
aI56
aI57
aI58
aI59
aI60
aI61
aI62
aI63
aI64
aI65
aI66
aI67
aI68
aI69
aI70
aI71
aI72
aI73
aI74
aI75
aI76
aI77
aI78
aI79
aI80
aI81
aI82
aI83
aI84
aI85
aI86
aI87
aI88
aI89
aI90
aI91
aI92
aI93
aI94
aI95
aI96
aI97
aI98
aI99
aI100
aI101
aI102
aI103
aI104
aI105
aI106
aI107
aI108
aI109
aI110
aI111
aI112
aI113
aI114
aI115
aI116
aI117
aI118
aI119
aI120
aI121
aI122
aI123
aI124
aI125
aI126
aI127
aI128
aI129
aI130
aI131
aI132
aI133
aI134
aI135
aI136
aI137
aI138
aI139
aI140
aI141
aI142
aI143
aI144
aI145
aI146
aI147
aI148
aI149
aI150
aI151
aI152
aI153
aI154
aI155
aI156
aI157
aI158
aI159
aI160
aI161
aI162
aI163
aI164
aI165
aI166
aI167
aI168
aI169
aI170
aI171
aI172
aI173
aI174
aI175
aI176
aI177
aI178
aI179
aI180
aI181
aI182
aI183
aI184
aI185
aI186
aI187
aI188
aI189
aI190
aI191
aI192
aI193
aI194
aI195
aI196
aI197
aI198
aI199
aI200
aI201
aI202
aI203
aI204
aI205
aI206
aI207
aI208
aI209
aI210
aI211
aI212
aI213
aI214
aI215
aI216
aI217
aI218
aI219
aI220
aI221
aI222
aI223
aI224
aI225
aI226
aI227
aI228
aI229
aI230
aI231
aI232
aI233
aI234
aI235
aI236
aI237
aI238
aI239
aI240
aI241
aI242
aI243
aI244
aI245
aI246
aI247
aI248
aI249
aI250
aI251
aI252
aI253
aI254
aI255
aI256
aI257
aI258
aI259
aI260
aI261
aI262
aI263
aI264
aI265
aI266
aI267
aI268
aI269
aI270
aI271
aI272
aI273
aI274
aI275
aI276
aI277
aI278
aI279
aI280
aI281
aI282
aI283
aI284
aI285
aI286
aI287
aI288
aI289
aI290
aI291
aI292
aI293
aI294
aI295
aI296
aI297
aI298
aI299
aI300
aI301
aI302
aI303
aI304
aI305
aI306
aI307
aI308
aI309
aI310
aI311
aI312
aI313
aI314
aI315
aI316
aI317
aI318
aI319
aI320
aI321
aI322
aI323
aI324
aI325
aI326
aI327
aI328
aI329
aI330
aI331
aI332
aI333
aI334
aI335
aI336
aI337
aI338
aI339
aI340
aI341
aI342
aI343
aI344
aI345
aI346
aI347
aI348
aI349
aI350
aI351
aI352
aI353
aI354
aI355
aI356
aI357
aI358
aI359
aI360
aI361
aI362
aI363
aI364
aI365
aI366
aI367
aI368
aI369
aI370
aI371
aI372
aI373
aI374
aI375
aI376
aI377
aI378
aI379
aI380
aI381
aI382
aI383
aI384
aI385
aI386
aI387
aI388
aI389
aI390
aI391
aI392
aI393
aI394
aI395
aI396
aI397
aI398
aI399
aI400
aI401
aI402
aI403
aI404
aI405
aI406
aI407
aI408
aI409
aI410
aI411
a.(lp0
I1290
aI1292
aI1296
aI1296
aI1298
aI1304
aI1310
aI1310
aI1310
aI1310
aI1310
aI1310
aI1310
aI1310
aI1310
aI1310
aI1310
aI1310
aI1310
aI1310
aI1310
aI1310
aI1310
aI1310
aI1310
aI1312
aI1316
aI1318
aI1318
aI1318
aI1318
aI1318
aI1318
aI1318
aI1318
aI1318
aI1318
aI1318
aI1318
aI1318
aI1318
aI1318
aI1318
aI1318
aI1318
aI1320
aI1320
aI1320
aI1320
aI1320
aI1320
aI1320
aI1320
aI1320
aI1320
aI1320
aI1320
aI1322
aI1324
aI1324
aI1324
aI1324
aI1324
aI1324
aI1324
aI1324
aI1324
aI1324
aI1324
aI1324
aI1324
aI1328
aI1334
aI1338
aI1342
aI1342
aI1342
aI1342
aI1342
aI1346
aI1346
aI1350
aI1356
aI1360
aI1360
aI1362
aI1362
aI1362
aI1362
aI1362
aI1362
aI1362
aI1362
aI1362
aI1362
aI1362
aI1362
aI1362
aI1362
aI1362
aI1362
aI1362
aI1362
aI1362
aI1362
aI1362
aI1370
aI1376
aI1382
aI1394
aI1396
aI1396
aI1396
aI1396
aI1396
aI1396
aI1396
aI1396
aI1396
aI1396
aI1396
aI1396
aI1396
aI1396
aI1396
aI1396
aI1396
aI1396
aI1396
aI1396
aI1396
aI1416
aI1430
aI1438
aI1444
aI1458
aI1464
aI1470
aI1480
aI1486
aI1490
aI1492
aI1488
aI1488
aI1488
aI1486
aI1484
aI1482
aI1480
aI1480
aI1480
aI1478
aI1478
aI1478
aI1478
aI1478
aI1478
aI1478
aI1478
aI1478
aI1478
aI1478
aI1478
aI1478
aI1478
aI1484
aI1528
aI1542
aI1548
aI1570
aI1570
aI1570
aI1570
aI1570
aI1570
aI1570
aI1570
aI1570
aI1570
aI1570
aI1570
aI1570
aI1544
aI1536
aI1524
aI1508
aI1496
aI1478
aI1470
aI1436
aI1424
aI1398
aI1396
aI1394
aI1394
aI1392
aI1392
aI1392
aI1392
aI1396
aI1404
aI1408
aI1420
aI1428
aI1442
aI1452
aI1462
aI1478
aI1500
aI1514
aI1528
aI1528
aI1534
aI1538
aI1544
aI1558
aI1574
aI1580
aI1582
aI1582
aI1582
aI1582
aI1562
aI1520
aI1492
aI1482
aI1468
aI1450
aI1436
aI1432
aI1432
aI1432
aI1436
aI1458
aI1486
aI1506
aI1520
aI1536
aI1550
aI1556
aI1566
aI1574
aI1584
aI1586
aI1586
aI1586
aI1582
aI1536
aI1492
aI1466
aI1442
aI1436
aI1432
aI1428
aI1428
aI1428
aI1440
aI1484
aI1522
aI1552
aI1576
aI1590
aI1594
aI1594
aI1600
aI1608
aI1608
aI1614
aI1614
aI1608
aI1584
aI1552
aI1524
aI1510
aI1492
aI1474
aI1460
aI1446
aI1436
aI1428
aI1424
aI1422
aI1426
aI1470
aI1498
aI1518
aI1528
aI1528
aI1528
aI1528
aI1528
aI1516
aI1512
aI1512
aI1512
aI1512
aI1492
aI1462
aI1450
aI1400
aI1380
aI1366
aI1348
aI1338
aI1330
aI1328
aI1342
aI1392
aI1430
aI1484
aI1498
aI1506
aI1520
aI1518
aI1484
aI1458
aI1426
aI1400
aI1378
aI1358
aI1330
aI1312
aI1280
aI1254
aI1254
aI1254
aI1284
aI1288
aI1266
aI1242
aI1226
aI1216
aI1206
aI1206
aI1216
aI1220
aI1232
aI1234
aI1234
aI1234
aI1234
aI1238
aI1248
aI1252
aI1252
aI1252
aI1254
aI1250
aI1250
aI1248
aI1246
aI1246
aI1250
aI1246
aI1246
aI1252
aI1252
aI1252
aI1246
aI1240
aI1238
aI1238
aI1236
aI1236
aI1236
aI1246
aI1252
aI1254
aI1254
aI1254
aI1250
aI1248
aI1246
aI1246
aI1244
aI1244
aI1244
aI1244
aI1244
aI1244
aI1244
aI1244
aI1244
aI1244
aI1244
aI1238
aI1234
aI1232
aI1232
aI1232
aI1234
aI1236
aI1246
aI1254
aI1254
aI1256
aI1256
aI1256
aI1258
aI1258
aI1256
aI1254
aI1254
aI1254
aI1254
aI1252
a.(lp0
I772
aI772
aI776
aI776
aI776
aI776
aI778
aI778
aI778
aI778
aI778
aI778
aI778
aI778
aI778
aI778
aI778
aI778
aI778
aI778
aI778
aI778
aI778
aI778
aI778
aI778
aI778
aI778
aI784
aI784
aI784
aI784
aI780
aI780
aI780
aI780
aI780
aI780
aI780
aI780
aI780
aI780
aI780
aI780
aI780
aI780
aI780
aI780
aI780
aI780
aI780
aI780
aI780
aI780
aI780
aI780
aI780
aI778
aI778
aI778
aI778
aI778
aI778
aI778
aI778
aI778
aI778
aI778
aI778
aI778
aI778
aI782
aI788
aI794
aI800
aI800
aI800
aI800
aI800
aI814
aI814
aI816
aI816
aI816
aI816
aI816
aI816
aI816
aI816
aI816
aI816
aI816
aI816
aI816
aI816
aI816
aI816
aI816
aI816
aI816
aI816
aI816
aI816
aI816
aI816
aI816
aI816
aI816
aI816
aI824
aI824
aI824
aI824
aI824
aI824
aI824
aI824
aI824
aI824
aI824
aI824
aI824
aI824
aI824
aI824
aI824
aI824
aI824
aI824
aI824
aI824
aI806
aI790
aI706
aI680
aI648
aI630
aI612
aI584
aI564
aI542
aI540
aI502
aI468
aI452
aI442
aI428
aI416
aI404
aI402
aI402
aI400
aI400
aI400
aI400
aI400
aI400
aI400
aI400
aI400
aI400
aI400
aI400
aI400
aI400
aI396
aI394
aI394
aI394
aI426
aI426
aI426
aI426
aI426
aI426
aI426
aI426
aI426
aI426
aI426
aI426
aI426
aI432
aI432
aI432
aI444
aI460
aI468
aI470
aI482
aI486
aI490
aI490
aI490
aI490
aI490
aI494
aI496
aI500
aI502
aI494
aI494
aI490
aI490
aI490
aI490
aI490
aI490
aI490
aI490
aI490
aI494
aI494
aI494
aI494
aI490
aI484
aI480
aI480
aI472
aI472
aI472
aI474
aI468
aI464
aI464
aI462
aI462
aI460
aI460
aI460
aI460
aI458
aI456
aI456
aI452
aI448
aI448
aI444
aI444
aI440
aI438
aI432
aI428
aI426
aI426
aI426
aI416
aI394
aI390
aI386
aI386
aI386
aI386
aI388
aI388
aI392
aI396
aI396
aI396
aI390
aI386
aI384
aI384
aI382
aI382
aI382
aI382
aI382
aI382
aI380
aI366
aI352
aI350
aI352
aI356
aI360
aI366
aI368
aI364
aI360
aI360
aI360
aI356
aI346
aI344
aI344
aI344
aI344
aI344
aI344
aI336
aI324
aI318
aI318
aI318
aI318
aI316
aI316
aI314
aI314
aI316
aI322
aI324
aI324
aI324
aI312
aI294
aI290
aI286
aI282
aI282
aI282
aI282
aI278
aI266
aI264
aI260
aI256
aI256
aI256
aI256
aI260
aI260
aI260
aI260
aI306
aI322
aI348
aI390
aI412
aI422
aI440
aI440
aI426
aI414
aI348
aI328
aI302
aI298
aI316
aI358
aI406
aI446
aI506
aI512
aI490
aI456
aI426
aI364
aI346
aI334
aI312
aI302
aI306
aI360
aI384
aI422
aI446
aI480
aI492
aI506
aI522
aI518
aI476
aI436
aI398
aI372
aI368
aI364
aI356
aI346
aI342
aI338
aI336
aI336
aI336
aI344
aI356
aI364
aI378
aI406
aI418
aI418
aI422
aI444
aI476
aI506
aI536
aI564
aI590
aI598
aI630
aI656
aI664
aI672
aI684
aI702
aI698
aI690
aI674
aI668
aI656
aI654
aI654
aI654
a.(lp0
I300
aI300
aI300
aI300
aI300
aI300
aI300
aI300
aI300
aI300
aI300
aI300
aI300
aI300
aI300
aI300
aI300
aI300
aI300
aI300
aI300
aI300
aI300
aI300
aI300
aI300
aI300
aI300
aI300
aI300
aI300
aI300
aI300
aI300
aI300
aI300
aI300
aI300
aI300
aI300
aI300
aI300
aI300
aI300
aI300
aI300
aI300
aI300
aI300
aI300
aI300
aI300
aI300
aI300
aI300
aI300
aI300
aI300
aI300
aI300
aI300
aI300
aI300
aI300
aI300
aI300
aI300
aI300
aI300
aI300
aI300
aI300
aI300
aI300
aI300
aI300
aI300
aI300
aI300
aI300
aI300
aI300
aI300
aI300
aI300
aI300
aI300
aI300
aI300
aI300
aI300
aI300
aI300
aI300
aI300
aI300
aI300
aI300
aI300
aI300
aI300
aI300
aI300
aI300
aI300
aI300
aI300
aI300
aI300
aI300
aI300
aI300
aI300
aI300
aI300
aI300
aI300
aI300
aI300
aI300
aI300
aI300
aI300
aI300
aI300
aI300
aI300
aI300
aI300
aI300
aI300
aI300
aI300
aI300
aI300
aI300
aI300
aI300
aI300
aI300
aI300
aI300
aI300
aI300
aI300
aI300
aI300
aI300
aI300
aI300
aI300
aI300
aI300
aI300
aI300
aI300
aI300
aI300
aI300
aI300
aI300
aI300
aI300
aI300
aI300
aI300
aI300
aI300
aI300
aI300
aI300
aI300
aI300
aI300
aI300
aI300
aI300
aI300
aI300
aI300
aI300
aI300
aI300
aI300
aI300
aI300
aI300
aI300
aI300
aI300
aI300
aI300
aI300
aI300
aI300
aI300
aI300
aI300
aI300
aI300
aI300
aI300
aI300
aI300
aI300
aI300
aI300
aI300
aI300
aI300
aI300
aI300
aI300
aI300
aI300
aI300
aI300
aI300
aI300
aI300
aI300
aI300
aI300
aI300
aI300
aI300
aI300
aI300
aI300
aI300
aI300
aI300
aI300
aI300
aI300
aI300
aI300
aI300
aI300
aI300
aI300
aI300
aI300
aI300
aI300
aI300
aI300
aI300
aI300
aI300
aI300
aI300
aI300
aI300
aI300
aI300
aI300
aI300
aI300
aI300
aI300
aI300
aI300
aI300
aI300
aI300
aI300
aI300
aI300
aI300
aI300
aI300
aI300
aI300
aI300
aI300
aI300
aI300
aI300
aI300
aI300
aI300
aI300
aI300
aI300
aI300
aI300
aI300
aI300
aI300
aI300
aI300
aI300
aI300
aI300
aI300
aI300
aI300
aI300
aI300
aI300
aI300
aI300
aI300
aI300
aI300
aI300
aI300
aI300
aI300
aI300
aI300
aI300
aI300
aI300
aI300
aI300
aI300
aI300
aI300
aI300
aI300
aI300
aI300
aI300
aI300
aI300
aI300
aI300
aI300
aI300
aI300
aI300
aI300
aI300
aI300
aI300
aI300
aI300
aI300
aI300
aI300
aI300
aI300
aI300
aI300
aI300
aI300
aI300
aI300
aI300
aI300
aI300
aI300
aI300
aI300
aI300
aI300
aI300
aI300
aI300
aI300
aI300
aI300
aI300
aI300
aI300
aI300
aI300
aI300
aI300
aI300
aI300
aI300
aI300
aI300
aI300
aI300
aI300
aI300
aI300
aI300
aI300
aI300
aI300
aI300
aI300
aI300
aI300
aI300
aI300
aI300
aI300
aI300
aI300
aI300
aI300
aI300
aI300
aI300
aI300
aI300
aI300
aI300
aI300
aI300
a.